---
triple:          'arm64-apple-darwin'
binary-path:     '/Users/nikitasokovyh/trading-platform/rust_engine/target/debug/deps/librust_engine.dylib'
relocations:
  - { offset: 0x1E, size: 0x8, addend: 0x0, symName: __ZN4pyo35types4list13new_from_iter17h9170d1cf0bb6a280E, symObjAddr: 0x0, symBinAddr: 0x888, symSize: 0x29C }
  - { offset: 0x27E, size: 0x8, addend: 0x0, symName: __ZN4pyo35types4list13new_from_iter17h9170d1cf0bb6a280E, symObjAddr: 0x0, symBinAddr: 0x888, symSize: 0x29C }
  - { offset: 0x59B, size: 0x8, addend: 0x0, symName: __ZN4pyo35types8sequence10PySequence3len17h96e852b9e43baedaE, symObjAddr: 0x0, symBinAddr: 0xB24, symSize: 0xC0 }
  - { offset: 0x5E6, size: 0x8, addend: 0x0, symName: '__ZN77_$LT$pyo3..types..sequence..PySequence$u20$as$u20$core..ops..deref..Deref$GT$5deref17h7df4dafa57c7abfeE', symObjAddr: 0xC0, symBinAddr: 0xBE4, symSize: 0x14 }
  - { offset: 0xA1B, size: 0x8, addend: 0x0, symName: __ZN4pyo35types8sequence10PySequence3len17h96e852b9e43baedaE, symObjAddr: 0x0, symBinAddr: 0xB24, symSize: 0xC0 }
  - { offset: 0xAA3, size: 0x8, addend: 0x0, symName: __ZN4pyo33gil7GILPool3new17h6d6ab611329ad2beE, symObjAddr: 0x0, symBinAddr: 0xBF8, symSize: 0x3C }
  - { offset: 0xCC0, size: 0x8, addend: 0x0, symName: __ZN4pyo33gil7GILPool3new17h6d6ab611329ad2beE, symObjAddr: 0x0, symBinAddr: 0xBF8, symSize: 0x3C }
  - { offset: 0xCF6, size: 0x8, addend: 0x0, symName: __ZN4pyo33gil7GILPool6python17h83181ac0585910e8E, symObjAddr: 0x3C, symBinAddr: 0xC34, symSize: 0x20 }
  - { offset: 0xD37, size: 0x8, addend: 0x0, symName: __ZN4pyo35impl_10trampoline11module_init17h2303e8444f925643E, symObjAddr: 0x0, symBinAddr: 0xC54, symSize: 0x28 }
  - { offset: 0xDD8, size: 0x8, addend: 0x0, symName: __ZN4pyo35impl_10trampoline11module_init17h2303e8444f925643E, symObjAddr: 0x0, symBinAddr: 0xC54, symSize: 0x28 }
  - { offset: 0xE04, size: 0x8, addend: 0x0, symName: __ZN4pyo35impl_10trampoline23cfunction_with_keywords17hb607c1008ed63459E, symObjAddr: 0x28, symBinAddr: 0xC7C, symSize: 0x50 }
  - { offset: 0x143C, size: 0x8, addend: 0x0, symName: '__ZN87_$LT$I$u20$as$u20$core..iter..traits..iterator..Iterator..advance_by..SpecAdvanceBy$GT$15spec_advance_by28_$u7b$$u7b$closure$u7d$$u7d$17h9e4ddc9fa0e98919E', symObjAddr: 0x0, symBinAddr: 0xCCC, symSize: 0x40 }
  - { offset: 0x14F6, size: 0x8, addend: 0x0, symName: '__ZN87_$LT$I$u20$as$u20$core..iter..traits..iterator..Iterator..advance_by..SpecAdvanceBy$GT$15spec_advance_by28_$u7b$$u7b$closure$u7d$$u7d$17h9e4ddc9fa0e98919E', symObjAddr: 0x0, symBinAddr: 0xCCC, symSize: 0x40 }
  - { offset: 0x1A4D, size: 0x8, addend: 0x0, symName: '__ZN124_$LT$pyo3..instance..Py$LT$pyo3..types..any..PyAny$GT$$u20$as$u20$core..convert..From$LT$pyo3..instance..Py$LT$T$GT$$GT$$GT$4from17h20b8b47d06019c03E', symObjAddr: 0x0, symBinAddr: 0xD0C, symSize: 0x28 }
  - { offset: 0x1AEE, size: 0x8, addend: 0x0, symName: '__ZN124_$LT$pyo3..instance..Py$LT$pyo3..types..any..PyAny$GT$$u20$as$u20$core..convert..From$LT$pyo3..instance..Py$LT$T$GT$$GT$$GT$4from17h20b8b47d06019c03E', symObjAddr: 0x0, symBinAddr: 0xD0C, symSize: 0x28 }
  - { offset: 0x1D4A, size: 0x8, addend: 0x0, symName: '__ZN4core5array4iter94_$LT$impl$u20$core..iter..traits..collect..IntoIterator$u20$for$u20$$u5b$T$u3b$$u20$N$u5d$$GT$9into_iter17h48bd02b1230300aeE', symObjAddr: 0x28, symBinAddr: 0xD34, symSize: 0x88 }
  - { offset: 0x2079, size: 0x8, addend: 0x0, symName: '__ZN50_$LT$T$u20$as$u20$core..convert..Into$LT$U$GT$$GT$4into17h80e4f7c176cd1cdaE', symObjAddr: 0x1B4, symBinAddr: 0xEC0, symSize: 0x24 }
  - { offset: 0x2150, size: 0x8, addend: 0x0, symName: '__ZN4pyo38instance11Py$LT$T$GT$13into_non_null17h1c2530ddc8b52558E', symObjAddr: 0xB0, symBinAddr: 0xDBC, symSize: 0x34 }
  - { offset: 0x21E6, size: 0x8, addend: 0x0, symName: '__ZN4pyo38instance11Py$LT$T$GT$14from_owned_ptr17h8e982ff9d583159aE', symObjAddr: 0xE4, symBinAddr: 0xDF0, symSize: 0x48 }
  - { offset: 0x2249, size: 0x8, addend: 0x0, symName: '__ZN4pyo38instance11Py$LT$T$GT$8into_ptr17ha61fdc5b8a44f65cE', symObjAddr: 0x12C, symBinAddr: 0xE38, symSize: 0x88 }
  - { offset: 0x22DC, size: 0x8, addend: 0x0, symName: '__ZN4pyo310conversion13FromPyPointer26from_borrowed_ptr_or_panic28_$u7b$$u7b$closure$u7d$$u7d$17h8c4fb73406741050E', symObjAddr: 0x0, symBinAddr: 0xEE4, symSize: 0x14 }
  - { offset: 0x2382, size: 0x8, addend: 0x0, symName: '__ZN4pyo310conversion13FromPyPointer26from_borrowed_ptr_or_panic28_$u7b$$u7b$closure$u7d$$u7d$17h8c4fb73406741050E', symObjAddr: 0x0, symBinAddr: 0xEE4, symSize: 0x14 }
  - { offset: 0x23E4, size: 0x8, addend: 0x0, symName: '__ZN53_$LT$T$u20$as$u20$pyo3..conversion..FromPyPointer$GT$24from_borrowed_ptr_or_opt28_$u7b$$u7b$closure$u7d$$u7d$17h0401c2064a9c6381E', symObjAddr: 0x14, symBinAddr: 0xEF8, symSize: 0x6C }
  - { offset: 0x2426, size: 0x8, addend: 0x0, symName: '__ZN53_$LT$T$u20$as$u20$pyo3..conversion..FromPyPointer$GT$24from_borrowed_ptr_or_opt28_$u7b$$u7b$closure$u7d$$u7d$17hb1615846dc5f76c8E', symObjAddr: 0x80, symBinAddr: 0xF64, symSize: 0x6C }
  - { offset: 0x2788, size: 0x8, addend: 0x0, symName: __ZN4core3mem6forget17h05799b378398a87bE, symObjAddr: 0x0, symBinAddr: 0xFD0, symSize: 0x10 }
  - { offset: 0x279F, size: 0x8, addend: 0x0, symName: __ZN4core3mem6forget17h05799b378398a87bE, symObjAddr: 0x0, symBinAddr: 0xFD0, symSize: 0x10 }
  - { offset: 0x27D0, size: 0x8, addend: 0x0, symName: __ZN4core3mem6forget17h1e33fbfe8661920dE, symObjAddr: 0x10, symBinAddr: 0xFE0, symSize: 0x10 }
  - { offset: 0x2A00, size: 0x8, addend: 0x0, symName: __ZN11rust_engine11rust_engine17h2528eb8feef142cfE, symObjAddr: 0x0, symBinAddr: 0xFF0, symSize: 0x1EC }
  - { offset: 0x2A97, size: 0x8, addend: 0x0, symName: __ZN11rust_engine11rust_engine17h2528eb8feef142cfE, symObjAddr: 0x0, symBinAddr: 0xFF0, symSize: 0x1EC }
  - { offset: 0x2B57, size: 0x8, addend: 0x0, symName: __ZN11rust_engine12run_backtest17hf67adcd2c34c5797E, symObjAddr: 0x1EC, symBinAddr: 0x11DC, symSize: 0x3FC }
  - { offset: 0x2CA0, size: 0x8, addend: 0x0, symName: __ZN11rust_engine13calculate_rsi17h2432e350d66a5f79E, symObjAddr: 0x5E8, symBinAddr: 0x15D8, symSize: 0x69C }
  - { offset: 0x2DE4, size: 0x8, addend: 0x0, symName: __ZN11rust_engine1_25__pyfunction_run_backtest17h07dc5dbfdb00f950E, symObjAddr: 0xC84, symBinAddr: 0x1C74, symSize: 0x3AC }
  - { offset: 0x2F32, size: 0x8, addend: 0x0, symName: __ZN11rust_engine1_26__pyfunction_calculate_rsi17h7f476463f9d905dbE, symObjAddr: 0x1030, symBinAddr: 0x2020, symSize: 0x2E0 }
  - { offset: 0x306C, size: 0x8, addend: 0x0, symName: '__ZN11rust_engine1_52_$LT$impl$u20$rust_engine..run_backtest..MakeDef$GT$3DEF10trampoline17h7d306a05179c181cE', symObjAddr: 0x1310, symBinAddr: 0x2300, symSize: 0x4C }
  - { offset: 0x30B4, size: 0x8, addend: 0x0, symName: '__ZN11rust_engine1_53_$LT$impl$u20$rust_engine..calculate_rsi..MakeDef$GT$3DEF10trampoline17h5afaaef41101a38cE', symObjAddr: 0x135C, symBinAddr: 0x234C, symSize: 0x4C }
  - { offset: 0x3CB3, size: 0x8, addend: 0x0, symName: __ZN4pyo35impl_10pyfunction16_wrap_pyfunction17ha37fc5a4fda55217E, symObjAddr: 0x0, symBinAddr: 0x2398, symSize: 0x50 }
  - { offset: 0x3CCF, size: 0x8, addend: 0x0, symName: __ZN4pyo35impl_10pyfunction16_wrap_pyfunction17ha37fc5a4fda55217E, symObjAddr: 0x0, symBinAddr: 0x2398, symSize: 0x50 }
  - { offset: 0x424A, size: 0x8, addend: 0x0, symName: __ZN4core3fmt9Arguments17from_str_nonconst17h7de01fddf330e6cdE, symObjAddr: 0x0, symBinAddr: 0x23E8, symSize: 0x28 }
  - { offset: 0x4596, size: 0x8, addend: 0x0, symName: __ZN4core3fmt9Arguments17from_str_nonconst17h7de01fddf330e6cdE, symObjAddr: 0x0, symBinAddr: 0x23E8, symSize: 0x28 }
  - { offset: 0x45B9, size: 0x8, addend: 0x0, symName: __ZN4core3fmt9Arguments8from_str17h6c7ef1386aad7060E, symObjAddr: 0x28, symBinAddr: 0x2410, symSize: 0x20 }
  - { offset: 0x45FA, size: 0x8, addend: 0x0, symName: '__ZN11rust_engine11rust_engine4init28_$u7b$$u7b$closure$u7d$$u7d$17h803bcee8ee70281dE', symObjAddr: 0x0, symBinAddr: 0x2430, symSize: 0x28 }
  - { offset: 0x469B, size: 0x8, addend: 0x0, symName: '__ZN11rust_engine11rust_engine4init28_$u7b$$u7b$closure$u7d$$u7d$17h803bcee8ee70281dE', symObjAddr: 0x0, symBinAddr: 0x2430, symSize: 0x28 }
  - { offset: 0x4C12, size: 0x8, addend: 0x0, symName: '__ZN92_$LT$pyo3..types..dict..PyDictIterator$u20$as$u20$core..iter..traits..iterator..Iterator$GT$4next17h90dc5f08f49319acE', symObjAddr: 0x0, symBinAddr: 0x2458, symSize: 0x114 }
  - { offset: 0x4C33, size: 0x8, addend: 0x0, symName: '__ZN92_$LT$pyo3..types..dict..PyDictIterator$u20$as$u20$core..iter..traits..iterator..Iterator$GT$4next17h90dc5f08f49319acE', symObjAddr: 0x0, symBinAddr: 0x2458, symSize: 0x114 }
  - { offset: 0x4E98, size: 0x8, addend: 0x0, symName: __ZN4core9panicking13assert_failed17h03823b5da8827c47E, symObjAddr: 0x0, symBinAddr: 0x597A4, symSize: 0x54 }
  - { offset: 0x4EFC, size: 0x8, addend: 0x0, symName: __ZN4core9panicking13assert_failed17h03823b5da8827c47E, symObjAddr: 0x0, symBinAddr: 0x597A4, symSize: 0x54 }
  - { offset: 0x52B7, size: 0x8, addend: 0x0, symName: '__ZN4pyo311conversions3std3vec136_$LT$impl$u20$pyo3..conversion..IntoPy$LT$pyo3..instance..Py$LT$pyo3..types..any..PyAny$GT$$GT$$u20$for$u20$alloc..vec..Vec$LT$T$GT$$GT$7into_py17h6ddba9bf8615ac7cE', symObjAddr: 0x0, symBinAddr: 0x256C, symSize: 0xC4 }
  - { offset: 0x64DD, size: 0x8, addend: 0x0, symName: __ZN5alloc3vec9from_elem17h3e22188a31bc76d2E, symObjAddr: 0x7C4, symBinAddr: 0x2D30, symSize: 0x24 }
  - { offset: 0x6528, size: 0x8, addend: 0x0, symName: '__ZN72_$LT$alloc..vec..Vec$LT$T$C$A$GT$$u20$as$u20$core..ops..deref..Deref$GT$5deref17h3e2896915b81c19bE', symObjAddr: 0x838, symBinAddr: 0x2DA4, symSize: 0x20 }
  - { offset: 0x65E5, size: 0x8, addend: 0x0, symName: '__ZN72_$LT$alloc..vec..Vec$LT$T$C$A$GT$$u20$as$u20$core..ops..deref..Deref$GT$5deref17ha7125029ea947732E', symObjAddr: 0x858, symBinAddr: 0x2DC4, symSize: 0x20 }
  - { offset: 0x6708, size: 0x8, addend: 0x0, symName: '__ZN81_$LT$alloc..vec..Vec$LT$T$C$A$GT$$u20$as$u20$core..ops..index..Index$LT$I$GT$$GT$5index17h115dc1f62650575aE', symObjAddr: 0x878, symBinAddr: 0x2DE4, symSize: 0x40 }
  - { offset: 0x6822, size: 0x8, addend: 0x0, symName: '__ZN81_$LT$alloc..vec..Vec$LT$T$C$A$GT$$u20$as$u20$core..ops..index..Index$LT$I$GT$$GT$5index17h5054a56788360dadE', symObjAddr: 0x8B8, symBinAddr: 0x2E24, symSize: 0x44 }
  - { offset: 0x6977, size: 0x8, addend: 0x0, symName: '__ZN84_$LT$alloc..vec..Vec$LT$T$C$A$GT$$u20$as$u20$core..ops..index..IndexMut$LT$I$GT$$GT$9index_mut17h16dc393ae3e14a79E', symObjAddr: 0x8FC, symBinAddr: 0x2E68, symSize: 0x44 }
  - { offset: 0x6A96, size: 0x8, addend: 0x0, symName: '__ZN90_$LT$alloc..vec..Vec$LT$T$C$A$GT$$u20$as$u20$core..iter..traits..collect..IntoIterator$GT$9into_iter17h22b3b6d981bf46bfE', symObjAddr: 0x940, symBinAddr: 0x2EAC, symSize: 0xA8 }
  - { offset: 0x70C3, size: 0x8, addend: 0x0, symName: '__ZN4pyo311conversions3std3vec136_$LT$impl$u20$pyo3..conversion..IntoPy$LT$pyo3..instance..Py$LT$pyo3..types..any..PyAny$GT$$GT$$u20$for$u20$alloc..vec..Vec$LT$T$GT$$GT$7into_py17h6ddba9bf8615ac7cE', symObjAddr: 0x0, symBinAddr: 0x256C, symSize: 0xC4 }
  - { offset: 0x71D5, size: 0x8, addend: 0x0, symName: '__ZN71_$LT$T$u20$as$u20$pyo3..impl_..extract_argument..PyFunctionArgument$GT$7extract17h29b8055c293a6a20E', symObjAddr: 0x7E8, symBinAddr: 0x2D54, symSize: 0x28 }
  - { offset: 0x7214, size: 0x8, addend: 0x0, symName: '__ZN71_$LT$T$u20$as$u20$pyo3..impl_..extract_argument..PyFunctionArgument$GT$7extract17h516e0d4148643f74E', symObjAddr: 0x810, symBinAddr: 0x2D7C, symSize: 0x28 }
  - { offset: 0x7265, size: 0x8, addend: 0x0, symName: '__ZN4pyo35types8sequence85_$LT$impl$u20$pyo3..conversion..FromPyObject$u20$for$u20$alloc..vec..Vec$LT$T$GT$$GT$7extract17h764af425c5f807d7E', symObjAddr: 0xC4, symBinAddr: 0x2630, symSize: 0x7C }
  - { offset: 0x729C, size: 0x8, addend: 0x0, symName: '__ZN4pyo35types8sequence85_$LT$impl$u20$pyo3..conversion..FromPyObject$u20$for$u20$alloc..vec..Vec$LT$T$GT$$GT$7extract17hdc7c84d0672b63e3E', symObjAddr: 0x140, symBinAddr: 0x26AC, symSize: 0x7C }
  - { offset: 0x7584, size: 0x8, addend: 0x0, symName: '__ZN5alloc3vec12Vec$LT$T$GT$13with_capacity17h01409609f634bee8E', symObjAddr: 0x1BC, symBinAddr: 0x2728, symSize: 0x40 }
  - { offset: 0x7665, size: 0x8, addend: 0x0, symName: '__ZN5alloc3vec12Vec$LT$T$GT$13with_capacity17h7da0aae51fe4d39dE', symObjAddr: 0x1FC, symBinAddr: 0x2768, symSize: 0x40 }
  - { offset: 0x7704, size: 0x8, addend: 0x0, symName: '__ZN5alloc3vec12Vec$LT$T$GT$3new17he874e07da1e0dc27E', symObjAddr: 0x23C, symBinAddr: 0x27A8, symSize: 0x14 }
  - { offset: 0x787F, size: 0x8, addend: 0x0, symName: '__ZN5alloc3vec16Vec$LT$T$C$A$GT$11extend_with17hcecf724579d14537E', symObjAddr: 0x250, symBinAddr: 0x27BC, symSize: 0x1C4 }
  - { offset: 0x7B2A, size: 0x8, addend: 0x0, symName: '__ZN5alloc3vec16Vec$LT$T$C$A$GT$3len17hb11358009758be4fE', symObjAddr: 0x414, symBinAddr: 0x2980, symSize: 0x18 }
  - { offset: 0x7B6C, size: 0x8, addend: 0x0, symName: '__ZN5alloc3vec16Vec$LT$T$C$A$GT$4push17h2f85907749a50755E', symObjAddr: 0x42C, symBinAddr: 0x2998, symSize: 0x28 }
  - { offset: 0x7BB0, size: 0x8, addend: 0x0, symName: '__ZN5alloc3vec16Vec$LT$T$C$A$GT$4push17h40281dad27bb0478E', symObjAddr: 0x454, symBinAddr: 0x29C0, symSize: 0x28 }
  - { offset: 0x7C01, size: 0x8, addend: 0x0, symName: '__ZN5alloc3vec16Vec$LT$T$C$A$GT$4push17h63861222a513d003E', symObjAddr: 0x47C, symBinAddr: 0x29E8, symSize: 0x30 }
  - { offset: 0x7D75, size: 0x8, addend: 0x0, symName: '__ZN5alloc3vec16Vec$LT$T$C$A$GT$7reserve17h64510b40d8dc50a1E', symObjAddr: 0x4AC, symBinAddr: 0x2A18, symSize: 0xA0 }
  - { offset: 0x7FD7, size: 0x8, addend: 0x0, symName: '__ZN5alloc3vec16Vec$LT$T$C$A$GT$8push_mut17h01d0a9eeca9a26f2E', symObjAddr: 0x54C, symBinAddr: 0x2AB8, symSize: 0xCC }
  - { offset: 0x826D, size: 0x8, addend: 0x0, symName: '__ZN5alloc3vec16Vec$LT$T$C$A$GT$8push_mut17h179a22727f4252d2E', symObjAddr: 0x618, symBinAddr: 0x2B84, symSize: 0xE0 }
  - { offset: 0x84DD, size: 0x8, addend: 0x0, symName: '__ZN5alloc3vec16Vec$LT$T$C$A$GT$8push_mut17h59887ccd24625bd7E', symObjAddr: 0x6F8, symBinAddr: 0x2C64, symSize: 0xCC }
  - { offset: 0x8BDD, size: 0x8, addend: 0x0, symName: __ZN4core4iter6traits8iterator8Iterator4take17hfbb27ee312221de1E, symObjAddr: 0x0, symBinAddr: 0x2F54, symSize: 0x2C }
  - { offset: 0x8C5C, size: 0x8, addend: 0x0, symName: __ZN4core4iter6traits8iterator8Iterator4take17hfbb27ee312221de1E, symObjAddr: 0x0, symBinAddr: 0x2F54, symSize: 0x2C }
  - { offset: 0x8CBD, size: 0x8, addend: 0x0, symName: '__ZN72_$LT$$RF$mut$u20$I$u20$as$u20$core..iter..traits..iterator..Iterator$GT$4next17h23944d1894941bcdE', symObjAddr: 0x2C, symBinAddr: 0x2F80, symSize: 0x34 }
  - { offset: 0x8D00, size: 0x8, addend: 0x0, symName: '__ZN83_$LT$$RF$mut$u20$I$u20$as$u20$core..iter..traits..exact_size..ExactSizeIterator$GT$3len17ha29260e4f275c478E', symObjAddr: 0x60, symBinAddr: 0x2FB4, symSize: 0x34 }
  - { offset: 0x8FAC, size: 0x8, addend: 0x0, symName: __ZN4pyo35impl_10trampoline10trampoline17h0486b1159ee855c2E, symObjAddr: 0x0, symBinAddr: 0x2FE8, symSize: 0x168 }
  - { offset: 0x904D, size: 0x8, addend: 0x0, symName: __ZN4pyo35impl_10trampoline10trampoline17h0486b1159ee855c2E, symObjAddr: 0x0, symBinAddr: 0x2FE8, symSize: 0x168 }
  - { offset: 0x90F1, size: 0x8, addend: 0x0, symName: __ZN4pyo35impl_10trampoline10trampoline17he5ab803d7c770040E, symObjAddr: 0x168, symBinAddr: 0x3150, symSize: 0x158 }
  - { offset: 0x9199, size: 0x8, addend: 0x0, symName: '__ZN4pyo35impl_10trampoline10trampoline28_$u7b$$u7b$closure$u7d$$u7d$17ha76a6626343b82d4E', symObjAddr: 0x2C0, symBinAddr: 0x32A8, symSize: 0x24 }
  - { offset: 0x91E7, size: 0x8, addend: 0x0, symName: '__ZN4pyo35impl_10trampoline10trampoline28_$u7b$$u7b$closure$u7d$$u7d$17hed33afd94cd41133E', symObjAddr: 0x2E4, symBinAddr: 0x32CC, symSize: 0x34 }
  - { offset: 0x923C, size: 0x8, addend: 0x0, symName: '__ZN4pyo35impl_10trampoline11module_init28_$u7b$$u7b$closure$u7d$$u7d$17h6f46818e25ba75ccE', symObjAddr: 0x318, symBinAddr: 0x3300, symSize: 0x40 }
  - { offset: 0x9288, size: 0x8, addend: 0x0, symName: '__ZN4pyo35impl_10trampoline11module_init28_$u7b$$u7b$closure$u7d$$u7d$28_$u7b$$u7b$closure$u7d$$u7d$17h508a60ca208c0292E', symObjAddr: 0x358, symBinAddr: 0x3340, symSize: 0x24 }
  - { offset: 0x92DF, size: 0x8, addend: 0x0, symName: '__ZN4pyo35impl_10trampoline23cfunction_with_keywords28_$u7b$$u7b$closure$u7d$$u7d$17h53533c5704b14602E', symObjAddr: 0x37C, symBinAddr: 0x3364, symSize: 0x40 }
  - { offset: 0x99D6, size: 0x8, addend: 0x0, symName: __ZN4core4iter6traits8iterator8Iterator9enumerate17h52461b60377e44c7E, symObjAddr: 0x0, symBinAddr: 0x33A4, symSize: 0x38 }
  - { offset: 0x9A50, size: 0x8, addend: 0x0, symName: __ZN4core4iter6traits8iterator8Iterator9enumerate17h52461b60377e44c7E, symObjAddr: 0x0, symBinAddr: 0x33A4, symSize: 0x38 }
  - { offset: 0x9AFE, size: 0x8, addend: 0x0, symName: '__ZN99_$LT$core..array..iter..IntoIter$LT$T$C$_$GT$$u20$as$u20$core..iter..traits..iterator..Iterator$GT$4next17h6a8938ce537e5193E', symObjAddr: 0x38, symBinAddr: 0x33DC, symSize: 0x2C }
  - { offset: 0x9E4C, size: 0x8, addend: 0x0, symName: '__ZN102_$LT$core..iter..adapters..zip..Zip$LT$A$C$B$GT$$u20$as$u20$core..iter..traits..iterator..Iterator$GT$4next17heb7c4d6b1921e884E', symObjAddr: 0x0, symBinAddr: 0x3408, symSize: 0x24 }
  - { offset: 0x9E72, size: 0x8, addend: 0x0, symName: '__ZN102_$LT$core..iter..adapters..zip..Zip$LT$A$C$B$GT$$u20$as$u20$core..iter..traits..iterator..Iterator$GT$4next17heb7c4d6b1921e884E', symObjAddr: 0x0, symBinAddr: 0x3408, symSize: 0x24 }
  - { offset: 0x9EB6, size: 0x8, addend: 0x0, symName: '__ZN111_$LT$core..iter..adapters..zip..Zip$LT$A$C$B$GT$$u20$as$u20$core..iter..adapters..zip..ZipImpl$LT$A$C$B$GT$$GT$3new17hb16dbc25a5c0acceE', symObjAddr: 0x24, symBinAddr: 0x342C, symSize: 0xBC }
  - { offset: 0x9F49, size: 0x8, addend: 0x0, symName: '__ZN111_$LT$core..iter..adapters..zip..Zip$LT$A$C$B$GT$$u20$as$u20$core..iter..adapters..zip..ZipImpl$LT$A$C$B$GT$$GT$4next17h647da3a25bc52a1aE', symObjAddr: 0xE0, symBinAddr: 0x34E8, symSize: 0xB0 }
  - { offset: 0xA095, size: 0x8, addend: 0x0, symName: __ZN4core4iter6traits8iterator8Iterator9enumerate17hf6196db6b27c1323E, symObjAddr: 0x190, symBinAddr: 0x3598, symSize: 0x38 }
  - { offset: 0xA0EE, size: 0x8, addend: 0x0, symName: '__ZN63_$LT$I$u20$as$u20$core..iter..traits..collect..IntoIterator$GT$9into_iter17h18d710aacd9878faE', symObjAddr: 0x1C8, symBinAddr: 0x35D0, symSize: 0x30 }
  - { offset: 0xA615, size: 0x8, addend: 0x0, symName: '__ZN103_$LT$alloc..vec..into_iter..IntoIter$LT$T$C$A$GT$$u20$as$u20$core..iter..traits..iterator..Iterator$GT$4next17hda1d0d9753eef770E', symObjAddr: 0x0, symBinAddr: 0x3600, symSize: 0x94 }
  - { offset: 0xAE46, size: 0x8, addend: 0x0, symName: __ZN4core4iter6traits10exact_size17ExactSizeIterator3len17hc0105524e708979fE, symObjAddr: 0x2F8, symBinAddr: 0x38F8, symSize: 0xB8 }
  - { offset: 0xAFB0, size: 0x8, addend: 0x0, symName: __ZN4core4iter6traits8iterator8Iterator3map17h5f74805b86955529E, symObjAddr: 0x3B0, symBinAddr: 0x39B0, symSize: 0x28 }
  - { offset: 0xB1EF, size: 0x8, addend: 0x0, symName: '__ZN103_$LT$alloc..vec..into_iter..IntoIter$LT$T$C$A$GT$$u20$as$u20$core..iter..traits..iterator..Iterator$GT$4next17hda1d0d9753eef770E', symObjAddr: 0x0, symBinAddr: 0x3600, symSize: 0x94 }
  - { offset: 0xB349, size: 0x8, addend: 0x0, symName: '__ZN103_$LT$alloc..vec..into_iter..IntoIter$LT$T$C$A$GT$$u20$as$u20$core..iter..traits..iterator..Iterator$GT$8try_fold17h497ebcd477ae95b6E', symObjAddr: 0x94, symBinAddr: 0x3694, symSize: 0x174 }
  - { offset: 0xB520, size: 0x8, addend: 0x0, symName: '__ZN103_$LT$alloc..vec..into_iter..IntoIter$LT$T$C$A$GT$$u20$as$u20$core..iter..traits..iterator..Iterator$GT$9size_hint17h9312a7dcc7d9a3edE', symObjAddr: 0x208, symBinAddr: 0x3808, symSize: 0xB4 }
  - { offset: 0xB63F, size: 0x8, addend: 0x0, symName: '__ZN114_$LT$alloc..vec..into_iter..IntoIter$LT$T$C$A$GT$$u20$as$u20$core..iter..traits..exact_size..ExactSizeIterator$GT$8is_empty17h80e0829458f05aa3E', symObjAddr: 0x2BC, symBinAddr: 0x38BC, symSize: 0x3C }
  - { offset: 0xB9BC, size: 0x8, addend: 0x0, symName: '__ZN5alloc3vec9into_iter21IntoIter$LT$T$C$A$GT$16as_raw_mut_slice17h058a2143114ee3dfE', symObjAddr: 0x3D8, symBinAddr: 0x39D8, symSize: 0xCC }
  - { offset: 0xBB40, size: 0x8, addend: 0x0, symName: __ZN4pyo35impl_5panic9PanicTrap3new17h0f5ea80d3a05d4ffE, symObjAddr: 0x0, symBinAddr: 0x3AA4, symSize: 0x18 }
  - { offset: 0xBBCF, size: 0x8, addend: 0x0, symName: __ZN4pyo35impl_5panic9PanicTrap3new17h0f5ea80d3a05d4ffE, symObjAddr: 0x0, symBinAddr: 0x3AA4, symSize: 0x18 }
  - { offset: 0xBBF1, size: 0x8, addend: 0x0, symName: __ZN4pyo35impl_5panic9PanicTrap6disarm17hcce425a00586bd0cE, symObjAddr: 0x18, symBinAddr: 0x3ABC, symSize: 0x28 }
  - { offset: 0xBC31, size: 0x8, addend: 0x0, symName: '__ZN100_$LT$core..array..iter..iter_inner..PolymorphicIter$LT$DATA$GT$$u20$as$u20$core..ops..drop..Drop$GT$4drop17hfbe69ae8b29904eaE', symObjAddr: 0x0, symBinAddr: 0x3AE4, symSize: 0x30 }
  - { offset: 0xBD20, size: 0x8, addend: 0x0, symName: __ZN4core3ops8function6FnOnce9call_once17h09a7d20cd9ab6cc7E, symObjAddr: 0x9C, symBinAddr: 0x3B80, symSize: 0x4C }
  - { offset: 0xBD64, size: 0x8, addend: 0x0, symName: __ZN4core3ops8function6FnOnce9call_once17h155aee8186b1bda9E, symObjAddr: 0xE8, symBinAddr: 0x3BCC, symSize: 0x3C }
  - { offset: 0xBDA8, size: 0x8, addend: 0x0, symName: __ZN4core3ops8function6FnOnce9call_once17h537fc14723c30937E, symObjAddr: 0x124, symBinAddr: 0x3C08, symSize: 0x3C }
  - { offset: 0xBDEC, size: 0x8, addend: 0x0, symName: __ZN4core3ops8function6FnOnce9call_once17h8fe9b30f517cd8b6E, symObjAddr: 0x160, symBinAddr: 0x3C44, symSize: 0x4C }
  - { offset: 0xBE30, size: 0x8, addend: 0x0, symName: __ZN4core3ops8function6FnOnce9call_once17hed4cf61c75b2a87aE, symObjAddr: 0x1AC, symBinAddr: 0x3C90, symSize: 0x24 }
  - { offset: 0xBE8B, size: 0x8, addend: 0x0, symName: '__ZN100_$LT$core..array..iter..iter_inner..PolymorphicIter$LT$DATA$GT$$u20$as$u20$core..ops..drop..Drop$GT$4drop17hfbe69ae8b29904eaE', symObjAddr: 0x0, symBinAddr: 0x3AE4, symSize: 0x30 }
  - { offset: 0xBF09, size: 0x8, addend: 0x0, symName: '__ZN82_$LT$core..array..iter..IntoIter$LT$T$C$_$GT$$u20$as$u20$core..ops..drop..Drop$GT$4drop17h6909ba28d8887c33E', symObjAddr: 0x654, symBinAddr: 0x40CC, symSize: 0x30 }
  - { offset: 0xC094, size: 0x8, addend: 0x0, symName: '__ZN4core3ptr115drop_in_place$LT$core..array..iter..IntoIter$LT$pyo3..instance..Py$LT$pyo3..types..any..PyAny$GT$$C$4_usize$GT$$GT$17h9ec235e665481364E', symObjAddr: 0x1F4, symBinAddr: 0x3CB4, symSize: 0x24 }
  - { offset: 0xC0C3, size: 0x8, addend: 0x0, symName: '__ZN4core3ptr157drop_in_place$LT$$LT$alloc..vec..into_iter..IntoIter$LT$T$C$A$GT$$u20$as$u20$core..ops..drop..Drop$GT$..drop..DropGuard$LT$f64$C$alloc..alloc..Global$GT$$GT$17h6b0e2974c6f363f6E', symObjAddr: 0x23C, symBinAddr: 0x3CD8, symSize: 0x24 }
  - { offset: 0xC0F2, size: 0x8, addend: 0x0, symName: '__ZN4core3ptr165drop_in_place$LT$core..iter..adapters..enumerate..Enumerate$LT$core..array..iter..IntoIter$LT$pyo3..instance..Py$LT$pyo3..types..any..PyAny$GT$$C$4_usize$GT$$GT$$GT$17hfaefe92604f81fffE', symObjAddr: 0x260, symBinAddr: 0x3CFC, symSize: 0x24 }
  - { offset: 0xC121, size: 0x8, addend: 0x0, symName: '__ZN4core3ptr189drop_in_place$LT$core..array..iter..iter_inner..PolymorphicIter$LT$$u5b$core..mem..maybe_uninit..MaybeUninit$LT$pyo3..instance..Py$LT$pyo3..types..any..PyAny$GT$$GT$$u3b$$u20$4$u5d$$GT$$GT$17h7571004eeb85be39E', symObjAddr: 0x284, symBinAddr: 0x3D20, symSize: 0x24 }
  - { offset: 0xC150, size: 0x8, addend: 0x0, symName: '__ZN4core3ptr308drop_in_place$LT$core..iter..adapters..map..Map$LT$alloc..vec..into_iter..IntoIter$LT$f64$GT$$C$pyo3..conversions..std..vec..$LT$impl$u20$pyo3..conversion..IntoPy$LT$pyo3..instance..Py$LT$pyo3..types..any..PyAny$GT$$GT$$u20$for$u20$alloc..vec..Vec$LT$f64$GT$$GT$..into_py..$u7b$$u7b$closure$u7d$$u7d$$GT$$GT$17hf6a1d7ed48f93c01E', symObjAddr: 0x2A8, symBinAddr: 0x3D44, symSize: 0x24 }
  - { offset: 0xC17F, size: 0x8, addend: 0x0, symName: '__ZN4core3ptr47drop_in_place$LT$alloc..vec..Vec$LT$f64$GT$$GT$17h33b2f9ea3c9d704dE', symObjAddr: 0x2CC, symBinAddr: 0x3D68, symSize: 0x5C }
  - { offset: 0xC1AE, size: 0x8, addend: 0x0, symName: '__ZN4core3ptr47drop_in_place$LT$alloc..vec..Vec$LT$i32$GT$$GT$17hc4056fe4eda1b808E', symObjAddr: 0x328, symBinAddr: 0x3DC4, symSize: 0x5C }
  - { offset: 0xC1DD, size: 0x8, addend: 0x0, symName: '__ZN4core3ptr54drop_in_place$LT$alloc..raw_vec..RawVec$LT$f64$GT$$GT$17h774b9ff040b039a5E', symObjAddr: 0x3A8, symBinAddr: 0x3E20, symSize: 0x24 }
  - { offset: 0xC20C, size: 0x8, addend: 0x0, symName: '__ZN4core3ptr54drop_in_place$LT$alloc..raw_vec..RawVec$LT$i32$GT$$GT$17h826e5a5882ca7696E', symObjAddr: 0x3CC, symBinAddr: 0x3E44, symSize: 0x24 }
  - { offset: 0xC23B, size: 0x8, addend: 0x0, symName: '__ZN4core3ptr62drop_in_place$LT$alloc..vec..set_len_on_drop..SetLenOnDrop$GT$17h6468db3f5063092bE', symObjAddr: 0x3F0, symBinAddr: 0x3E68, symSize: 0x24 }
  - { offset: 0xC26A, size: 0x8, addend: 0x0, symName: '__ZN4core3ptr63drop_in_place$LT$alloc..vec..into_iter..IntoIter$LT$f64$GT$$GT$17h19cd3d4e6c26aefaE', symObjAddr: 0x414, symBinAddr: 0x3E8C, symSize: 0x24 }
  - { offset: 0xC299, size: 0x8, addend: 0x0, symName: '__ZN4core3ptr72drop_in_place$LT$pyo3..instance..Py$LT$pyo3..types..list..PyList$GT$$GT$17h77dc79b3ed6176f7E', symObjAddr: 0x438, symBinAddr: 0x3EB0, symSize: 0x24 }
  - { offset: 0xC2C8, size: 0x8, addend: 0x0, symName: '__ZN4core3ptr73drop_in_place$LT$core..result..Result$LT$usize$C$pyo3..err..PyErr$GT$$GT$17he9f8555f13511f34E', symObjAddr: 0x45C, symBinAddr: 0x3ED4, symSize: 0x40 }
  - { offset: 0xC2F7, size: 0x8, addend: 0x0, symName: '__ZN4core3ptr91drop_in_place$LT$$u5b$pyo3..instance..Py$LT$pyo3..types..any..PyAny$GT$$u3b$$u20$4$u5d$$GT$17h5d1ffbd559b18ea4E', symObjAddr: 0x49C, symBinAddr: 0x3F14, symSize: 0xA4 }
  - { offset: 0xC326, size: 0x8, addend: 0x0, symName: '__ZN4core3ptr98drop_in_place$LT$core..option..Option$LT$pyo3..instance..Py$LT$pyo3..types..any..PyAny$GT$$GT$$GT$17h3919baeda381fdd5E', symObjAddr: 0x540, symBinAddr: 0x3FB8, symSize: 0x44 }
  - { offset: 0xCCFF, size: 0x8, addend: 0x0, symName: '__ZN77_$LT$alloc..raw_vec..RawVec$LT$T$C$A$GT$$u20$as$u20$core..ops..drop..Drop$GT$4drop17h00596fb12de16575E', symObjAddr: 0x5F4, symBinAddr: 0x406C, symSize: 0x30 }
  - { offset: 0xCD3B, size: 0x8, addend: 0x0, symName: '__ZN77_$LT$alloc..raw_vec..RawVec$LT$T$C$A$GT$$u20$as$u20$core..ops..drop..Drop$GT$4drop17h9f6e957205eead75E', symObjAddr: 0x624, symBinAddr: 0x409C, symSize: 0x30 }
  - { offset: 0xCDD3, size: 0x8, addend: 0x0, symName: '__ZN157_$LT$$LT$alloc..vec..into_iter..IntoIter$LT$T$C$A$GT$$u20$as$u20$core..ops..drop..Drop$GT$..drop..DropGuard$LT$T$C$A$GT$$u20$as$u20$core..ops..drop..Drop$GT$4drop17h3afc93c37dba3341E', symObjAddr: 0x30, symBinAddr: 0x3B14, symSize: 0x6C }
  - { offset: 0xCF3F, size: 0x8, addend: 0x0, symName: '__ZN86_$LT$alloc..vec..into_iter..IntoIter$LT$T$C$A$GT$$u20$as$u20$core..ops..drop..Drop$GT$4drop17h6bc864ea809232c0E', symObjAddr: 0x6A4, symBinAddr: 0x411C, symSize: 0x64 }
  - { offset: 0xD056, size: 0x8, addend: 0x0, symName: '__ZN70_$LT$alloc..vec..Vec$LT$T$C$A$GT$$u20$as$u20$core..ops..drop..Drop$GT$4drop17h0b02c45b06cc7c68E', symObjAddr: 0x5AC, symBinAddr: 0x4024, symSize: 0x24 }
  - { offset: 0xD106, size: 0x8, addend: 0x0, symName: '__ZN70_$LT$alloc..vec..Vec$LT$T$C$A$GT$$u20$as$u20$core..ops..drop..Drop$GT$4drop17he1ce77df67c9e4fbE', symObjAddr: 0x5D0, symBinAddr: 0x4048, symSize: 0x24 }
  - { offset: 0xD21C, size: 0x8, addend: 0x0, symName: '__ZN83_$LT$alloc..vec..set_len_on_drop..SetLenOnDrop$u20$as$u20$core..ops..drop..Drop$GT$4drop17h4ab532b3ea2ef5f8E', symObjAddr: 0x684, symBinAddr: 0x40FC, symSize: 0x20 }
  - { offset: 0xD34C, size: 0x8, addend: 0x0, symName: '__ZN69_$LT$pyo3..instance..Py$LT$T$GT$$u20$as$u20$core..ops..drop..Drop$GT$4drop17h2a146a705cad7aa4E', symObjAddr: 0x584, symBinAddr: 0x3FFC, symSize: 0x28 }
  - { offset: 0xDAE4, size: 0x8, addend: 0x0, symName: __ZN4pyo35impl_16extract_argument16extract_argument17h2553ddaf7012082eE, symObjAddr: 0x0, symBinAddr: 0x4180, symSize: 0x134 }
  - { offset: 0xE3D0, size: 0x8, addend: 0x0, symName: __ZN4pyo35impl_16extract_argument16extract_argument17h2553ddaf7012082eE, symObjAddr: 0x0, symBinAddr: 0x4180, symSize: 0x134 }
  - { offset: 0xE455, size: 0x8, addend: 0x0, symName: __ZN4pyo35impl_16extract_argument16extract_argument17h3fb12b4de97467ddE, symObjAddr: 0x134, symBinAddr: 0x42B4, symSize: 0x11C }
  - { offset: 0xE4D9, size: 0x8, addend: 0x0, symName: __ZN4pyo35impl_16extract_argument16extract_argument17h47fcf42c10767f51E, symObjAddr: 0x250, symBinAddr: 0x43D0, symSize: 0x134 }
  - { offset: 0xE55E, size: 0x8, addend: 0x0, symName: __ZN4pyo35impl_16extract_argument16extract_argument17hbbb2511aa169744cE, symObjAddr: 0x384, symBinAddr: 0x4504, symSize: 0x11C }
  - { offset: 0xE6E6, size: 0x8, addend: 0x0, symName: '__ZN4pyo35impl_16extract_argument19FunctionDescription36find_keyword_parameter_in_positional28_$u7b$$u7b$closure$u7d$$u7d$17h9d4927f8116d439aE', symObjAddr: 0x1050, symBinAddr: 0x51D0, symSize: 0x48 }
  - { offset: 0xE746, size: 0x8, addend: 0x0, symName: '__ZN4pyo35impl_16extract_argument19FunctionDescription38find_keyword_parameter_in_keyword_only28_$u7b$$u7b$closure$u7d$$u7d$17hfc5035154f2deafeE', symObjAddr: 0x1098, symBinAddr: 0x5218, symSize: 0x38 }
  - { offset: 0xE78D, size: 0x8, addend: 0x0, symName: '__ZN71_$LT$T$u20$as$u20$pyo3..impl_..extract_argument..PyFunctionArgument$GT$7extract17h242ac2b00924a63bE', symObjAddr: 0x10D0, symBinAddr: 0x5250, symSize: 0x28 }
  - { offset: 0xE7CC, size: 0x8, addend: 0x0, symName: '__ZN71_$LT$T$u20$as$u20$pyo3..impl_..extract_argument..PyFunctionArgument$GT$7extract17ha8fbd1109a7cfd6fE', symObjAddr: 0x10F8, symBinAddr: 0x5278, symSize: 0x28 }
  - { offset: 0xEBBD, size: 0x8, addend: 0x0, symName: __ZN4pyo35impl_16extract_argument19FunctionDescription13handle_kwargs17hac703eaaa25ca16eE, symObjAddr: 0x4A0, symBinAddr: 0x4620, symSize: 0x72C }
  - { offset: 0xEDFD, size: 0x8, addend: 0x0, symName: __ZN4pyo35impl_16extract_argument19FunctionDescription28extract_arguments_tuple_dict17h8e7900538df5c874E, symObjAddr: 0xBCC, symBinAddr: 0x4D4C, symSize: 0x484 }
  - { offset: 0xF2FF, size: 0x8, addend: 0x0, symName: '__ZN88_$LT$core..result..Result$LT$T$C$E$GT$$u20$as$u20$pyo3..impl_..wrap..OkWrap$LT$T$GT$$GT$4wrap28_$u7b$$u7b$closure$u7d$$u7d$17h162780d158cb2e76E', symObjAddr: 0x0, symBinAddr: 0x52A0, symSize: 0x34 }
  - { offset: 0xF3AA, size: 0x8, addend: 0x0, symName: '__ZN88_$LT$core..result..Result$LT$T$C$E$GT$$u20$as$u20$pyo3..impl_..wrap..OkWrap$LT$T$GT$$GT$4wrap28_$u7b$$u7b$closure$u7d$$u7d$17h162780d158cb2e76E', symObjAddr: 0x0, symBinAddr: 0x52A0, symSize: 0x34 }
  - { offset: 0xF402, size: 0x8, addend: 0x0, symName: '__ZN88_$LT$core..result..Result$LT$T$C$E$GT$$u20$as$u20$pyo3..impl_..wrap..OkWrap$LT$T$GT$$GT$4wrap28_$u7b$$u7b$closure$u7d$$u7d$17hb44d03e9de84856eE', symObjAddr: 0x34, symBinAddr: 0x52D4, symSize: 0x34 }
  - { offset: 0xFAA2, size: 0x8, addend: 0x0, symName: '__ZN153_$LT$core..result..Result$LT$T$C$F$GT$$u20$as$u20$core..ops..try_trait..FromResidual$LT$core..result..Result$LT$core..convert..Infallible$C$E$GT$$GT$$GT$13from_residual17h2ff00077e49069b6E', symObjAddr: 0x0, symBinAddr: 0x5308, symSize: 0x48 }
  - { offset: 0xFD9A, size: 0x8, addend: 0x0, symName: '__ZN153_$LT$core..result..Result$LT$T$C$F$GT$$u20$as$u20$core..ops..try_trait..FromResidual$LT$core..result..Result$LT$core..convert..Infallible$C$E$GT$$GT$$GT$13from_residual17h2ff00077e49069b6E', symObjAddr: 0x0, symBinAddr: 0x5308, symSize: 0x48 }
  - { offset: 0xFE1F, size: 0x8, addend: 0x0, symName: '__ZN153_$LT$core..result..Result$LT$T$C$F$GT$$u20$as$u20$core..ops..try_trait..FromResidual$LT$core..result..Result$LT$core..convert..Infallible$C$E$GT$$GT$$GT$13from_residual17h3541508c32198748E', symObjAddr: 0x48, symBinAddr: 0x5350, symSize: 0x48 }
  - { offset: 0xFEA4, size: 0x8, addend: 0x0, symName: '__ZN153_$LT$core..result..Result$LT$T$C$F$GT$$u20$as$u20$core..ops..try_trait..FromResidual$LT$core..result..Result$LT$core..convert..Infallible$C$E$GT$$GT$$GT$13from_residual17h4745380558e390c2E', symObjAddr: 0x90, symBinAddr: 0x5398, symSize: 0x48 }
  - { offset: 0xFF29, size: 0x8, addend: 0x0, symName: '__ZN153_$LT$core..result..Result$LT$T$C$F$GT$$u20$as$u20$core..ops..try_trait..FromResidual$LT$core..result..Result$LT$core..convert..Infallible$C$E$GT$$GT$$GT$13from_residual17h576718b114769705E', symObjAddr: 0xD8, symBinAddr: 0x53E0, symSize: 0x48 }
  - { offset: 0xFFAE, size: 0x8, addend: 0x0, symName: '__ZN153_$LT$core..result..Result$LT$T$C$F$GT$$u20$as$u20$core..ops..try_trait..FromResidual$LT$core..result..Result$LT$core..convert..Infallible$C$E$GT$$GT$$GT$13from_residual17h85e6bd45627ebd3dE', symObjAddr: 0x120, symBinAddr: 0x5428, symSize: 0x58 }
  - { offset: 0x10554, size: 0x8, addend: 0x0, symName: '__ZN79_$LT$core..result..Result$LT$T$C$E$GT$$u20$as$u20$core..ops..try_trait..Try$GT$6branch17h4d6cd83300795b6aE', symObjAddr: 0x4EC, symBinAddr: 0x57F4, symSize: 0x94 }
  - { offset: 0x105D1, size: 0x8, addend: 0x0, symName: '__ZN79_$LT$core..result..Result$LT$T$C$E$GT$$u20$as$u20$core..ops..try_trait..Try$GT$6branch17h5443cd66fd7518d7E', symObjAddr: 0x580, symBinAddr: 0x5888, symSize: 0x80 }
  - { offset: 0x1064F, size: 0x8, addend: 0x0, symName: '__ZN79_$LT$core..result..Result$LT$T$C$E$GT$$u20$as$u20$core..ops..try_trait..Try$GT$6branch17ha2c0182ed869a719E', symObjAddr: 0x600, symBinAddr: 0x5908, symSize: 0x70 }
  - { offset: 0x106CD, size: 0x8, addend: 0x0, symName: '__ZN79_$LT$core..result..Result$LT$T$C$E$GT$$u20$as$u20$core..ops..try_trait..Try$GT$6branch17ha4a17928ef7cb2aaE', symObjAddr: 0x670, symBinAddr: 0x5978, symSize: 0x80 }
  - { offset: 0x1074B, size: 0x8, addend: 0x0, symName: '__ZN79_$LT$core..result..Result$LT$T$C$E$GT$$u20$as$u20$core..ops..try_trait..Try$GT$6branch17he119489cfc270e6fE', symObjAddr: 0x6F0, symBinAddr: 0x59F8, symSize: 0x94 }
  - { offset: 0x10FC8, size: 0x8, addend: 0x0, symName: '__ZN88_$LT$core..result..Result$LT$T$C$E$GT$$u20$as$u20$pyo3..impl_..wrap..OkWrap$LT$T$GT$$GT$4wrap17h377aa6a87a9277f0E', symObjAddr: 0x784, symBinAddr: 0x5A8C, symSize: 0x38 }
  - { offset: 0x11020, size: 0x8, addend: 0x0, symName: '__ZN88_$LT$core..result..Result$LT$T$C$E$GT$$u20$as$u20$pyo3..impl_..wrap..OkWrap$LT$T$GT$$GT$4wrap17h4c739ded5480590eE', symObjAddr: 0x7BC, symBinAddr: 0x5AC4, symSize: 0x44 }
  - { offset: 0x111BE, size: 0x8, addend: 0x0, symName: '__ZN4core6result19Result$LT$T$C$E$GT$3map17h07d20c852b5b6606E', symObjAddr: 0x178, symBinAddr: 0x5480, symSize: 0x80 }
  - { offset: 0x11251, size: 0x8, addend: 0x0, symName: '__ZN4core6result19Result$LT$T$C$E$GT$3map17h1d2f9a841d11cc3cE', symObjAddr: 0x1F8, symBinAddr: 0x5500, symSize: 0x80 }
  - { offset: 0x1155A, size: 0x8, addend: 0x0, symName: '__ZN4core6result19Result$LT$T$C$E$GT$3map17h350709fed78229a6E', symObjAddr: 0x278, symBinAddr: 0x5580, symSize: 0xA8 }
  - { offset: 0x11628, size: 0x8, addend: 0x0, symName: '__ZN4core6result19Result$LT$T$C$E$GT$3map17hafd49525e66a03c3E', symObjAddr: 0x320, symBinAddr: 0x5628, symSize: 0xA8 }
  - { offset: 0x116FB, size: 0x8, addend: 0x0, symName: '__ZN4core6result19Result$LT$T$C$E$GT$6is_err17h54e912d3950b5ca0E', symObjAddr: 0x3C8, symBinAddr: 0x56D0, symSize: 0x20 }
  - { offset: 0x11766, size: 0x8, addend: 0x0, symName: '__ZN4core6result19Result$LT$T$C$E$GT$7map_err17he8c1b9d8acfdfcd1E', symObjAddr: 0x3E8, symBinAddr: 0x56F0, symSize: 0x98 }
  - { offset: 0x117F9, size: 0x8, addend: 0x0, symName: '__ZN4core6result19Result$LT$T$C$E$GT$9unwrap_or17hf1c69313cb7af117E', symObjAddr: 0x480, symBinAddr: 0x5788, symSize: 0x6C }
  - { offset: 0x118C8, size: 0x8, addend: 0x0, symName: __ZN4pyo35types6string8PyString6to_str17hca525193b011184bE, symObjAddr: 0x0, symBinAddr: 0x5B08, symSize: 0xD0 }
  - { offset: 0x11913, size: 0x8, addend: 0x0, symName: '__ZN73_$LT$pyo3..types..string..PyString$u20$as$u20$core..ops..deref..Deref$GT$5deref17hd5ccfdcb8bc7b936E', symObjAddr: 0xD0, symBinAddr: 0x5BD8, symSize: 0x14 }
  - { offset: 0x11945, size: 0x8, addend: 0x0, symName: '__ZN79_$LT$pyo3..types..string..PyString$u20$as$u20$pyo3..type_object..PyTypeInfo$GT$10is_type_of17h2747d12ff95f0fd3E', symObjAddr: 0xE4, symBinAddr: 0x5BEC, symSize: 0x30 }
  - { offset: 0x11D1E, size: 0x8, addend: 0x0, symName: __ZN4pyo35types6string8PyString6to_str17hca525193b011184bE, symObjAddr: 0x0, symBinAddr: 0x5B08, symSize: 0xD0 }
  - { offset: 0x11DE4, size: 0x8, addend: 0x0, symName: '__ZN50_$LT$T$u20$as$u20$core..convert..Into$LT$U$GT$$GT$4into17h2f48008213db8e0aE', symObjAddr: 0x0, symBinAddr: 0x5C1C, symSize: 0x24 }
  - { offset: 0x11E85, size: 0x8, addend: 0x0, symName: '__ZN50_$LT$T$u20$as$u20$core..convert..Into$LT$U$GT$$GT$4into17h2f48008213db8e0aE', symObjAddr: 0x0, symBinAddr: 0x5C1C, symSize: 0x24 }
  - { offset: 0x121A0, size: 0x8, addend: 0x0, symName: __ZN4core4iter6traits8iterator8Iterator4take17h6c51bbc6e53071e9E, symObjAddr: 0x0, symBinAddr: 0x5C40, symSize: 0x24 }
  - { offset: 0x122D4, size: 0x8, addend: 0x0, symName: __ZN4core4iter6traits8iterator8Iterator4take17h6c51bbc6e53071e9E, symObjAddr: 0x0, symBinAddr: 0x5C40, symSize: 0x24 }
  - { offset: 0x12669, size: 0x8, addend: 0x0, symName: '__ZN4pyo35types5tuple137_$LT$impl$u20$pyo3..conversion..IntoPy$LT$pyo3..instance..Py$LT$pyo3..types..any..PyAny$GT$$GT$$u20$for$u20$$LP$T0$C$T1$C$T2$C$T3$RP$$GT$7into_py17hf4ce552186f43610E', symObjAddr: 0x7C, symBinAddr: 0x5CBC, symSize: 0x194 }
  - { offset: 0x126D8, size: 0x8, addend: 0x0, symName: __ZN4pyo35types5tuple16array_into_tuple17h99e4a8eb28da7476E, symObjAddr: 0x210, symBinAddr: 0x5E50, symSize: 0x1F0 }
  - { offset: 0x127B3, size: 0x8, addend: 0x0, symName: __ZN4pyo310conversion13FromPyPointer17from_borrowed_ptr17h3d6e6df2d5f0f0a4E, symObjAddr: 0x24, symBinAddr: 0x5C64, symSize: 0x24 }
  - { offset: 0x12805, size: 0x8, addend: 0x0, symName: __ZN4pyo310conversion13FromPyPointer26from_borrowed_ptr_or_panic17hdab20a085f78e89cE, symObjAddr: 0x48, symBinAddr: 0x5C88, symSize: 0x34 }
  - { offset: 0x1285D, size: 0x8, addend: 0x0, symName: '__ZN53_$LT$T$u20$as$u20$pyo3..conversion..FromPyPointer$GT$24from_borrowed_ptr_or_opt17h2e2129f573f3d6e2E', symObjAddr: 0x400, symBinAddr: 0x6040, symSize: 0x28 }
  - { offset: 0x12ACA, size: 0x8, addend: 0x0, symName: '__ZN4core3fmt3num52_$LT$impl$u20$core..fmt..Debug$u20$for$u20$isize$GT$3fmt17h692d09a14213251eE', symObjAddr: 0x0, symBinAddr: 0x6068, symSize: 0x90 }
  - { offset: 0x12B65, size: 0x8, addend: 0x0, symName: '__ZN4core3fmt3num52_$LT$impl$u20$core..fmt..Debug$u20$for$u20$isize$GT$3fmt17h692d09a14213251eE', symObjAddr: 0x0, symBinAddr: 0x6068, symSize: 0x90 }
  - { offset: 0x12D56, size: 0x8, addend: 0x0, symName: '__ZN5alloc7raw_vec19RawVec$LT$T$C$A$GT$8grow_one17h15f646d41ebba2a0E', symObjAddr: 0x0, symBinAddr: 0x60F8, symSize: 0x88 }
  - { offset: 0x13394, size: 0x8, addend: 0x0, symName: '__ZN5alloc7raw_vec19RawVec$LT$T$C$A$GT$8grow_one17h15f646d41ebba2a0E', symObjAddr: 0x0, symBinAddr: 0x60F8, symSize: 0x88 }
  - { offset: 0x1344B, size: 0x8, addend: 0x0, symName: '__ZN5alloc7raw_vec19RawVec$LT$T$C$A$GT$8grow_one17h68eeda669165bb59E', symObjAddr: 0x88, symBinAddr: 0x6180, symSize: 0x84 }
  - { offset: 0x13502, size: 0x8, addend: 0x0, symName: '__ZN5alloc7raw_vec19RawVec$LT$T$C$A$GT$8grow_one17h8a9a867fb74a58d9E', symObjAddr: 0x10C, symBinAddr: 0x6204, symSize: 0x84 }
  - { offset: 0x1358B, size: 0x8, addend: 0x0, symName: '__ZN4core5slice29_$LT$impl$u20$$u5b$T$u5d$$GT$4iter17h8df40747850bb557E', symObjAddr: 0x0, symBinAddr: 0x6288, symSize: 0x28 }
  - { offset: 0x135A7, size: 0x8, addend: 0x0, symName: '__ZN4core5slice29_$LT$impl$u20$$u5b$T$u5d$$GT$4iter17h8df40747850bb557E', symObjAddr: 0x0, symBinAddr: 0x6288, symSize: 0x28 }
  - { offset: 0x135DE, size: 0x8, addend: 0x0, symName: '__ZN4core5slice29_$LT$impl$u20$$u5b$T$u5d$$GT$4iter17ha3c87c67e4a2aca4E', symObjAddr: 0x28, symBinAddr: 0x62B0, symSize: 0x28 }
  - { offset: 0x137B1, size: 0x8, addend: 0x0, symName: '__ZN129_$LT$$u5b$core..mem..maybe_uninit..MaybeUninit$LT$T$GT$$u3b$$u20$N$u5d$$u20$as$u20$core..array..iter..iter_inner..PartialDrop$GT$12partial_drop17hf3596fc321af88cbE', symObjAddr: 0x0, symBinAddr: 0x62D8, symSize: 0x4C }
  - { offset: 0x137D7, size: 0x8, addend: 0x0, symName: '__ZN129_$LT$$u5b$core..mem..maybe_uninit..MaybeUninit$LT$T$GT$$u3b$$u20$N$u5d$$u20$as$u20$core..array..iter..iter_inner..PartialDrop$GT$12partial_drop17hf3596fc321af88cbE', symObjAddr: 0x0, symBinAddr: 0x62D8, symSize: 0x4C }
  - { offset: 0x13ABA, size: 0x8, addend: 0x0, symName: '__ZN53_$LT$T$u20$as$u20$pyo3..conversion..FromPyPointer$GT$24from_borrowed_ptr_or_opt17h879b7084648000e6E', symObjAddr: 0x0, symBinAddr: 0x6324, symSize: 0x28 }
  - { offset: 0x13B5B, size: 0x8, addend: 0x0, symName: '__ZN53_$LT$T$u20$as$u20$pyo3..conversion..FromPyPointer$GT$24from_borrowed_ptr_or_opt17h879b7084648000e6E', symObjAddr: 0x0, symBinAddr: 0x6324, symSize: 0x28 }
  - { offset: 0x13E95, size: 0x8, addend: 0x0, symName: '__ZN4core3ptr9const_ptr33_$LT$impl$u20$$BP$const$u20$T$GT$20offset_from_unsigned18precondition_check17h970b3b67ad9d41b9E', symObjAddr: 0x0, symBinAddr: 0x634C, symSize: 0x60 }
  - { offset: 0x13EBB, size: 0x8, addend: 0x0, symName: '__ZN4core3ptr9const_ptr33_$LT$impl$u20$$BP$const$u20$T$GT$20offset_from_unsigned18precondition_check17h970b3b67ad9d41b9E', symObjAddr: 0x0, symBinAddr: 0x634C, symSize: 0x60 }
  - { offset: 0x13F7A, size: 0x8, addend: 0x0, symName: __ZN4pyo36marker6Python19assume_gil_acquired17ha377d47859ccffb2E, symObjAddr: 0x0, symBinAddr: 0x63AC, symSize: 0x4 }
  - { offset: 0x14174, size: 0x8, addend: 0x0, symName: __ZN4pyo36marker6Python19assume_gil_acquired17ha377d47859ccffb2E, symObjAddr: 0x0, symBinAddr: 0x63AC, symSize: 0x4 }
  - { offset: 0x141A5, size: 0x8, addend: 0x0, symName: __ZN8pyo3_ffi13unicodeobject15PyUnicode_Check17h1ac1c284d00e0e00E, symObjAddr: 0x0, symBinAddr: 0x63B0, symSize: 0x30 }
  - { offset: 0x141BC, size: 0x8, addend: 0x0, symName: __ZN8pyo3_ffi13unicodeobject15PyUnicode_Check17h1ac1c284d00e0e00E, symObjAddr: 0x0, symBinAddr: 0x63B0, symSize: 0x30 }
  - { offset: 0x142B9, size: 0x8, addend: 0x0, symName: '__ZN106_$LT$pyo3..impl_..extract_argument..NoVarargs$u20$as$u20$pyo3..impl_..extract_argument..VarargsHandler$GT$20handle_varargs_tuple17hc55dbcd8c478aa67E', symObjAddr: 0x0, symBinAddr: 0x63E0, symSize: 0x94 }
  - { offset: 0x142DA, size: 0x8, addend: 0x0, symName: '__ZN106_$LT$pyo3..impl_..extract_argument..NoVarargs$u20$as$u20$pyo3..impl_..extract_argument..VarargsHandler$GT$20handle_varargs_tuple17hc55dbcd8c478aa67E', symObjAddr: 0x0, symBinAddr: 0x63E0, symSize: 0x94 }
  - { offset: 0x14359, size: 0x8, addend: 0x0, symName: '__ZN114_$LT$pyo3..impl_..extract_argument..NoVarkeywords$u20$as$u20$pyo3..impl_..extract_argument..VarkeywordsHandler$GT$17handle_varkeyword17h4ec20879593501beE', symObjAddr: 0x94, symBinAddr: 0x6474, symSize: 0x60 }
  - { offset: 0x14498, size: 0x8, addend: 0x0, symName: __ZN4pyo35impl_16extract_argument24unwrap_required_argument17h91e3ee1664d65eb8E, symObjAddr: 0x490, symBinAddr: 0x6870, symSize: 0x58 }
  - { offset: 0x14BD7, size: 0x8, addend: 0x0, symName: __ZN4pyo35impl_16extract_argument19FunctionDescription36find_keyword_parameter_in_positional17h9ac23de72d8769efE, symObjAddr: 0xF4, symBinAddr: 0x64D4, symSize: 0x5C }
  - { offset: 0x14C09, size: 0x8, addend: 0x0, symName: __ZN4pyo35impl_16extract_argument19FunctionDescription38find_keyword_parameter_in_keyword_only17h97a62d613c37e570E, symObjAddr: 0x150, symBinAddr: 0x6530, symSize: 0x5C }
  - { offset: 0x14D67, size: 0x8, addend: 0x0, symName: __ZN4pyo35impl_16extract_argument19FunctionDescription44ensure_no_missing_required_keyword_arguments17h0284280f402c3ca1E, symObjAddr: 0x1AC, symBinAddr: 0x658C, symSize: 0x154 }
  - { offset: 0x14E33, size: 0x8, addend: 0x0, symName: __ZN4pyo35impl_16extract_argument19FunctionDescription47ensure_no_missing_required_positional_arguments17hd66ec95e18b20324E, symObjAddr: 0x300, symBinAddr: 0x66E0, symSize: 0x190 }
  - { offset: 0x14FBB, size: 0x8, addend: 0x0, symName: '__ZN4core6option15Option$LT$T$GT$14unwrap_or_else17h31fb3e6749afa3b1E', symObjAddr: 0x0, symBinAddr: 0x68C8, symSize: 0x58 }
  - { offset: 0x1588E, size: 0x8, addend: 0x0, symName: '__ZN4core6option15Option$LT$T$GT$14unwrap_or_else17h31fb3e6749afa3b1E', symObjAddr: 0x0, symBinAddr: 0x68C8, symSize: 0x58 }
  - { offset: 0x158EC, size: 0x8, addend: 0x0, symName: '__ZN4core6option15Option$LT$T$GT$3map17ha7480341e34ac7f0E', symObjAddr: 0x58, symBinAddr: 0x6920, symSize: 0x50 }
  - { offset: 0x15964, size: 0x8, addend: 0x0, symName: '__ZN4core6option15Option$LT$T$GT$3map17he36c599647ba7390E', symObjAddr: 0xA8, symBinAddr: 0x6970, symSize: 0x50 }
  - { offset: 0x15A0C, size: 0x8, addend: 0x0, symName: '__ZN4core6option15Option$LT$T$GT$7is_none17h74ea06589ac78c5dE', symObjAddr: 0xF8, symBinAddr: 0x69C0, symSize: 0x28 }
  - { offset: 0x15A8E, size: 0x8, addend: 0x0, symName: '__ZN4core6option15Option$LT$T$GT$7is_some17h1adc47274de234ceE', symObjAddr: 0x120, symBinAddr: 0x69E8, symSize: 0x28 }
  - { offset: 0x15AC7, size: 0x8, addend: 0x0, symName: '__ZN4core6option15Option$LT$T$GT$7is_some17h2cc08fa377ba6ba5E', symObjAddr: 0x148, symBinAddr: 0x6A10, symSize: 0x28 }
  - { offset: 0x15B00, size: 0x8, addend: 0x0, symName: '__ZN4core6option15Option$LT$T$GT$7replace17h0b9ae3004085ef7eE', symObjAddr: 0x170, symBinAddr: 0x6A38, symSize: 0x28 }
  - { offset: 0x15B77, size: 0x8, addend: 0x0, symName: '__ZN50_$LT$T$u20$as$u20$core..convert..Into$LT$U$GT$$GT$4into17hac229704a3636fccE', symObjAddr: 0x0, symBinAddr: 0x6A60, symSize: 0x18 }
  - { offset: 0x15BC0, size: 0x8, addend: 0x0, symName: '__ZN50_$LT$T$u20$as$u20$core..convert..Into$LT$U$GT$$GT$4into17hac229704a3636fccE', symObjAddr: 0x0, symBinAddr: 0x6A60, symSize: 0x18 }
  - { offset: 0x15F34, size: 0x8, addend: 0x0, symName: __ZN4core4hint16assert_unchecked18precondition_check17haccd9b525bbb8ca3E, symObjAddr: 0x0, symBinAddr: 0x6A78, symSize: 0x58 }
  - { offset: 0x15F50, size: 0x8, addend: 0x0, symName: __ZN4core4hint16assert_unchecked18precondition_check17haccd9b525bbb8ca3E, symObjAddr: 0x0, symBinAddr: 0x6A78, symSize: 0x58 }
  - { offset: 0x15FF2, size: 0x8, addend: 0x0, symName: __ZN3std9panicking12catch_unwind7do_call17h93a4e410c8163317E, symObjAddr: 0x0, symBinAddr: 0x6AD0, symSize: 0x70 }
  - { offset: 0x168D2, size: 0x8, addend: 0x0, symName: __ZN3std9panicking12catch_unwind7do_call17h93a4e410c8163317E, symObjAddr: 0x0, symBinAddr: 0x6AD0, symSize: 0x70 }
  - { offset: 0x169CC, size: 0x8, addend: 0x0, symName: __ZN3std9panicking12catch_unwind7do_call17ha4287ff0ec03ac57E, symObjAddr: 0x70, symBinAddr: 0x6B40, symSize: 0x80 }
  - { offset: 0x16AC7, size: 0x8, addend: 0x0, symName: __ZN3std9panicking12catch_unwind8do_catch17h3d4ce179656b0f73E, symObjAddr: 0xF0, symBinAddr: 0x6BC0, symSize: 0x70 }
  - { offset: 0x16B5C, size: 0x8, addend: 0x0, symName: __ZN3std9panicking12catch_unwind8do_catch17h58398be539552b12E, symObjAddr: 0x160, symBinAddr: 0x6C30, symSize: 0x70 }
  - { offset: 0x16D71, size: 0x8, addend: 0x0, symName: '__ZN4core3num23_$LT$impl$u20$usize$GT$13unchecked_add18precondition_check17hb0aa5a4d076be221E', symObjAddr: 0x0, symBinAddr: 0x6CA0, symSize: 0x64 }
  - { offset: 0x16DBC, size: 0x8, addend: 0x0, symName: '__ZN4core3num23_$LT$impl$u20$usize$GT$13unchecked_add18precondition_check17hb0aa5a4d076be221E', symObjAddr: 0x0, symBinAddr: 0x6CA0, symSize: 0x64 }
  - { offset: 0x16EB1, size: 0x8, addend: 0x0, symName: __ZN4core3str8converts19from_utf8_unchecked17hd77bd9486e89dae7E, symObjAddr: 0x0, symBinAddr: 0x6D04, symSize: 0x18 }
  - { offset: 0x16ECD, size: 0x8, addend: 0x0, symName: __ZN4core3str8converts19from_utf8_unchecked17hd77bd9486e89dae7E, symObjAddr: 0x0, symBinAddr: 0x6D04, symSize: 0x18 }
  - { offset: 0x16F6D, size: 0x8, addend: 0x0, symName: '__ZN75_$LT$usize$u20$as$u20$core..slice..index..SliceIndex$LT$$u5b$T$u5d$$GT$$GT$5index17h89fe1d6c947d8015E', symObjAddr: 0x0, symBinAddr: 0x6D1C, symSize: 0x5C }
  - { offset: 0x16F8E, size: 0x8, addend: 0x0, symName: '__ZN75_$LT$usize$u20$as$u20$core..slice..index..SliceIndex$LT$$u5b$T$u5d$$GT$$GT$5index17h89fe1d6c947d8015E', symObjAddr: 0x0, symBinAddr: 0x6D1C, symSize: 0x5C }
  - { offset: 0x16FD4, size: 0x8, addend: 0x0, symName: '__ZN75_$LT$usize$u20$as$u20$core..slice..index..SliceIndex$LT$$u5b$T$u5d$$GT$$GT$9index_mut17hf66f90d7cc33d447E', symObjAddr: 0x5C, symBinAddr: 0x6D78, symSize: 0x5C }
  - { offset: 0x170A9, size: 0x8, addend: 0x0, symName: _PyInit_rust_engine, symObjAddr: 0x0, symBinAddr: 0x6DD4, symSize: 0x34 }
  - { offset: 0x170CD, size: 0x8, addend: 0x0, symName: __ZN11rust_engine11rust_engine3DEF17h7838ce6db59f41e7E, symObjAddr: 0x68, symBinAddr: 0x943B8, symSize: 0x0 }
  - { offset: 0x170DA, size: 0x8, addend: 0x0, symName: _PyInit_rust_engine, symObjAddr: 0x0, symBinAddr: 0x6DD4, symSize: 0x34 }
  - { offset: 0x17CDA, size: 0x8, addend: 0x0, symName: '__ZN63_$LT$I$u20$as$u20$core..iter..traits..collect..IntoIterator$GT$9into_iter17h08e4d82ab422d84bE', symObjAddr: 0x0, symBinAddr: 0x6E08, symSize: 0x14 }
  - { offset: 0x17D00, size: 0x8, addend: 0x0, symName: '__ZN63_$LT$I$u20$as$u20$core..iter..traits..collect..IntoIterator$GT$9into_iter17h08e4d82ab422d84bE', symObjAddr: 0x0, symBinAddr: 0x6E08, symSize: 0x14 }
  - { offset: 0x17E70, size: 0x8, addend: 0x0, symName: __ZN4pyo36marker6Python17from_borrowed_ptr17hc71d9100d3fea0faE, symObjAddr: 0x0, symBinAddr: 0x6E1C, symSize: 0x24 }
  - { offset: 0x18232, size: 0x8, addend: 0x0, symName: __ZN4pyo36marker6Python17from_borrowed_ptr17hc71d9100d3fea0faE, symObjAddr: 0x0, symBinAddr: 0x6E1C, symSize: 0x24 }
  - { offset: 0x18286, size: 0x8, addend: 0x0, symName: __ZN4pyo36marker6Python24from_borrowed_ptr_or_opt17h0e712ec713cb8a83E, symObjAddr: 0x24, symBinAddr: 0x6E40, symSize: 0x24 }
  - { offset: 0x182EB, size: 0x8, addend: 0x0, symName: '__ZN94_$LT$pyo3..types..tuple..PyTupleIterator$u20$as$u20$core..iter..traits..iterator..Iterator$GT$4next17h12a79d3e6d4548c7E', symObjAddr: 0x0, symBinAddr: 0x6E64, symSize: 0x98 }
  - { offset: 0x1830C, size: 0x8, addend: 0x0, symName: '__ZN94_$LT$pyo3..types..tuple..PyTupleIterator$u20$as$u20$core..iter..traits..iterator..Iterator$GT$4next17h12a79d3e6d4548c7E', symObjAddr: 0x0, symBinAddr: 0x6E64, symSize: 0x98 }
  - { offset: 0x18535, size: 0x8, addend: 0x0, symName: __ZN4pyo35types8sequence16extract_sequence17h28f4b2148009eeaeE, symObjAddr: 0x0, symBinAddr: 0x6EFC, symSize: 0x318 }
  - { offset: 0x18551, size: 0x8, addend: 0x0, symName: __ZN4pyo35types8sequence16extract_sequence17h28f4b2148009eeaeE, symObjAddr: 0x0, symBinAddr: 0x6EFC, symSize: 0x318 }
  - { offset: 0x1862A, size: 0x8, addend: 0x0, symName: __ZN4pyo35types8sequence16extract_sequence17hc76f3d740bed17ecE, symObjAddr: 0x318, symBinAddr: 0x7214, symSize: 0x310 }
  - { offset: 0x18E55, size: 0x8, addend: 0x0, symName: __ZN3std5panic12catch_unwind17he092759e70ca2243E, symObjAddr: 0x0, symBinAddr: 0x7524, symSize: 0xC0 }
  - { offset: 0x1900F, size: 0x8, addend: 0x0, symName: __ZN3std5panic12catch_unwind17he092759e70ca2243E, symObjAddr: 0x0, symBinAddr: 0x7524, symSize: 0xC0 }
  - { offset: 0x19134, size: 0x8, addend: 0x0, symName: __ZN3std5panic12catch_unwind17hfd276be78bd3552bE, symObjAddr: 0xC0, symBinAddr: 0x75E4, symSize: 0xE4 }
  - { offset: 0x19CD9, size: 0x8, addend: 0x0, symName: '__ZN69_$LT$f64$u20$as$u20$core..iter..traits..accum..Sum$LT$$RF$f64$GT$$GT$3sum17hc87a6dad45ec9417E', symObjAddr: 0x0, symBinAddr: 0x771C, symSize: 0x34 }
  - { offset: 0x19CFF, size: 0x8, addend: 0x0, symName: '__ZN69_$LT$f64$u20$as$u20$core..iter..traits..accum..Sum$LT$$RF$f64$GT$$GT$3sum17hc87a6dad45ec9417E', symObjAddr: 0x0, symBinAddr: 0x771C, symSize: 0x34 }
  - { offset: 0x19D39, size: 0x8, addend: 0x0, symName: '__ZN69_$LT$f64$u20$as$u20$core..iter..traits..accum..Sum$LT$$RF$f64$GT$$GT$3sum28_$u7b$$u7b$closure$u7d$$u7d$17h07a2d2111f3c8b69E', symObjAddr: 0x34, symBinAddr: 0x7750, symSize: 0x24 }
  - { offset: 0x19ED8, size: 0x8, addend: 0x0, symName: __ZN4pyo35types3any5PyAny2py17h7cf7f7f6c1cc626cE, symObjAddr: 0x0, symBinAddr: 0x7774, symSize: 0x24 }
  - { offset: 0x1A00E, size: 0x8, addend: 0x0, symName: __ZN4pyo35types3any5PyAny2py17h7cf7f7f6c1cc626cE, symObjAddr: 0x0, symBinAddr: 0x7774, symSize: 0x24 }
  - { offset: 0x1A03E, size: 0x8, addend: 0x0, symName: __ZN4pyo35types3any5PyAny6as_ptr17ha85f60d202a96b8cE, symObjAddr: 0x24, symBinAddr: 0x7798, symSize: 0x14 }
  - { offset: 0x1A07F, size: 0x8, addend: 0x0, symName: '__ZN4pyo311conversions3std3vec136_$LT$impl$u20$pyo3..conversion..IntoPy$LT$pyo3..instance..Py$LT$pyo3..types..any..PyAny$GT$$GT$$u20$for$u20$alloc..vec..Vec$LT$T$GT$$GT$7into_py28_$u7b$$u7b$closure$u7d$$u7d$17h115e794a16d86b7aE', symObjAddr: 0x0, symBinAddr: 0x77AC, symSize: 0x24 }
  - { offset: 0x1A12F, size: 0x8, addend: 0x0, symName: '__ZN4pyo311conversions3std3vec136_$LT$impl$u20$pyo3..conversion..IntoPy$LT$pyo3..instance..Py$LT$pyo3..types..any..PyAny$GT$$GT$$u20$for$u20$alloc..vec..Vec$LT$T$GT$$GT$7into_py28_$u7b$$u7b$closure$u7d$$u7d$17h115e794a16d86b7aE', symObjAddr: 0x0, symBinAddr: 0x77AC, symSize: 0x24 }
  - { offset: 0x1A47F, size: 0x8, addend: 0x0, symName: '__ZN62_$LT$T$u20$as$u20$alloc..vec..spec_from_elem..SpecFromElem$GT$9from_elem17hd58e002856197da1E', symObjAddr: 0x0, symBinAddr: 0x77D0, symSize: 0x198 }
  - { offset: 0x1A9FE, size: 0x8, addend: 0x0, symName: '__ZN62_$LT$T$u20$as$u20$alloc..vec..spec_from_elem..SpecFromElem$GT$9from_elem17hd58e002856197da1E', symObjAddr: 0x0, symBinAddr: 0x77D0, symSize: 0x198 }
  - { offset: 0x1AC43, size: 0x8, addend: 0x0, symName: '__ZN42_$LT$$RF$T$u20$as$u20$core..fmt..Debug$GT$3fmt17h9ee33ffd0f28ed71E', symObjAddr: 0x0, symBinAddr: 0x7968, symSize: 0x30 }
  - { offset: 0x1AC5F, size: 0x8, addend: 0x0, symName: '__ZN42_$LT$$RF$T$u20$as$u20$core..fmt..Debug$GT$3fmt17h9ee33ffd0f28ed71E', symObjAddr: 0x0, symBinAddr: 0x7968, symSize: 0x30 }
  - { offset: 0x1AE42, size: 0x8, addend: 0x0, symName: '__ZN110_$LT$core..ops..range..RangeFrom$LT$usize$GT$$u20$as$u20$core..slice..index..SliceIndex$LT$$u5b$T$u5d$$GT$$GT$5index17hb8598a0633612f79E', symObjAddr: 0x0, symBinAddr: 0x7998, symSize: 0x70 }
  - { offset: 0x1AE9E, size: 0x8, addend: 0x0, symName: '__ZN110_$LT$core..ops..range..RangeFrom$LT$usize$GT$$u20$as$u20$core..slice..index..SliceIndex$LT$$u5b$T$u5d$$GT$$GT$5index17hb8598a0633612f79E', symObjAddr: 0x0, symBinAddr: 0x7998, symSize: 0x70 }
  - { offset: 0x1AF71, size: 0x8, addend: 0x0, symName: '__ZN115_$LT$core..ops..range..RangeInclusive$LT$usize$GT$$u20$as$u20$core..slice..index..SliceIndex$LT$$u5b$T$u5d$$GT$$GT$5index17h9281f5f150d4e96aE', symObjAddr: 0x70, symBinAddr: 0x7A08, symSize: 0xF4 }
  - { offset: 0x1B399, size: 0x8, addend: 0x0, symName: __ZN4core4iter6traits8iterator8Iterator3sum17h91abaedf9291c4daE, symObjAddr: 0x0, symBinAddr: 0x7AFC, symSize: 0x2C }
  - { offset: 0x1B3BF, size: 0x8, addend: 0x0, symName: __ZN4core4iter6traits8iterator8Iterator3sum17h91abaedf9291c4daE, symObjAddr: 0x0, symBinAddr: 0x7AFC, symSize: 0x2C }
  - { offset: 0x1B3FF, size: 0x8, addend: 0x0, symName: __ZN4core4iter6traits8iterator8Iterator3zip17h7ed982c1de2957c7E, symObjAddr: 0x2C, symBinAddr: 0x7B28, symSize: 0xCC }
  - { offset: 0x1B481, size: 0x8, addend: 0x0, symName: '__ZN63_$LT$I$u20$as$u20$core..iter..traits..collect..IntoIterator$GT$9into_iter17ha84c4b8bb5590dffE', symObjAddr: 0x1F0, symBinAddr: 0x7CEC, symSize: 0x1C }
  - { offset: 0x1B55A, size: 0x8, addend: 0x0, symName: __ZN4core4iter8adapters3zip27TrustedRandomAccessNoCoerce4size17h01cb767cf3c2181bE, symObjAddr: 0xF8, symBinAddr: 0x7BF4, symSize: 0x2C }
  - { offset: 0x1B591, size: 0x8, addend: 0x0, symName: __ZN4core4iter8adapters3zip27TrustedRandomAccessNoCoerce4size17h30a6d3bd3f454767E, symObjAddr: 0x124, symBinAddr: 0x7C20, symSize: 0x2C }
  - { offset: 0x1B683, size: 0x8, addend: 0x0, symName: '__ZN91_$LT$core..slice..iter..Iter$LT$T$GT$$u20$as$u20$core..iter..traits..iterator..Iterator$GT$24__iterator_get_unchecked17h9699416b180fe7afE', symObjAddr: 0x20C, symBinAddr: 0x7D08, symSize: 0x20 }
  - { offset: 0x1B6DE, size: 0x8, addend: 0x0, symName: '__ZN91_$LT$core..slice..iter..Iter$LT$T$GT$$u20$as$u20$core..iter..traits..iterator..Iterator$GT$24__iterator_get_unchecked17hb15c1aa456391256E', symObjAddr: 0x22C, symBinAddr: 0x7D28, symSize: 0x20 }
  - { offset: 0x1B739, size: 0x8, addend: 0x0, symName: '__ZN91_$LT$core..slice..iter..Iter$LT$T$GT$$u20$as$u20$core..iter..traits..iterator..Iterator$GT$4fold17hfd716488b7692279E', symObjAddr: 0x24C, symBinAddr: 0x7D48, symSize: 0x1F0 }
  - { offset: 0x1B991, size: 0x8, addend: 0x0, symName: '__ZN91_$LT$core..slice..iter..Iter$LT$T$GT$$u20$as$u20$core..iter..traits..iterator..Iterator$GT$8position17hb47d1a6e6c4fda6dE', symObjAddr: 0x43C, symBinAddr: 0x7F38, symSize: 0x1D0 }
  - { offset: 0x1BBEE, size: 0x8, addend: 0x0, symName: '__ZN91_$LT$core..slice..iter..Iter$LT$T$GT$$u20$as$u20$core..iter..traits..iterator..Iterator$GT$8position17hf6489df3f30acad9E', symObjAddr: 0x60C, symBinAddr: 0x8108, symSize: 0x1D0 }
  - { offset: 0x1BDFC, size: 0x8, addend: 0x0, symName: '__ZN91_$LT$core..slice..iter..Iter$LT$T$GT$$u20$as$u20$core..iter..traits..iterator..Iterator$GT$9size_hint17h56bc141f84dfd39bE', symObjAddr: 0x7DC, symBinAddr: 0x82D8, symSize: 0xB4 }
  - { offset: 0x1BF29, size: 0x8, addend: 0x0, symName: '__ZN91_$LT$core..slice..iter..Iter$LT$T$GT$$u20$as$u20$core..iter..traits..iterator..Iterator$GT$9size_hint17haf606771f4605c8cE', symObjAddr: 0x890, symBinAddr: 0x838C, symSize: 0xB4 }
  - { offset: 0x1CAB1, size: 0x8, addend: 0x0, symName: '__ZN4core5slice4iter13Iter$LT$T$GT$3new17hd61ef90b11d6a2caE', symObjAddr: 0x150, symBinAddr: 0x7C4C, symSize: 0x50 }
  - { offset: 0x1CC61, size: 0x8, addend: 0x0, symName: '__ZN4core5slice4iter13Iter$LT$T$GT$3new17hd7baefeab322095dE', symObjAddr: 0x1A0, symBinAddr: 0x7C9C, symSize: 0x50 }
  - { offset: 0x1D0BC, size: 0x8, addend: 0x0, symName: '__ZN51_$LT$f64$u20$as$u20$alloc..vec..is_zero..IsZero$GT$7is_zero17h0f7a19053f7d61cfE', symObjAddr: 0x0, symBinAddr: 0x8440, symSize: 0x24 }
  - { offset: 0x1D0F3, size: 0x8, addend: 0x0, symName: '__ZN51_$LT$f64$u20$as$u20$alloc..vec..is_zero..IsZero$GT$7is_zero17h0f7a19053f7d61cfE', symObjAddr: 0x0, symBinAddr: 0x8440, symSize: 0x24 }
  - { offset: 0x1D170, size: 0x8, addend: 0x0, symName: __ZN4pyo35types3any5PyAny14is_instance_of17h772b5c44e28c7d8eE, symObjAddr: 0x0, symBinAddr: 0x8464, symSize: 0x24 }
  - { offset: 0x1D64C, size: 0x8, addend: 0x0, symName: __ZN4pyo35types3any5PyAny14is_instance_of17h772b5c44e28c7d8eE, symObjAddr: 0x0, symBinAddr: 0x8464, symSize: 0x24 }
  - { offset: 0x1D811, size: 0x8, addend: 0x0, symName: __ZN4pyo35types3any5PyAny7extract17h181ff437977aac07E, symObjAddr: 0x24, symBinAddr: 0x8488, symSize: 0x24 }
  - { offset: 0x1D844, size: 0x8, addend: 0x0, symName: __ZN4pyo35types3any5PyAny7extract17he94058abe15a710eE, symObjAddr: 0x48, symBinAddr: 0x84AC, symSize: 0x24 }
  - { offset: 0x1D88E, size: 0x8, addend: 0x0, symName: '__ZN100_$LT$core..iter..adapters..take..Take$LT$I$GT$$u20$as$u20$core..iter..traits..iterator..Iterator$GT$4next17h5ba082a1fee8ca7eE', symObjAddr: 0x0, symBinAddr: 0x84D0, symSize: 0x58 }
  - { offset: 0x1D8B4, size: 0x8, addend: 0x0, symName: '__ZN100_$LT$core..iter..adapters..take..Take$LT$I$GT$$u20$as$u20$core..iter..traits..iterator..Iterator$GT$4next17h5ba082a1fee8ca7eE', symObjAddr: 0x0, symBinAddr: 0x84D0, symSize: 0x58 }
  - { offset: 0x1D8E9, size: 0x8, addend: 0x0, symName: '__ZN100_$LT$core..iter..adapters..take..Take$LT$I$GT$$u20$as$u20$core..iter..traits..iterator..Iterator$GT$4next17hef97b4c0484388f8E', symObjAddr: 0x58, symBinAddr: 0x8528, symSize: 0x58 }
  - { offset: 0x1D9D2, size: 0x8, addend: 0x0, symName: __ZN4core4iter6traits8iterator8Iterator9enumerate17hc9a2395a82f4d492E, symObjAddr: 0xB0, symBinAddr: 0x8580, symSize: 0x18 }
  - { offset: 0x1DA03, size: 0x8, addend: 0x0, symName: __ZN4core4iter6traits8iterator8Iterator9enumerate17hc9a2395a82f4d492E, symObjAddr: 0xB0, symBinAddr: 0x8580, symSize: 0x18 }
  - { offset: 0x1DA2A, size: 0x8, addend: 0x0, symName: '__ZN63_$LT$I$u20$as$u20$core..iter..traits..collect..IntoIterator$GT$9into_iter17h36da675e4860bf40E', symObjAddr: 0xC8, symBinAddr: 0x8598, symSize: 0x18 }
  - { offset: 0x1DD9B, size: 0x8, addend: 0x0, symName: '__ZN4core3ptr8non_null16NonNull$LT$T$GT$13new_unchecked18precondition_check17h008d686b3872b06fE', symObjAddr: 0x0, symBinAddr: 0x85B0, symSize: 0x58 }
  - { offset: 0x1DDC1, size: 0x8, addend: 0x0, symName: '__ZN4core3ptr8non_null16NonNull$LT$T$GT$13new_unchecked18precondition_check17h008d686b3872b06fE', symObjAddr: 0x0, symBinAddr: 0x85B0, symSize: 0x58 }
  - { offset: 0x1DE72, size: 0x8, addend: 0x0, symName: __ZN8pyo3_ffi6object17PyType_HasFeature17h095e8daf7df62e7eE, symObjAddr: 0x0, symBinAddr: 0x8608, symSize: 0x38 }
  - { offset: 0x1DE89, size: 0x8, addend: 0x0, symName: __ZN8pyo3_ffi6object17PyType_HasFeature17h095e8daf7df62e7eE, symObjAddr: 0x0, symBinAddr: 0x8608, symSize: 0x38 }
  - { offset: 0x1DEC6, size: 0x8, addend: 0x0, symName: __ZN8pyo3_ffi6object19PyType_FastSubclass17hb1393abcec08d15bE, symObjAddr: 0x38, symBinAddr: 0x8640, symSize: 0x28 }
  - { offset: 0x1DF03, size: 0x8, addend: 0x0, symName: __ZN8pyo3_ffi6object7Py_TYPE17h6d53e898fe2a118dE, symObjAddr: 0x60, symBinAddr: 0x8668, symSize: 0x74 }
  - { offset: 0x1E001, size: 0x8, addend: 0x0, symName: __ZN4pyo33err5PyErr5fetch17h36a846505610d015E, symObjAddr: 0x0, symBinAddr: 0x86DC, symSize: 0x5C }
  - { offset: 0x1E4CD, size: 0x8, addend: 0x0, symName: __ZN4pyo33err5PyErr5fetch17h36a846505610d015E, symObjAddr: 0x0, symBinAddr: 0x86DC, symSize: 0x5C }
  - { offset: 0x1E51A, size: 0x8, addend: 0x0, symName: '__ZN4core3ptr8non_null16NonNull$LT$T$GT$3new17h08f1d495705c78d8E', symObjAddr: 0x0, symBinAddr: 0x8738, symSize: 0x58 }
  - { offset: 0x1E8F5, size: 0x8, addend: 0x0, symName: '__ZN4core3ptr8non_null16NonNull$LT$T$GT$3new17h08f1d495705c78d8E', symObjAddr: 0x0, symBinAddr: 0x8738, symSize: 0x58 }
  - { offset: 0x1E96C, size: 0x8, addend: 0x0, symName: '__ZN4core3ptr8non_null16NonNull$LT$T$GT$3new17h82cff44c5f279729E', symObjAddr: 0x58, symBinAddr: 0x8790, symSize: 0x58 }
  - { offset: 0x1E9CC, size: 0x8, addend: 0x0, symName: '__ZN102_$LT$core..iter..adapters..map..Map$LT$I$C$F$GT$$u20$as$u20$core..iter..traits..iterator..Iterator$GT$4next17h1a5b9b7b098f2aedE', symObjAddr: 0x0, symBinAddr: 0x87E8, symSize: 0x74 }
  - { offset: 0x1EEA9, size: 0x8, addend: 0x0, symName: '__ZN102_$LT$core..iter..adapters..map..Map$LT$I$C$F$GT$$u20$as$u20$core..iter..traits..iterator..Iterator$GT$4next17h1a5b9b7b098f2aedE', symObjAddr: 0x0, symBinAddr: 0x87E8, symSize: 0x74 }
  - { offset: 0x1EF45, size: 0x8, addend: 0x0, symName: '__ZN102_$LT$core..iter..adapters..map..Map$LT$I$C$F$GT$$u20$as$u20$core..iter..traits..iterator..Iterator$GT$8try_fold17hed225290aee66c50E', symObjAddr: 0x74, symBinAddr: 0x885C, symSize: 0x34 }
  - { offset: 0x1EFC3, size: 0x8, addend: 0x0, symName: '__ZN102_$LT$core..iter..adapters..map..Map$LT$I$C$F$GT$$u20$as$u20$core..iter..traits..iterator..Iterator$GT$9size_hint17h02566d5c0fe1624eE', symObjAddr: 0xA8, symBinAddr: 0x8890, symSize: 0x24 }
  - { offset: 0x1F010, size: 0x8, addend: 0x0, symName: '__ZN113_$LT$core..iter..adapters..map..Map$LT$I$C$F$GT$$u20$as$u20$core..iter..traits..exact_size..ExactSizeIterator$GT$3len17hea23aaaabd761dd9E', symObjAddr: 0xCC, symBinAddr: 0x88B4, symSize: 0x24 }
  - { offset: 0x1F057, size: 0x8, addend: 0x0, symName: '__ZN113_$LT$core..iter..adapters..map..Map$LT$I$C$F$GT$$u20$as$u20$core..iter..traits..exact_size..ExactSizeIterator$GT$8is_empty17h9540f98a4206c643E', symObjAddr: 0xF0, symBinAddr: 0x88D8, symSize: 0x24 }
  - { offset: 0x1F0A4, size: 0x8, addend: 0x0, symName: '__ZN4core4iter8adapters3map12map_try_fold28_$u7b$$u7b$closure$u7d$$u7d$17ha5a4753b40388ae4E', symObjAddr: 0x1A4, symBinAddr: 0x898C, symSize: 0x94 }
  - { offset: 0x1F17B, size: 0x8, addend: 0x0, symName: __ZN4core4iter6traits8iterator8Iterator10advance_by17h3fcdb2de78d05cd5E, symObjAddr: 0x114, symBinAddr: 0x88FC, symSize: 0x28 }
  - { offset: 0x1F1C1, size: 0x8, addend: 0x0, symName: __ZN4core4iter6traits8iterator8Iterator3nth17h1b0f69c67f5aca98E, symObjAddr: 0x13C, symBinAddr: 0x8924, symSize: 0x68 }
  - { offset: 0x1F275, size: 0x8, addend: 0x0, symName: '__ZN87_$LT$I$u20$as$u20$core..iter..traits..iterator..Iterator..advance_by..SpecAdvanceBy$GT$15spec_advance_by17h4f957adb697c857cE', symObjAddr: 0x238, symBinAddr: 0x8A20, symSize: 0x8C }
  - { offset: 0x1F7B4, size: 0x8, addend: 0x0, symName: '__ZN110_$LT$core..iter..adapters..enumerate..Enumerate$LT$I$GT$$u20$as$u20$core..iter..traits..iterator..Iterator$GT$4next17hf27088cf56dd150bE', symObjAddr: 0x0, symBinAddr: 0x8AAC, symSize: 0xE0 }
  - { offset: 0x1FD5E, size: 0x8, addend: 0x0, symName: '__ZN110_$LT$core..iter..adapters..enumerate..Enumerate$LT$I$GT$$u20$as$u20$core..iter..traits..iterator..Iterator$GT$4next17hf27088cf56dd150bE', symObjAddr: 0x0, symBinAddr: 0x8AAC, symSize: 0xE0 }
  - { offset: 0x1FE44, size: 0x8, addend: 0x0, symName: '__ZN110_$LT$core..iter..adapters..enumerate..Enumerate$LT$I$GT$$u20$as$u20$core..iter..traits..iterator..Iterator$GT$4next17hf2ad734b130ace98E', symObjAddr: 0xE0, symBinAddr: 0x8B8C, symSize: 0xEC }
  - { offset: 0x1FF2A, size: 0x8, addend: 0x0, symName: '__ZN110_$LT$core..iter..adapters..enumerate..Enumerate$LT$I$GT$$u20$as$u20$core..iter..traits..iterator..Iterator$GT$4next17hfc1ddb475afc0786E', symObjAddr: 0x1CC, symBinAddr: 0x8C78, symSize: 0x11C }
  - { offset: 0x20124, size: 0x8, addend: 0x0, symName: '__ZN63_$LT$I$u20$as$u20$core..iter..traits..collect..IntoIterator$GT$9into_iter17h2d42aef460db08f9E', symObjAddr: 0x2E8, symBinAddr: 0x8D94, symSize: 0x30 }
  - { offset: 0x2015C, size: 0x8, addend: 0x0, symName: '__ZN63_$LT$I$u20$as$u20$core..iter..traits..collect..IntoIterator$GT$9into_iter17hcd17fe657bb9a9d5E', symObjAddr: 0x318, symBinAddr: 0x8DC4, symSize: 0x30 }
  - { offset: 0x20194, size: 0x8, addend: 0x0, symName: '__ZN63_$LT$I$u20$as$u20$core..iter..traits..collect..IntoIterator$GT$9into_iter17hfaf4c0bc1cbedec8E', symObjAddr: 0x348, symBinAddr: 0x8DF4, symSize: 0x30 }
  - { offset: 0x207FE, size: 0x8, addend: 0x0, symName: '__ZN44_$LT$$RF$T$u20$as$u20$core..fmt..Display$GT$3fmt17h6382fd38d9269cb3E', symObjAddr: 0x3C, symBinAddr: 0x8E38, symSize: 0x30 }
  - { offset: 0x20D02, size: 0x8, addend: 0x0, symName: '__ZN50_$LT$T$u20$as$u20$core..convert..Into$LT$U$GT$$GT$4into17h7273a6d4580762f7E', symObjAddr: 0x7004, symBinAddr: 0x9194, symSize: 0x24 }
  - { offset: 0x20F72, size: 0x8, addend: 0x0, symName: '__ZN70_$LT$pyo3..exceptions..PyBaseException$u20$as$u20$core..fmt..Debug$GT$3fmt17hae94dbdf6cb0c536E', symObjAddr: 0xA890, symBinAddr: 0x91B8, symSize: 0xFC }
  - { offset: 0x20FE4, size: 0x8, addend: 0x0, symName: '__ZN72_$LT$pyo3..exceptions..PyBaseException$u20$as$u20$core..fmt..Display$GT$3fmt17h2a1e0ef0bef341a8E', symObjAddr: 0xD880, symBinAddr: 0x92B4, symSize: 0x274 }
  - { offset: 0x210BE, size: 0x8, addend: 0x0, symName: '__ZN77_$LT$pyo3..exceptions..PyBaseException$u20$as$u20$core..ops..deref..Deref$GT$5deref17h8f4a7c41adba0610E', symObjAddr: 0x149EC, symBinAddr: 0x9528, symSize: 0x14 }
  - { offset: 0x210F0, size: 0x8, addend: 0x0, symName: '__ZN79_$LT$pyo3..exceptions..PyTypeError$u20$as$u20$pyo3..type_object..PyTypeInfo$GT$15type_object_raw17ha83a3d2b0200db17E', symObjAddr: 0x173E8, symBinAddr: 0x953C, symSize: 0x24 }
  - { offset: 0x2112C, size: 0x8, addend: 0x0, symName: '__ZN79_$LT$pyo3..exceptions..PyTypeError$u20$as$u20$pyo3..type_object..PyTypeInfo$GT$15type_object_raw28_$u7b$$u7b$closure$u7d$$u7d$17h8f184ed8056b9f13E', symObjAddr: 0x1740C, symBinAddr: 0x9560, symSize: 0x4C }
  - { offset: 0x2117F, size: 0x8, addend: 0x0, symName: '__ZN80_$LT$pyo3..exceptions..PyValueError$u20$as$u20$pyo3..type_object..PyTypeInfo$GT$15type_object_raw17h57350eb5958aa210E', symObjAddr: 0x17868, symBinAddr: 0x95AC, symSize: 0x24 }
  - { offset: 0x211BB, size: 0x8, addend: 0x0, symName: '__ZN80_$LT$pyo3..exceptions..PyValueError$u20$as$u20$pyo3..type_object..PyTypeInfo$GT$15type_object_raw28_$u7b$$u7b$closure$u7d$$u7d$17h1e15e11310918e9aE', symObjAddr: 0x1788C, symBinAddr: 0x95D0, symSize: 0x4C }
  - { offset: 0x2120E, size: 0x8, addend: 0x0, symName: '__ZN81_$LT$pyo3..exceptions..PyImportError$u20$as$u20$pyo3..type_object..PyTypeInfo$GT$15type_object_raw17h6d5a6711d9dbd05cE', symObjAddr: 0x17F80, symBinAddr: 0x961C, symSize: 0x24 }
  - { offset: 0x2124A, size: 0x8, addend: 0x0, symName: '__ZN81_$LT$pyo3..exceptions..PyImportError$u20$as$u20$pyo3..type_object..PyTypeInfo$GT$15type_object_raw28_$u7b$$u7b$closure$u7d$$u7d$17h323ea1b5a3f219a8E', symObjAddr: 0x17FA4, symBinAddr: 0x9640, symSize: 0x4C }
  - { offset: 0x2129D, size: 0x8, addend: 0x0, symName: '__ZN83_$LT$pyo3..exceptions..PyBaseException$u20$as$u20$pyo3..type_object..PyTypeInfo$GT$10is_type_of17h054c56e57fef6922E', symObjAddr: 0x186F8, symBinAddr: 0x968C, symSize: 0x30 }
  - { offset: 0x212C9, size: 0x8, addend: 0x0, symName: '__ZN83_$LT$pyo3..exceptions..PyBaseException$u20$as$u20$pyo3..type_object..PyTypeInfo$GT$15type_object_raw17h2c37fd70f02da3cfE', symObjAddr: 0x18728, symBinAddr: 0x96BC, symSize: 0x24 }
  - { offset: 0x21305, size: 0x8, addend: 0x0, symName: '__ZN83_$LT$pyo3..exceptions..PyBaseException$u20$as$u20$pyo3..type_object..PyTypeInfo$GT$15type_object_raw28_$u7b$$u7b$closure$u7d$$u7d$17h6ae1fafcd8301a8eE', symObjAddr: 0x1874C, symBinAddr: 0x96E0, symSize: 0x4C }
  - { offset: 0x21358, size: 0x8, addend: 0x0, symName: '__ZN83_$LT$pyo3..exceptions..PyOverflowError$u20$as$u20$pyo3..type_object..PyTypeInfo$GT$15type_object_raw17he4d4e7785d813f6eE', symObjAddr: 0x18910, symBinAddr: 0x972C, symSize: 0x24 }
  - { offset: 0x21394, size: 0x8, addend: 0x0, symName: '__ZN83_$LT$pyo3..exceptions..PyOverflowError$u20$as$u20$pyo3..type_object..PyTypeInfo$GT$15type_object_raw28_$u7b$$u7b$closure$u7d$$u7d$17h74372a8b64ab86afE', symObjAddr: 0x18934, symBinAddr: 0x9750, symSize: 0x4C }
  - { offset: 0x213E7, size: 0x8, addend: 0x0, symName: '__ZN84_$LT$pyo3..exceptions..PyAttributeError$u20$as$u20$pyo3..type_object..PyTypeInfo$GT$15type_object_raw17hc4b97286ab8c2fccE', symObjAddr: 0x18B84, symBinAddr: 0x979C, symSize: 0x24 }
  - { offset: 0x21423, size: 0x8, addend: 0x0, symName: '__ZN84_$LT$pyo3..exceptions..PyAttributeError$u20$as$u20$pyo3..type_object..PyTypeInfo$GT$15type_object_raw28_$u7b$$u7b$closure$u7d$$u7d$17h439c077d2e28a11dE', symObjAddr: 0x18BA8, symBinAddr: 0x97C0, symSize: 0x4C }
  - { offset: 0x214E8, size: 0x8, addend: 0x0, symName: '__ZN49_$LT$T$u20$as$u20$pyo3..conversion..PyTryFrom$GT$18try_from_unchecked17h0b3293bd4aa1cd64E', symObjAddr: 0x12C, symBinAddr: 0x8E68, symSize: 0x30 }
  - { offset: 0x21528, size: 0x8, addend: 0x0, symName: '__ZN49_$LT$T$u20$as$u20$pyo3..conversion..PyTryFrom$GT$8try_from17h4695666212afc319E', symObjAddr: 0x164C, symBinAddr: 0x8E98, symSize: 0x98 }
  - { offset: 0x216B9, size: 0x8, addend: 0x0, symName: __ZN4pyo38instance12PyNativeType18unchecked_downcast17hd4717e9970d7ca00E, symObjAddr: 0x6B14, symBinAddr: 0x9104, symSize: 0x70 }
  - { offset: 0x216EE, size: 0x8, addend: 0x0, symName: __ZN4pyo38instance12PyNativeType2py17hb06039e8772395cdE, symObjAddr: 0x6FE4, symBinAddr: 0x9174, symSize: 0x20 }
  - { offset: 0x217AF, size: 0x8, addend: 0x0, symName: __ZN4pyo311type_object10PyTypeInfo11type_object17h9dba5b62b8067cb6E, symObjAddr: 0x5124, symBinAddr: 0x9044, symSize: 0x20 }
  - { offset: 0x217EF, size: 0x8, addend: 0x0, symName: __ZN4pyo311type_object10PyTypeInfo11type_object17habb7932ca1c18f0fE, symObjAddr: 0x5144, symBinAddr: 0x9064, symSize: 0x20 }
  - { offset: 0x2182F, size: 0x8, addend: 0x0, symName: __ZN4pyo311type_object10PyTypeInfo11type_object17hc6f149d879a9d5daE, symObjAddr: 0x5204, symBinAddr: 0x9084, symSize: 0x20 }
  - { offset: 0x2186F, size: 0x8, addend: 0x0, symName: __ZN4pyo311type_object10PyTypeInfo11type_object17hc957f99c8ed786dfE, symObjAddr: 0x5224, symBinAddr: 0x90A4, symSize: 0x20 }
  - { offset: 0x218AF, size: 0x8, addend: 0x0, symName: __ZN4pyo311type_object10PyTypeInfo11type_object17hd5154bbd65fc65beE, symObjAddr: 0x5244, symBinAddr: 0x90C4, symSize: 0x20 }
  - { offset: 0x218EF, size: 0x8, addend: 0x0, symName: __ZN4pyo311type_object10PyTypeInfo11type_object17he5d29ce40c51edffE, symObjAddr: 0x5284, symBinAddr: 0x90E4, symSize: 0x20 }
  - { offset: 0x21BFA, size: 0x8, addend: 0x0, symName: __ZN4pyo310exceptions11PyTypeError7new_err17h2b62062033cd010cE, symObjAddr: 0x34AC, symBinAddr: 0x8F30, symSize: 0x34 }
  - { offset: 0x21C26, size: 0x8, addend: 0x0, symName: __ZN4pyo310exceptions11PyTypeError7new_err17h89dbcd5585fd7085E, symObjAddr: 0x34E0, symBinAddr: 0x8F64, symSize: 0x28 }
  - { offset: 0x21C51, size: 0x8, addend: 0x0, symName: __ZN4pyo310exceptions11PyTypeError7new_err17ha7373f7cd09b61deE, symObjAddr: 0x3508, symBinAddr: 0x8F8C, symSize: 0x34 }
  - { offset: 0x21C7D, size: 0x8, addend: 0x0, symName: __ZN4pyo310exceptions12PyValueError7new_err17hb7bb9ed06a62e1f9E, symObjAddr: 0x3618, symBinAddr: 0x8FC0, symSize: 0x28 }
  - { offset: 0x21CA8, size: 0x8, addend: 0x0, symName: __ZN4pyo310exceptions13PyImportError7new_err17h295bf2cd775d23c4E, symObjAddr: 0x3680, symBinAddr: 0x8FE8, symSize: 0x28 }
  - { offset: 0x21CDA, size: 0x8, addend: 0x0, symName: __ZN4pyo310exceptions15PyOverflowError7new_err17h913b3af747a03bfbE, symObjAddr: 0x3700, symBinAddr: 0x9010, symSize: 0x34 }
  - { offset: 0x22933, size: 0x8, addend: 0x0, symName: '__ZN153_$LT$core..result..Result$LT$T$C$F$GT$$u20$as$u20$core..ops..try_trait..FromResidual$LT$core..result..Result$LT$core..convert..Infallible$C$E$GT$$GT$$GT$13from_residual17h0183b0a99867d37fE', symObjAddr: 0x5C, symBinAddr: 0x980C, symSize: 0x48 }
  - { offset: 0x229B8, size: 0x8, addend: 0x0, symName: '__ZN153_$LT$core..result..Result$LT$T$C$F$GT$$u20$as$u20$core..ops..try_trait..FromResidual$LT$core..result..Result$LT$core..convert..Infallible$C$E$GT$$GT$$GT$13from_residual17h071d7c2e91899a3cE', symObjAddr: 0xEC, symBinAddr: 0x9854, symSize: 0x48 }
  - { offset: 0x22A3D, size: 0x8, addend: 0x0, symName: '__ZN153_$LT$core..result..Result$LT$T$C$F$GT$$u20$as$u20$core..ops..try_trait..FromResidual$LT$core..result..Result$LT$core..convert..Infallible$C$E$GT$$GT$$GT$13from_residual17h0e27b20d384418a2E', symObjAddr: 0x1C8, symBinAddr: 0x989C, symSize: 0x48 }
  - { offset: 0x22AC2, size: 0x8, addend: 0x0, symName: '__ZN153_$LT$core..result..Result$LT$T$C$F$GT$$u20$as$u20$core..ops..try_trait..FromResidual$LT$core..result..Result$LT$core..convert..Infallible$C$E$GT$$GT$$GT$13from_residual17h112f00396002a137E', symObjAddr: 0x2A0, symBinAddr: 0x98E4, symSize: 0x14 }
  - { offset: 0x22B0B, size: 0x8, addend: 0x0, symName: '__ZN153_$LT$core..result..Result$LT$T$C$F$GT$$u20$as$u20$core..ops..try_trait..FromResidual$LT$core..result..Result$LT$core..convert..Infallible$C$E$GT$$GT$$GT$13from_residual17h120355159b2b43e9E', symObjAddr: 0x2FC, symBinAddr: 0x98F8, symSize: 0x48 }
  - { offset: 0x22B90, size: 0x8, addend: 0x0, symName: '__ZN153_$LT$core..result..Result$LT$T$C$F$GT$$u20$as$u20$core..ops..try_trait..FromResidual$LT$core..result..Result$LT$core..convert..Infallible$C$E$GT$$GT$$GT$13from_residual17h4ee6ca4616f42106E', symObjAddr: 0x774, symBinAddr: 0x9940, symSize: 0x48 }
  - { offset: 0x22C15, size: 0x8, addend: 0x0, symName: '__ZN153_$LT$core..result..Result$LT$T$C$F$GT$$u20$as$u20$core..ops..try_trait..FromResidual$LT$core..result..Result$LT$core..convert..Infallible$C$E$GT$$GT$$GT$13from_residual17h549f55d9f1e6fce0E', symObjAddr: 0x804, symBinAddr: 0x9988, symSize: 0x58 }
  - { offset: 0x22C7D, size: 0x8, addend: 0x0, symName: '__ZN153_$LT$core..result..Result$LT$T$C$F$GT$$u20$as$u20$core..ops..try_trait..FromResidual$LT$core..result..Result$LT$core..convert..Infallible$C$E$GT$$GT$$GT$13from_residual17h59a9227b1f646b75E', symObjAddr: 0x8A4, symBinAddr: 0x99E0, symSize: 0x48 }
  - { offset: 0x22D02, size: 0x8, addend: 0x0, symName: '__ZN153_$LT$core..result..Result$LT$T$C$F$GT$$u20$as$u20$core..ops..try_trait..FromResidual$LT$core..result..Result$LT$core..convert..Infallible$C$E$GT$$GT$$GT$13from_residual17h5e2b178d92098abfE', symObjAddr: 0x8EC, symBinAddr: 0x9A28, symSize: 0x48 }
  - { offset: 0x22D87, size: 0x8, addend: 0x0, symName: '__ZN153_$LT$core..result..Result$LT$T$C$F$GT$$u20$as$u20$core..ops..try_trait..FromResidual$LT$core..result..Result$LT$core..convert..Infallible$C$E$GT$$GT$$GT$13from_residual17h60310097f6dc45a4E', symObjAddr: 0x934, symBinAddr: 0x9A70, symSize: 0x48 }
  - { offset: 0x22E0C, size: 0x8, addend: 0x0, symName: '__ZN153_$LT$core..result..Result$LT$T$C$F$GT$$u20$as$u20$core..ops..try_trait..FromResidual$LT$core..result..Result$LT$core..convert..Infallible$C$E$GT$$GT$$GT$13from_residual17h8dab83b1b81b4141E', symObjAddr: 0xC9C, symBinAddr: 0x9AB8, symSize: 0x48 }
  - { offset: 0x22E91, size: 0x8, addend: 0x0, symName: '__ZN153_$LT$core..result..Result$LT$T$C$F$GT$$u20$as$u20$core..ops..try_trait..FromResidual$LT$core..result..Result$LT$core..convert..Infallible$C$E$GT$$GT$$GT$13from_residual17hb1cc6606fd9715a5E', symObjAddr: 0x1084, symBinAddr: 0x9B00, symSize: 0x48 }
  - { offset: 0x246AB, size: 0x8, addend: 0x0, symName: __ZN4core6result6Result3Err17hb5a215d89d1108efE, symObjAddr: 0x8168, symBinAddr: 0xA6D4, symSize: 0x20 }
  - { offset: 0x246EE, size: 0x8, addend: 0x0, symName: '__ZN79_$LT$core..result..Result$LT$T$C$E$GT$$u20$as$u20$core..ops..try_trait..Try$GT$6branch17h2a6c63ed308f88aaE', symObjAddr: 0x8528, symBinAddr: 0xA6F4, symSize: 0xAC }
  - { offset: 0x2476B, size: 0x8, addend: 0x0, symName: '__ZN79_$LT$core..result..Result$LT$T$C$E$GT$$u20$as$u20$core..ops..try_trait..Try$GT$6branch17h3458bf11309b9977E', symObjAddr: 0x85D4, symBinAddr: 0xA7A0, symSize: 0x94 }
  - { offset: 0x247E8, size: 0x8, addend: 0x0, symName: '__ZN79_$LT$core..result..Result$LT$T$C$E$GT$$u20$as$u20$core..ops..try_trait..Try$GT$6branch17h3b0a016cde081e34E', symObjAddr: 0x86FC, symBinAddr: 0xA834, symSize: 0x28 }
  - { offset: 0x24846, size: 0x8, addend: 0x0, symName: '__ZN79_$LT$core..result..Result$LT$T$C$E$GT$$u20$as$u20$core..ops..try_trait..Try$GT$6branch17h693a14f5f02af60fE', symObjAddr: 0x8998, symBinAddr: 0xA85C, symSize: 0x8C }
  - { offset: 0x248C4, size: 0x8, addend: 0x0, symName: '__ZN79_$LT$core..result..Result$LT$T$C$E$GT$$u20$as$u20$core..ops..try_trait..Try$GT$6branch17h7040f99bbbb8e9edE', symObjAddr: 0x8B38, symBinAddr: 0xA8E8, symSize: 0x80 }
  - { offset: 0x24942, size: 0x8, addend: 0x0, symName: '__ZN79_$LT$core..result..Result$LT$T$C$E$GT$$u20$as$u20$core..ops..try_trait..Try$GT$6branch17h889c7f5ce5c0a203E', symObjAddr: 0x8D54, symBinAddr: 0xA968, symSize: 0x44 }
  - { offset: 0x249BE, size: 0x8, addend: 0x0, symName: '__ZN79_$LT$core..result..Result$LT$T$C$E$GT$$u20$as$u20$core..ops..try_trait..Try$GT$6branch17h8e6b49c64e3dee5fE', symObjAddr: 0x8D98, symBinAddr: 0xA9AC, symSize: 0x88 }
  - { offset: 0x24A3C, size: 0x8, addend: 0x0, symName: '__ZN79_$LT$core..result..Result$LT$T$C$E$GT$$u20$as$u20$core..ops..try_trait..Try$GT$6branch17h8edb00d051c767b4E', symObjAddr: 0x8E20, symBinAddr: 0xAA34, symSize: 0x80 }
  - { offset: 0x24ABA, size: 0x8, addend: 0x0, symName: '__ZN79_$LT$core..result..Result$LT$T$C$E$GT$$u20$as$u20$core..ops..try_trait..Try$GT$6branch17h92a39a7cbe1d08baE', symObjAddr: 0x8EA0, symBinAddr: 0xAAB4, symSize: 0x80 }
  - { offset: 0x24B38, size: 0x8, addend: 0x0, symName: '__ZN79_$LT$core..result..Result$LT$T$C$E$GT$$u20$as$u20$core..ops..try_trait..Try$GT$6branch17h96c2033de90e3c21E', symObjAddr: 0x8F20, symBinAddr: 0xAB34, symSize: 0x88 }
  - { offset: 0x24BB6, size: 0x8, addend: 0x0, symName: '__ZN79_$LT$core..result..Result$LT$T$C$E$GT$$u20$as$u20$core..ops..try_trait..Try$GT$6branch17h9c193018a3103ffcE', symObjAddr: 0x90A8, symBinAddr: 0xABBC, symSize: 0x80 }
  - { offset: 0x24C34, size: 0x8, addend: 0x0, symName: '__ZN79_$LT$core..result..Result$LT$T$C$E$GT$$u20$as$u20$core..ops..try_trait..Try$GT$6branch17ha267aa91fe860639E', symObjAddr: 0x9128, symBinAddr: 0xAC3C, symSize: 0x28 }
  - { offset: 0x24C92, size: 0x8, addend: 0x0, symName: '__ZN79_$LT$core..result..Result$LT$T$C$E$GT$$u20$as$u20$core..ops..try_trait..Try$GT$6branch17haa4dddb75c8a5371E', symObjAddr: 0x91D0, symBinAddr: 0xAC64, symSize: 0x8C }
  - { offset: 0x24D10, size: 0x8, addend: 0x0, symName: '__ZN79_$LT$core..result..Result$LT$T$C$E$GT$$u20$as$u20$core..ops..try_trait..Try$GT$6branch17hb19f433a225b0e6bE', symObjAddr: 0x9314, symBinAddr: 0xACF0, symSize: 0x80 }
  - { offset: 0x24D8E, size: 0x8, addend: 0x0, symName: '__ZN79_$LT$core..result..Result$LT$T$C$E$GT$$u20$as$u20$core..ops..try_trait..Try$GT$6branch17hc647e92dc967186eE', symObjAddr: 0x95F0, symBinAddr: 0xAD70, symSize: 0x8C }
  - { offset: 0x24E0C, size: 0x8, addend: 0x0, symName: '__ZN79_$LT$core..result..Result$LT$T$C$E$GT$$u20$as$u20$core..ops..try_trait..Try$GT$6branch17heaa3cdfbb91e9f1cE', symObjAddr: 0x993C, symBinAddr: 0xADFC, symSize: 0x70 }
  - { offset: 0x24E8A, size: 0x8, addend: 0x0, symName: '__ZN79_$LT$core..result..Result$LT$T$C$E$GT$$u20$as$u20$core..ops..try_trait..Try$GT$6branch17hededd366c8e8dc30E', symObjAddr: 0x99AC, symBinAddr: 0xAE6C, symSize: 0x80 }
  - { offset: 0x24F08, size: 0x8, addend: 0x0, symName: '__ZN79_$LT$core..result..Result$LT$T$C$E$GT$$u20$as$u20$core..ops..try_trait..Try$GT$6branch17hf89ef8da914c2375E', symObjAddr: 0x9AB4, symBinAddr: 0xAEEC, symSize: 0x80 }
  - { offset: 0x2629E, size: 0x8, addend: 0x0, symName: '__ZN4core6result19Result$LT$T$C$E$GT$14unwrap_or_else17h4adfaff5ba12c5b7E', symObjAddr: 0x17B8, symBinAddr: 0x9B48, symSize: 0x7C }
  - { offset: 0x26317, size: 0x8, addend: 0x0, symName: '__ZN4core6result19Result$LT$T$C$E$GT$2ok17hb7c991866f8528bfE', symObjAddr: 0x1C20, symBinAddr: 0x9BC4, symSize: 0x58 }
  - { offset: 0x26377, size: 0x8, addend: 0x0, symName: '__ZN4core6result19Result$LT$T$C$E$GT$2or17h0f111f55721188eeE', symObjAddr: 0x1C78, symBinAddr: 0x9C1C, symSize: 0x70 }
  - { offset: 0x263E3, size: 0x8, addend: 0x0, symName: '__ZN4core6result19Result$LT$T$C$E$GT$3map17h59e48411aea7b359E', symObjAddr: 0x1E7C, symBinAddr: 0x9C8C, symSize: 0x90 }
  - { offset: 0x26476, size: 0x8, addend: 0x0, symName: '__ZN4core6result19Result$LT$T$C$E$GT$3map17h68da70b17806b359E', symObjAddr: 0x1F0C, symBinAddr: 0x9D1C, symSize: 0x8C }
  - { offset: 0x26516, size: 0x8, addend: 0x0, symName: '__ZN4core6result19Result$LT$T$C$E$GT$3map17h6927da510e20445bE', symObjAddr: 0x1F98, symBinAddr: 0x9DA8, symSize: 0x8C }
  - { offset: 0x265C8, size: 0x8, addend: 0x0, symName: '__ZN4core6result19Result$LT$T$C$E$GT$6expect17h3c87bb6a01750433E', symObjAddr: 0x22FC, symBinAddr: 0x9E34, symSize: 0xA8 }
  - { offset: 0x2662B, size: 0x8, addend: 0x0, symName: '__ZN4core6result19Result$LT$T$C$E$GT$6expect17h4c48b81cd0224c68E', symObjAddr: 0x244C, symBinAddr: 0x9EDC, symSize: 0xA8 }
  - { offset: 0x2668E, size: 0x8, addend: 0x0, symName: '__ZN4core6result19Result$LT$T$C$E$GT$6expect17h594216cf0ae66614E', symObjAddr: 0x259C, symBinAddr: 0x9F84, symSize: 0xBC }
  - { offset: 0x266F1, size: 0x8, addend: 0x0, symName: '__ZN4core6result19Result$LT$T$C$E$GT$6expect17h8beb0e2afaefb549E', symObjAddr: 0x26DC, symBinAddr: 0xA040, symSize: 0x84 }
  - { offset: 0x26753, size: 0x8, addend: 0x0, symName: '__ZN4core6result19Result$LT$T$C$E$GT$6expect17hbc63e605eb53f1bcE', symObjAddr: 0x2760, symBinAddr: 0xA0C4, symSize: 0x9C }
  - { offset: 0x267B6, size: 0x8, addend: 0x0, symName: '__ZN4core6result19Result$LT$T$C$E$GT$6expect17hcdecc57819e3cd56E', symObjAddr: 0x27FC, symBinAddr: 0xA160, symSize: 0x98 }
  - { offset: 0x26819, size: 0x8, addend: 0x0, symName: '__ZN4core6result19Result$LT$T$C$E$GT$6expect17he2562aa8f314c834E', symObjAddr: 0x293C, symBinAddr: 0xA1F8, symSize: 0x78 }
  - { offset: 0x2689A, size: 0x8, addend: 0x0, symName: '__ZN4core6result19Result$LT$T$C$E$GT$7map_err17h41930b22d736ff4dE', symObjAddr: 0x3E04, symBinAddr: 0xA270, symSize: 0x70 }
  - { offset: 0x26940, size: 0x8, addend: 0x0, symName: '__ZN4core6result19Result$LT$T$C$E$GT$7map_err17h6ec58cfa712f4272E', symObjAddr: 0x5048, symBinAddr: 0xA2E0, symSize: 0xA4 }
  - { offset: 0x269EB, size: 0x8, addend: 0x0, symName: '__ZN4core6result19Result$LT$T$C$E$GT$7map_err17h7b7eb9bd14d488e3E', symObjAddr: 0x5280, symBinAddr: 0xA384, symSize: 0x88 }
  - { offset: 0x26A85, size: 0x8, addend: 0x0, symName: '__ZN4core6result19Result$LT$T$C$E$GT$7map_err17h930c9f9dfe3dd849E', symObjAddr: 0x5C58, symBinAddr: 0xA40C, symSize: 0x9C }
  - { offset: 0x26B18, size: 0x8, addend: 0x0, symName: '__ZN4core6result19Result$LT$T$C$E$GT$7map_err17h97ac61bd82c80285E', symObjAddr: 0x5D98, symBinAddr: 0xA4A8, symSize: 0xBC }
  - { offset: 0x26BAB, size: 0x8, addend: 0x0, symName: '__ZN4core6result19Result$LT$T$C$E$GT$7map_err17hdbe84cfbe3d2cb9bE', symObjAddr: 0x7254, symBinAddr: 0xA564, symSize: 0x78 }
  - { offset: 0x26C5C, size: 0x8, addend: 0x0, symName: '__ZN4core6result19Result$LT$T$C$E$GT$9unwrap_or17h245924e6fa05636cE', symObjAddr: 0x7FFC, symBinAddr: 0xA5DC, symSize: 0x70 }
  - { offset: 0x26CA0, size: 0x8, addend: 0x0, symName: '__ZN4core6result19Result$LT$T$C$E$GT$9unwrap_or17h6d98a3a938384708E', symObjAddr: 0x806C, symBinAddr: 0xA64C, symSize: 0x88 }
  - { offset: 0x26DCA, size: 0x8, addend: 0x0, symName: __ZN4pyo35types3any5PyAny7getattr5inner17heff515ae92f70a04E, symObjAddr: 0x35B0, symBinAddr: 0xB2BC, symSize: 0x4C }
  - { offset: 0x26E09, size: 0x8, addend: 0x0, symName: '__ZN4pyo35types3any5PyAny7getattr5inner28_$u7b$$u7b$closure$u7d$$u7d$17h7db80442e23e5153E', symObjAddr: 0x35FC, symBinAddr: 0xB308, symSize: 0x90 }
  - { offset: 0x26E4C, size: 0x8, addend: 0x0, symName: __ZN4pyo35types3any5PyAny7setattr5inner17he341c5d7288099f8E, symObjAddr: 0x3B2C, symBinAddr: 0xB5BC, symSize: 0xDC }
  - { offset: 0x28213, size: 0x8, addend: 0x0, symName: '__ZN62_$LT$pyo3..types..any..PyAny$u20$as$u20$core..fmt..Display$GT$3fmt17h4fa50c8ef14d2b15E', symObjAddr: 0x6120, symBinAddr: 0xB914, symSize: 0x24C }
  - { offset: 0x28693, size: 0x8, addend: 0x0, symName: __ZN4pyo38instance12PyNativeType2py17h747674330561f9efE, symObjAddr: 0x5E18, symBinAddr: 0xB7D8, symSize: 0x20 }
  - { offset: 0x286D0, size: 0x8, addend: 0x0, symName: __ZN4pyo310conversion13FromPyPointer14from_owned_ptr17h576ae9fb69aede6eE, symObjAddr: 0x414, symBinAddr: 0xAF9C, symSize: 0x24 }
  - { offset: 0x28722, size: 0x8, addend: 0x0, symName: __ZN4pyo310conversion13FromPyPointer23from_owned_ptr_or_panic17hc62fc0e6c2ee550aE, symObjAddr: 0x490, symBinAddr: 0xAFC0, symSize: 0x34 }
  - { offset: 0x28774, size: 0x8, addend: 0x0, symName: __ZN4pyo310conversion13FromPyPointer24from_borrowed_ptr_or_err17h35a4f70a427909a1E, symObjAddr: 0x4C4, symBinAddr: 0xAFF4, symSize: 0x34 }
  - { offset: 0x287CC, size: 0x8, addend: 0x0, symName: '__ZN53_$LT$T$u20$as$u20$pyo3..conversion..FromPyPointer$GT$21from_owned_ptr_or_opt17h3eed550f50ffb79cE', symObjAddr: 0x5EF0, symBinAddr: 0xB838, symSize: 0xB4 }
  - { offset: 0x2883C, size: 0x8, addend: 0x0, symName: '__ZN53_$LT$T$u20$as$u20$pyo3..conversion..FromPyPointer$GT$24from_borrowed_ptr_or_opt17ha7917409d703f70dE', symObjAddr: 0x5FA4, symBinAddr: 0xB8EC, symSize: 0x28 }
  - { offset: 0x294BE, size: 0x8, addend: 0x0, symName: '__ZN44_$LT$$RF$T$u20$as$u20$core..fmt..Display$GT$3fmt17hf2d5b8796472437fE', symObjAddr: 0x58, symBinAddr: 0xAF6C, symSize: 0x30 }
  - { offset: 0x2DB29, size: 0x8, addend: 0x0, symName: '__ZN50_$LT$T$u20$as$u20$core..convert..Into$LT$U$GT$$GT$4into17h043c90aae6f75748E', symObjAddr: 0x5E38, symBinAddr: 0xB7F8, symSize: 0x24 }
  - { offset: 0x2DB69, size: 0x8, addend: 0x0, symName: '__ZN50_$LT$T$u20$as$u20$core..convert..Into$LT$U$GT$$GT$4into17h30ee25d3d8ba9b1eE', symObjAddr: 0x5E5C, symBinAddr: 0xB81C, symSize: 0x1C }
  - { offset: 0x2DD8A, size: 0x8, addend: 0x0, symName: __ZN4pyo35types3any5PyAny18downcast_unchecked17h9d572626cc928f64E, symObjAddr: 0x2948, symBinAddr: 0xB028, symSize: 0x24 }
  - { offset: 0x2DDDD, size: 0x8, addend: 0x0, symName: __ZN4pyo35types3any5PyAny2is17h7e4ba68d4b6b0379E, symObjAddr: 0x29B4, symBinAddr: 0xB04C, symSize: 0x4C }
  - { offset: 0x2DE16, size: 0x8, addend: 0x0, symName: __ZN4pyo35types3any5PyAny2py17hcdaf96a489c82fe5E, symObjAddr: 0x2A00, symBinAddr: 0xB098, symSize: 0x24 }
  - { offset: 0x2DE53, size: 0x8, addend: 0x0, symName: __ZN4pyo35types3any5PyAny3str17h6ee0c140952b1de2E, symObjAddr: 0x2B18, symBinAddr: 0xB0BC, symSize: 0x40 }
  - { offset: 0x2DEDB, size: 0x8, addend: 0x0, symName: __ZN4pyo35types3any5PyAny4iter17h1b8e513eedadc9b3E, symObjAddr: 0x2FFC, symBinAddr: 0xB0FC, symSize: 0x24 }
  - { offset: 0x2DEFE, size: 0x8, addend: 0x0, symName: __ZN4pyo35types3any5PyAny4repr17hb0c327ab101683c0E, symObjAddr: 0x3020, symBinAddr: 0xB120, symSize: 0x40 }
  - { offset: 0x2DF21, size: 0x8, addend: 0x0, symName: __ZN4pyo35types3any5PyAny6as_ptr17h6df47e108e6ba216E, symObjAddr: 0x3138, symBinAddr: 0xB160, symSize: 0x14 }
  - { offset: 0x2DF4B, size: 0x8, addend: 0x0, symName: __ZN4pyo35types3any5PyAny7extract17h1275081da94880cbE, symObjAddr: 0x3218, symBinAddr: 0xB174, symSize: 0x24 }
  - { offset: 0x2DF85, size: 0x8, addend: 0x0, symName: __ZN4pyo35types3any5PyAny7extract17h2336558b1511e2b1E, symObjAddr: 0x3284, symBinAddr: 0xB198, symSize: 0x24 }
  - { offset: 0x2DFBF, size: 0x8, addend: 0x0, symName: __ZN4pyo35types3any5PyAny7extract17h9c7f584a526ad059E, symObjAddr: 0x3338, symBinAddr: 0xB1BC, symSize: 0x24 }
  - { offset: 0x2DFF2, size: 0x8, addend: 0x0, symName: __ZN4pyo35types3any5PyAny7extract17hab1c9c10c276ae6eE, symObjAddr: 0x3380, symBinAddr: 0xB1E0, symSize: 0x24 }
  - { offset: 0x2E02B, size: 0x8, addend: 0x0, symName: __ZN4pyo35types3any5PyAny7extract17he3cba99aea781991E, symObjAddr: 0x3434, symBinAddr: 0xB204, symSize: 0x24 }
  - { offset: 0x2E064, size: 0x8, addend: 0x0, symName: __ZN4pyo35types3any5PyAny7getattr17h7364e478eefca3d9E, symObjAddr: 0x351C, symBinAddr: 0xB228, symSize: 0x94 }
  - { offset: 0x2E09D, size: 0x8, addend: 0x0, symName: __ZN4pyo35types3any5PyAny7setattr17h663fad3145b34566E, symObjAddr: 0x3908, symBinAddr: 0xB398, symSize: 0x128 }
  - { offset: 0x2E102, size: 0x8, addend: 0x0, symName: __ZN4pyo35types3any5PyAny7setattr17h99ba480dc94e7b7dE, symObjAddr: 0x3A30, symBinAddr: 0xB4C0, symSize: 0xFC }
  - { offset: 0x2E167, size: 0x8, addend: 0x0, symName: __ZN4pyo35types3any5PyAny8_getattr17hfa2ea3b5dff50d7bE, symObjAddr: 0x3F90, symBinAddr: 0xB698, symSize: 0x9C }
  - { offset: 0x2E49E, size: 0x8, addend: 0x0, symName: '__ZN87_$LT$T$u20$as$u20$alloc..slice..$LT$impl$u20$$u5b$T$u5d$$GT$..to_vec_in..ConvertVec$GT$6to_vec17hfadf3fee3a878e2fE', symObjAddr: 0x6870, symBinAddr: 0xBB60, symSize: 0xF4 }
  - { offset: 0x2E801, size: 0x8, addend: 0x0, symName: __ZN4pyo35types3any5PyAny8downcast17h3fba47f3826c161eE, symObjAddr: 0x4494, symBinAddr: 0xB734, symSize: 0x24 }
  - { offset: 0x2E847, size: 0x8, addend: 0x0, symName: __ZN4pyo35types3any5PyAny8downcast17h466fdcc0489ff274E, symObjAddr: 0x44DC, symBinAddr: 0xB758, symSize: 0x24 }
  - { offset: 0x2E880, size: 0x8, addend: 0x0, symName: __ZN4pyo35types3any5PyAny8downcast17h4aa07e64eac16f54E, symObjAddr: 0x4524, symBinAddr: 0xB77C, symSize: 0x24 }
  - { offset: 0x2EC06, size: 0x8, addend: 0x0, symName: __ZN4pyo35types3any5PyAny8get_type17h73029b52db18c291E, symObjAddr: 0x504C, symBinAddr: 0xB7A0, symSize: 0x38 }
  - { offset: 0x2F56F, size: 0x8, addend: 0x0, symName: '__ZN4core3ptr7mut_ptr31_$LT$impl$u20$$BP$mut$u20$T$GT$7is_null17h123f4d42cd6e0a91E', symObjAddr: 0x1714, symBinAddr: 0xC784, symSize: 0x18 }
  - { offset: 0x2FAC2, size: 0x8, addend: 0x0, symName: '__ZN74_$LT$core..cell..RefMut$LT$T$GT$$u20$as$u20$core..ops..deref..DerefMut$GT$9deref_mut17h57c48c5cc4fa51a6E', symObjAddr: 0x5980, symBinAddr: 0xE778, symSize: 0x18 }
  - { offset: 0x2FB32, size: 0x8, addend: 0x0, symName: '__ZN63_$LT$core..cell..BorrowRef$u20$as$u20$core..ops..drop..Drop$GT$4drop17h051e0db9f8f650b2E', symObjAddr: 0x5150, symBinAddr: 0xE484, symSize: 0x28 }
  - { offset: 0x2FBA2, size: 0x8, addend: 0x0, symName: '__ZN66_$LT$core..cell..BorrowRefMut$u20$as$u20$core..ops..drop..Drop$GT$4drop17hde9a5e5c8c2d1e02E', symObjAddr: 0x5288, symBinAddr: 0xE534, symSize: 0x28 }
  - { offset: 0x2FC12, size: 0x8, addend: 0x0, symName: '__ZN68_$LT$core..cell..Ref$LT$T$GT$$u20$as$u20$core..ops..deref..Deref$GT$5deref17hb6d262af93e1ed75E', symObjAddr: 0x52E4, symBinAddr: 0xE55C, symSize: 0x18 }
  - { offset: 0x2FC64, size: 0x8, addend: 0x0, symName: '__ZN71_$LT$core..cell..RefMut$LT$T$GT$$u20$as$u20$core..ops..deref..Deref$GT$5deref17h9b4f72287c791e62E', symObjAddr: 0x55F0, symBinAddr: 0xE664, symSize: 0x18 }
  - { offset: 0x30AE6, size: 0x8, addend: 0x0, symName: '__ZN4core7convert3num18ptr_try_from_impls69_$LT$impl$u20$core..convert..TryFrom$LT$u64$GT$$u20$for$u20$usize$GT$8try_from17h21a08b9c3cbc2c90E', symObjAddr: 0x1C14, symBinAddr: 0xC9CC, symSize: 0x18 }
  - { offset: 0x30B1C, size: 0x8, addend: 0x0, symName: '__ZN50_$LT$T$u20$as$u20$core..convert..Into$LT$U$GT$$GT$4into17h76cc376431dae5e6E', symObjAddr: 0x4BEC, symBinAddr: 0xE000, symSize: 0x24 }
  - { offset: 0x30B72, size: 0x8, addend: 0x0, symName: '__ZN110_$LT$core..iter..adapters..enumerate..Enumerate$LT$I$GT$$u20$as$u20$core..iter..traits..iterator..Iterator$GT$4next17h5213ca3cd4cd84d5E', symObjAddr: 0x248, symBinAddr: 0xBD34, symSize: 0xE0 }
  - { offset: 0x30C58, size: 0x8, addend: 0x0, symName: '__ZN110_$LT$core..iter..adapters..enumerate..Enumerate$LT$I$GT$$u20$as$u20$core..iter..traits..iterator..Iterator$GT$4next17hc7b6732d42a05230E', symObjAddr: 0x328, symBinAddr: 0xBE14, symSize: 0xEC }
  - { offset: 0x30D9E, size: 0x8, addend: 0x0, symName: '__ZN115_$LT$core..iter..adapters..filter_map..FilterMap$LT$I$C$F$GT$$u20$as$u20$core..iter..traits..iterator..Iterator$GT$4next17h5216dc58c999dc8eE', symObjAddr: 0x414, symBinAddr: 0xBF00, symSize: 0x2C }
  - { offset: 0x30DE5, size: 0x8, addend: 0x0, symName: '__ZN115_$LT$core..iter..adapters..filter_map..FilterMap$LT$I$C$F$GT$$u20$as$u20$core..iter..traits..iterator..Iterator$GT$4next17hf1edcd8f9ce6ec66E', symObjAddr: 0x440, symBinAddr: 0xBF2C, symSize: 0x2C }
  - { offset: 0x30E2C, size: 0x8, addend: 0x0, symName: '__ZN115_$LT$core..iter..adapters..filter_map..FilterMap$LT$I$C$F$GT$$u20$as$u20$core..iter..traits..iterator..Iterator$GT$9size_hint17h1945873f4698e8f4E', symObjAddr: 0x46C, symBinAddr: 0xBF58, symSize: 0x4C }
  - { offset: 0x30E90, size: 0x8, addend: 0x0, symName: '__ZN115_$LT$core..iter..adapters..filter_map..FilterMap$LT$I$C$F$GT$$u20$as$u20$core..iter..traits..iterator..Iterator$GT$9size_hint17h76e02ef486fd20e2E', symObjAddr: 0x4B8, symBinAddr: 0xBFA4, symSize: 0x4C }
  - { offset: 0x31038, size: 0x8, addend: 0x0, symName: __ZN4core4iter6traits8iterator8Iterator7collect17h89958d2f91e75052E, symObjAddr: 0x1AC4, symBinAddr: 0xC93C, symSize: 0x14 }
  - { offset: 0x31079, size: 0x8, addend: 0x0, symName: __ZN4core4iter6traits8iterator8Iterator7collect17he282198ff77c4bfdE, symObjAddr: 0x1AD8, symBinAddr: 0xC950, symSize: 0x14 }
  - { offset: 0x310C6, size: 0x8, addend: 0x0, symName: '__ZN63_$LT$I$u20$as$u20$core..iter..traits..collect..IntoIterator$GT$9into_iter17h2de3fb082a87c424E', symObjAddr: 0x50C4, symBinAddr: 0xE3F8, symSize: 0x18 }
  - { offset: 0x310FD, size: 0x8, addend: 0x0, symName: '__ZN63_$LT$I$u20$as$u20$core..iter..traits..collect..IntoIterator$GT$9into_iter17h77f318e29b565504E', symObjAddr: 0x50DC, symBinAddr: 0xE410, symSize: 0x14 }
  - { offset: 0x31134, size: 0x8, addend: 0x0, symName: '__ZN63_$LT$I$u20$as$u20$core..iter..traits..collect..IntoIterator$GT$9into_iter17hc7db836938d18dceE', symObjAddr: 0x50F0, symBinAddr: 0xE424, symSize: 0x30 }
  - { offset: 0x3116C, size: 0x8, addend: 0x0, symName: '__ZN63_$LT$I$u20$as$u20$core..iter..traits..collect..IntoIterator$GT$9into_iter17hf29c42cea4de9aadE', symObjAddr: 0x5120, symBinAddr: 0xE454, symSize: 0x30 }
  - { offset: 0x321ED, size: 0x8, addend: 0x0, symName: '__ZN42_$LT$$RF$T$u20$as$u20$core..fmt..Debug$GT$3fmt17h7ca4541db5643b71E', symObjAddr: 0x11A4, symBinAddr: 0xC65C, symSize: 0x30 }
  - { offset: 0x32233, size: 0x8, addend: 0x0, symName: '__ZN42_$LT$$RF$T$u20$as$u20$core..fmt..Debug$GT$3fmt17hb42a00d68184a5b9E', symObjAddr: 0x11D4, symBinAddr: 0xC68C, symSize: 0x30 }
  - { offset: 0x32301, size: 0x8, addend: 0x0, symName: __ZN4core3mem4drop17hb5c12e28ffaddd9dE, symObjAddr: 0x14FC, symBinAddr: 0xC6BC, symSize: 0x28 }
  - { offset: 0x32367, size: 0x8, addend: 0x0, symName: __ZN4core3mem4take17h38f70a5dcb3c3813E, symObjAddr: 0x1578, symBinAddr: 0xC6E4, symSize: 0x58 }
  - { offset: 0x323C4, size: 0x8, addend: 0x0, symName: __ZN4core3mem6forget17h16dfc0c87d68602dE, symObjAddr: 0x1634, symBinAddr: 0xC73C, symSize: 0x4 }
  - { offset: 0x323F2, size: 0x8, addend: 0x0, symName: __ZN4core3mem6forget17h7d5bda4797fc3edfE, symObjAddr: 0x166C, symBinAddr: 0xC740, symSize: 0x14 }
  - { offset: 0x32423, size: 0x8, addend: 0x0, symName: __ZN4core3mem6forget17hcfb5aebcb44f5dd6E, symObjAddr: 0x16A8, symBinAddr: 0xC754, symSize: 0x10 }
  - { offset: 0x32454, size: 0x8, addend: 0x0, symName: __ZN4core3mem6forget17hdf3342a9b5521273E, symObjAddr: 0x16B8, symBinAddr: 0xC764, symSize: 0x10 }
  - { offset: 0x32485, size: 0x8, addend: 0x0, symName: __ZN4core3mem6forget17hfe0920529e87e64bE, symObjAddr: 0x16C8, symBinAddr: 0xC774, symSize: 0x10 }
  - { offset: 0x326E8, size: 0x8, addend: 0x0, symName: '__ZN64_$LT$core..str..error..Utf8Error$u20$as$u20$core..fmt..Debug$GT$3fmt17h6ed59e276a6cfbecE', symObjAddr: 0x5200, symBinAddr: 0xE4AC, symSize: 0x88 }
  - { offset: 0x32787, size: 0x8, addend: 0x0, symName: '__ZN4core5array4iter94_$LT$impl$u20$core..iter..traits..collect..IntoIterator$u20$for$u20$$u5b$T$u3b$$u20$N$u5d$$GT$9into_iter17h4e8f65033e2a2ed5E', symObjAddr: 0x1AEC, symBinAddr: 0xC964, symSize: 0x68 }
  - { offset: 0x328FC, size: 0x8, addend: 0x0, symName: '__ZN4pyo33gil13OWNED_OBJECTS29_$u7b$$u7b$constant$u7d$$u7d$28_$u7b$$u7b$closure$u7d$$u7d$23__RUST_STD_INTERNAL_VAL17h5a85641ce3e2e6dbE', symObjAddr: 0x7600, symBinAddr: 0x94E20, symSize: 0x0 }
  - { offset: 0x3290B, size: 0x8, addend: 0x0, symName: '__ZN4pyo33gil13OWNED_OBJECTS29_$u7b$$u7b$constant$u7d$$u7d$28_$u7b$$u7b$closure$u7d$$u7d$17ha2d46aac80d76d12E', symObjAddr: 0x2684, symBinAddr: 0xCB8C, symSize: 0x34 }
  - { offset: 0x32954, size: 0x8, addend: 0x0, symName: __ZN4pyo33gil4POOL17hd0c03592ef498362E, symObjAddr: 0x7660, symBinAddr: 0x94438, symSize: 0x0 }
  - { offset: 0x329C8, size: 0x8, addend: 0x0, symName: __ZN4pyo33gil5START17h8733e2fc6d003f40E, symObjAddr: 0x3AA00, symBinAddr: 0x950D8, symSize: 0x0 }
  - { offset: 0x329F1, size: 0x8, addend: 0x0, symName: '__ZN4pyo33gil9GIL_COUNT29_$u7b$$u7b$constant$u7d$$u7d$28_$u7b$$u7b$closure$u7d$$u7d$23__RUST_STD_INTERNAL_VAL17hd8167f605d449d62E', symObjAddr: 0x7630, symBinAddr: 0x94E38, symSize: 0x0 }
  - { offset: 0x32A00, size: 0x8, addend: 0x0, symName: '__ZN4pyo33gil9GIL_COUNT29_$u7b$$u7b$constant$u7d$$u7d$28_$u7b$$u7b$closure$u7d$$u7d$17hb39e6bb7733eafabE', symObjAddr: 0x31C8, symBinAddr: 0xD4D8, symSize: 0x30 }
  - { offset: 0x32A77, size: 0x8, addend: 0x0, symName: '__ZN60_$LT$pyo3..gil..GILPool$u20$as$u20$core..ops..drop..Drop$GT$4drop28_$u7b$$u7b$closure$u7d$$u7d$17he230cc4ab67a7289E', symObjAddr: 0x4EF8, symBinAddr: 0xE2C4, symSize: 0x100 }
  - { offset: 0x32ACD, size: 0x8, addend: 0x0, symName: '__ZN60_$LT$pyo3..gil..GILPool$u20$as$u20$core..ops..drop..Drop$GT$4drop17hf908e6f60df60daaE', symObjAddr: 0x4DE4, symBinAddr: 0xE1B0, symSize: 0x114 }
  - { offset: 0x32C0C, size: 0x8, addend: 0x0, symName: '__ZN4pyo33gil14register_owned28_$u7b$$u7b$closure$u7d$$u7d$17h5d29dfcad685feedE', symObjAddr: 0x2B5C, symBinAddr: 0xCFD8, symSize: 0x9C }
  - { offset: 0x32C54, size: 0x8, addend: 0x0, symName: '__ZN4pyo33gil15gil_is_acquired28_$u7b$$u7b$closure$u7d$$u7d$17hcf600f13e636c010E', symObjAddr: 0x2BF8, symBinAddr: 0xD074, symSize: 0x2C }
  - { offset: 0x32C97, size: 0x8, addend: 0x0, symName: '__ZN4pyo33gil19increment_gil_count28_$u7b$$u7b$closure$u7d$$u7d$17h8e615d73adeaf595E', symObjAddr: 0x2D90, symBinAddr: 0xD19C, symSize: 0x74 }
  - { offset: 0x32CF4, size: 0x8, addend: 0x0, symName: '__ZN4pyo33gil7GILPool3new28_$u7b$$u7b$closure$u7d$$u7d$17ha5a282d0394cb4a9E', symObjAddr: 0x2E94, symBinAddr: 0xD2A0, symSize: 0x94 }
  - { offset: 0x32D3B, size: 0x8, addend: 0x0, symName: '__ZN4pyo33gil19decrement_gil_count28_$u7b$$u7b$closure$u7d$$u7d$17hb5ff9133eb101589E', symObjAddr: 0x2D04, symBinAddr: 0xD110, symSize: 0x8C }
  - { offset: 0x32E19, size: 0x8, addend: 0x0, symName: __ZN4pyo33gil14register_owned17h7ff213a37c237e2fE, symObjAddr: 0x2AF4, symBinAddr: 0xCF70, symSize: 0x68 }
  - { offset: 0x32E73, size: 0x8, addend: 0x0, symName: __ZN4pyo33gil15register_decref17h6d61e00150557e19E, symObjAddr: 0x2C24, symBinAddr: 0xD0A0, symSize: 0x70 }
  - { offset: 0x32ED0, size: 0x8, addend: 0x0, symName: __ZN4pyo33gil27prepare_freethreaded_python17hb946b350334f7df0E, symObjAddr: 0x2E04, symBinAddr: 0xD210, symSize: 0x1C }
  - { offset: 0x32EEE, size: 0x8, addend: 0x0, symName: '__ZN4pyo33gil27prepare_freethreaded_python28_$u7b$$u7b$closure$u7d$$u7d$17hd6ecb448d67425d9E', symObjAddr: 0x2E20, symBinAddr: 0xD22C, symSize: 0x38 }
  - { offset: 0x32F88, size: 0x8, addend: 0x0, symName: '__ZN4pyo33gil8GILGuard7acquire28_$u7b$$u7b$closure$u7d$$u7d$17h204b1f9dd43ecf12E', symObjAddr: 0x3138, symBinAddr: 0xD448, symSize: 0x90 }
  - { offset: 0x33012, size: 0x8, addend: 0x0, symName: '__ZN61_$LT$pyo3..gil..GILGuard$u20$as$u20$core..ops..drop..Drop$GT$4drop17h222eaa0f3fa3ec6bE', symObjAddr: 0x5060, symBinAddr: 0xE3C4, symSize: 0x34 }
  - { offset: 0x33075, size: 0x8, addend: 0x0, symName: '__ZN72_$LT$pyo3..types..traceback..PyTraceback$u20$as$u20$core..fmt..Debug$GT$3fmt17h778046e6ee8220b2E', symObjAddr: 0x586C, symBinAddr: 0xE67C, symSize: 0xFC }
  - { offset: 0x330E7, size: 0x8, addend: 0x0, symName: '__ZN79_$LT$pyo3..types..traceback..PyTraceback$u20$as$u20$core..ops..deref..Deref$GT$5deref17h55e783203b6a2bf5E', symObjAddr: 0x5CC4, symBinAddr: 0xE7B8, symSize: 0x14 }
  - { offset: 0x33134, size: 0x8, addend: 0x0, symName: '__ZN4pyo35types6string146_$LT$impl$u20$core..convert..From$LT$$RF$pyo3..types..string..PyString$GT$$u20$for$u20$pyo3..instance..Py$LT$pyo3..types..string..PyString$GT$$GT$4from17h1d6fbde959368ff8E', symObjAddr: 0x333C, symBinAddr: 0xD540, symSize: 0x38 }
  - { offset: 0x33187, size: 0x8, addend: 0x0, symName: '__ZN4pyo35types10typeobject150_$LT$impl$u20$core..convert..From$LT$$RF$pyo3..types..typeobject..PyType$GT$$u20$for$u20$pyo3..instance..Py$LT$pyo3..types..typeobject..PyType$GT$$GT$4from17h56956feca7f50dc3E', symObjAddr: 0x31F8, symBinAddr: 0xD508, symSize: 0x38 }
  - { offset: 0x33219, size: 0x8, addend: 0x0, symName: '__ZN96_$LT$$RF$pyo3..types..iterator..PyIterator$u20$as$u20$core..iter..traits..iterator..Iterator$GT$4next17hdd589326d3717222E', symObjAddr: 0x6170, symBinAddr: 0xE910, symSize: 0xA0 }
  - { offset: 0x33392, size: 0x8, addend: 0x0, symName: '__ZN102_$LT$pyo3..instance..Py$LT$pyo3..types..any..PyAny$GT$$u20$as$u20$core..convert..From$LT$$RF$T$GT$$GT$4from17h1512362f0faeffb9E', symObjAddr: 0xC, symBinAddr: 0xBC54, symSize: 0x38 }
  - { offset: 0x333C9, size: 0x8, addend: 0x0, symName: '__ZN102_$LT$pyo3..instance..Py$LT$pyo3..types..any..PyAny$GT$$u20$as$u20$core..convert..From$LT$$RF$T$GT$$GT$4from17h894398cf3db9b1d0E', symObjAddr: 0x44, symBinAddr: 0xBC8C, symSize: 0x38 }
  - { offset: 0x33400, size: 0x8, addend: 0x0, symName: '__ZN102_$LT$pyo3..instance..Py$LT$pyo3..types..any..PyAny$GT$$u20$as$u20$core..convert..From$LT$$RF$T$GT$$GT$4from17h96a1ea7b1f7e0e0fE', symObjAddr: 0x7C, symBinAddr: 0xBCC4, symSize: 0x38 }
  - { offset: 0x33437, size: 0x8, addend: 0x0, symName: '__ZN102_$LT$pyo3..instance..Py$LT$pyo3..types..any..PyAny$GT$$u20$as$u20$core..convert..From$LT$$RF$T$GT$$GT$4from17hd27de38243634d58E', symObjAddr: 0x124, symBinAddr: 0xBCFC, symSize: 0x38 }
  - { offset: 0x336AB, size: 0x8, addend: 0x0, symName: '__ZN124_$LT$pyo3..instance..Py$LT$pyo3..types..any..PyAny$GT$$u20$as$u20$core..convert..From$LT$$RF$pyo3..types..any..PyAny$GT$$GT$4from17he68c9e36b2ae023cE', symObjAddr: 0x504, symBinAddr: 0xBFF0, symSize: 0x34 }
  - { offset: 0x336DF, size: 0x8, addend: 0x0, symName: '__ZN124_$LT$pyo3..instance..Py$LT$pyo3..types..any..PyAny$GT$$u20$as$u20$core..convert..From$LT$pyo3..instance..Py$LT$T$GT$$GT$$GT$4from17hf7ab3c3ec4f1e15eE', symObjAddr: 0x560, symBinAddr: 0xC024, symSize: 0x28 }
  - { offset: 0x3371C, size: 0x8, addend: 0x0, symName: '__ZN129_$LT$pyo3..instance..Py$LT$T$GT$$u20$as$u20$pyo3..conversion..IntoPy$LT$pyo3..instance..Py$LT$pyo3..types..any..PyAny$GT$$GT$$GT$7into_py17h2ef03850485fb190E', symObjAddr: 0x588, symBinAddr: 0xC04C, symSize: 0x28 }
  - { offset: 0x33B5E, size: 0x8, addend: 0x0, symName: '__ZN4pyo38instance11Py$LT$T$GT$21from_owned_ptr_or_opt28_$u7b$$u7b$closure$u7d$$u7d$17haa6a3f5bdfd0086eE', symObjAddr: 0x3F8C, symBinAddr: 0xD9D4, symSize: 0x14 }
  - { offset: 0x33BAD, size: 0x8, addend: 0x0, symName: '__ZN4pyo38instance11Py$LT$T$GT$24from_borrowed_ptr_or_opt28_$u7b$$u7b$closure$u7d$$u7d$17h6348b9f8d02c0e9aE', symObjAddr: 0x40D8, symBinAddr: 0xDAEC, symSize: 0x38 }
  - { offset: 0x33C13, size: 0x8, addend: 0x0, symName: '__ZN4pyo38instance11Py$LT$T$GT$24from_borrowed_ptr_or_opt28_$u7b$$u7b$closure$u7d$$u7d$17h65af251b892faef7E', symObjAddr: 0x4110, symBinAddr: 0xDB24, symSize: 0x38 }
  - { offset: 0x33C79, size: 0x8, addend: 0x0, symName: '__ZN4pyo38instance11Py$LT$T$GT$24from_borrowed_ptr_or_opt28_$u7b$$u7b$closure$u7d$$u7d$17h9a9a3669061dd95aE', symObjAddr: 0x4180, symBinAddr: 0xDB5C, symSize: 0x38 }
  - { offset: 0x33CDF, size: 0x8, addend: 0x0, symName: '__ZN4pyo38instance11Py$LT$T$GT$24from_borrowed_ptr_or_opt28_$u7b$$u7b$closure$u7d$$u7d$17hcf0a3ae991542a07E', symObjAddr: 0x41B8, symBinAddr: 0xDB94, symSize: 0x38 }
  - { offset: 0x33D45, size: 0x8, addend: 0x0, symName: '__ZN4pyo38instance11Py$LT$T$GT$24from_borrowed_ptr_or_opt28_$u7b$$u7b$closure$u7d$$u7d$17hea6939ff9971f9e6E', symObjAddr: 0x41F0, symBinAddr: 0xDBCC, symSize: 0x38 }
  - { offset: 0x33DB2, size: 0x8, addend: 0x0, symName: '__ZN69_$LT$pyo3..instance..Py$LT$T$GT$$u20$as$u20$core..ops..drop..Drop$GT$4drop17h429169126e4c8f73E', symObjAddr: 0x52FC, symBinAddr: 0xE574, symSize: 0x28 }
  - { offset: 0x33DE5, size: 0x8, addend: 0x0, symName: '__ZN69_$LT$pyo3..instance..Py$LT$T$GT$$u20$as$u20$core..ops..drop..Drop$GT$4drop17h4a37f99c886b3c59E', symObjAddr: 0x5324, symBinAddr: 0xE59C, symSize: 0x28 }
  - { offset: 0x33E18, size: 0x8, addend: 0x0, symName: '__ZN69_$LT$pyo3..instance..Py$LT$T$GT$$u20$as$u20$core..ops..drop..Drop$GT$4drop17h789870cc25a84ea8E', symObjAddr: 0x539C, symBinAddr: 0xE5C4, symSize: 0x28 }
  - { offset: 0x33E4B, size: 0x8, addend: 0x0, symName: '__ZN69_$LT$pyo3..instance..Py$LT$T$GT$$u20$as$u20$core..ops..drop..Drop$GT$4drop17hef544f6d3a6d73c8E', symObjAddr: 0x5464, symBinAddr: 0xE5EC, symSize: 0x28 }
  - { offset: 0x33E7E, size: 0x8, addend: 0x0, symName: '__ZN69_$LT$pyo3..instance..Py$LT$T$GT$$u20$as$u20$core..ops..drop..Drop$GT$4drop17hf36bf3ee64cf5df0E', symObjAddr: 0x548C, symBinAddr: 0xE614, symSize: 0x28 }
  - { offset: 0x33EB1, size: 0x8, addend: 0x0, symName: '__ZN69_$LT$pyo3..instance..Py$LT$T$GT$$u20$as$u20$core..ops..drop..Drop$GT$4drop17hfadec4b93e05be09E', symObjAddr: 0x54B4, symBinAddr: 0xE63C, symSize: 0x28 }
  - { offset: 0x33EEA, size: 0x8, addend: 0x0, symName: '__ZN76_$LT$pyo3..instance..Py$LT$T$GT$$u20$as$u20$pyo3..conversion..ToPyObject$GT$9to_object17h5ff2018908462bfcE', symObjAddr: 0x5C0C, symBinAddr: 0xE790, symSize: 0x28 }
  - { offset: 0x33F48, size: 0x8, addend: 0x0, symName: __ZN4pyo310conversion13FromPyPointer21from_owned_ptr_or_err17hf425082a3044f988E, symObjAddr: 0x1C50, symBinAddr: 0xC9E4, symSize: 0x34 }
  - { offset: 0x33FA0, size: 0x8, addend: 0x0, symName: '__ZN53_$LT$T$u20$as$u20$pyo3..conversion..FromPyPointer$GT$21from_owned_ptr_or_opt17h6802e4764f8dbbadE', symObjAddr: 0x4C34, symBinAddr: 0xE024, symSize: 0xB4 }
  - { offset: 0x34010, size: 0x8, addend: 0x0, symName: '__ZN53_$LT$T$u20$as$u20$pyo3..conversion..FromPyPointer$GT$21from_owned_ptr_or_opt17h850ae4c9ef48d478E', symObjAddr: 0x4CE8, symBinAddr: 0xE0D8, symSize: 0xB4 }
  - { offset: 0x3408C, size: 0x8, addend: 0x0, symName: '__ZN4pyo310exceptions154_$LT$impl$u20$core..convert..From$LT$$RF$pyo3..exceptions..PyBaseException$GT$$u20$for$u20$pyo3..instance..Py$LT$pyo3..exceptions..PyBaseException$GT$$GT$4from17h99bddad2c4ffbb84E', symObjAddr: 0x1CB8, symBinAddr: 0xCA18, symSize: 0x38 }
  - { offset: 0x340E3, size: 0x8, addend: 0x0, symName: '__ZN4pyo311conversions3std6string119_$LT$impl$u20$pyo3..conversion..IntoPy$LT$pyo3..instance..Py$LT$pyo3..types..any..PyAny$GT$$GT$$u20$for$u20$$RF$str$GT$7into_py17h3639b029bd297d01E', symObjAddr: 0x22A0, symBinAddr: 0xCA50, symSize: 0x34 }
  - { offset: 0x3412E, size: 0x8, addend: 0x0, symName: '__ZN4pyo311conversions3std6string125_$LT$impl$u20$pyo3..conversion..IntoPy$LT$pyo3..instance..Py$LT$pyo3..types..string..PyString$GT$$GT$$u20$for$u20$$RF$str$GT$7into_py17h546de94eb257abcfE', symObjAddr: 0x22D4, symBinAddr: 0xCA84, symSize: 0x34 }
  - { offset: 0x34179, size: 0x8, addend: 0x0, symName: '__ZN4pyo311conversions3std6string62_$LT$impl$u20$pyo3..conversion..ToPyObject$u20$for$u20$str$GT$9to_object17he417e8f2315abe4eE', symObjAddr: 0x2308, symBinAddr: 0xCAB8, symSize: 0x34 }
  - { offset: 0x341C4, size: 0x8, addend: 0x0, symName: '__ZN4pyo311conversions3std6string68_$LT$impl$u20$pyo3..conversion..FromPyObject$u20$for$u20$$RF$str$GT$7extract17ha84419382ff83315E', symObjAddr: 0x2520, symBinAddr: 0xCAEC, symSize: 0xA0 }
  - { offset: 0x342A6, size: 0x8, addend: 0x0, symName: '__ZN58_$LT$T$u20$as$u20$pyo3..err..err_state..PyErrArguments$GT$9arguments17h724d322055f16cf2E', symObjAddr: 0x4D9C, symBinAddr: 0xE18C, symSize: 0x24 }
  - { offset: 0x34848, size: 0x8, addend: 0x0, symName: __ZN8pyo3_ffi6object10_Py_NewRef17h6ab8bd0b55c26e29E, symObjAddr: 0x5EFC, symBinAddr: 0xE7CC, symSize: 0x34 }
  - { offset: 0x34894, size: 0x8, addend: 0x0, symName: __ZN8pyo3_ffi6object12PyType_Check17h2992185783959b76E, symObjAddr: 0x5F30, symBinAddr: 0xE800, symSize: 0x30 }
  - { offset: 0x348C2, size: 0x8, addend: 0x0, symName: __ZN8pyo3_ffi6object17PyType_HasFeature17h308f6e544758e3d5E, symObjAddr: 0x5F60, symBinAddr: 0xE830, symSize: 0x38 }
  - { offset: 0x348FF, size: 0x8, addend: 0x0, symName: __ZN8pyo3_ffi6object19PyType_FastSubclass17h0257dec415114539E, symObjAddr: 0x6018, symBinAddr: 0xE868, symSize: 0x28 }
  - { offset: 0x3493C, size: 0x8, addend: 0x0, symName: __ZN8pyo3_ffi6object7Py_None17ha12998196aee8700E, symObjAddr: 0x6040, symBinAddr: 0xE890, symSize: 0xC }
  - { offset: 0x3495A, size: 0x8, addend: 0x0, symName: __ZN8pyo3_ffi6object7Py_TYPE17hc005b547ebf2e58eE, symObjAddr: 0x604C, symBinAddr: 0xE89C, symSize: 0x74 }
  - { offset: 0x34C36, size: 0x8, addend: 0x0, symName: __ZN15portable_atomic3imp11core_atomic9AtomicI6416compare_exchange17hc83c6ecf5c022249E, symObjAddr: 0x5B0, symBinAddr: 0xC074, symSize: 0x74 }
  - { offset: 0x34D2D, size: 0x8, addend: 0x0, symName: '__ZN3std6thread5local17LocalKey$LT$T$GT$4with17h736ea4b07b89b15cE', symObjAddr: 0x6F4, symBinAddr: 0xC0E8, symSize: 0x70 }
  - { offset: 0x34E00, size: 0x8, addend: 0x0, symName: '__ZN3std6thread5local17LocalKey$LT$T$GT$8try_with17h425cf56887f81a4bE', symObjAddr: 0x930, symBinAddr: 0xC158, symSize: 0xD8 }
  - { offset: 0x34F89, size: 0x8, addend: 0x0, symName: '__ZN3std6thread5local17LocalKey$LT$T$GT$8try_with17h67339bfaf7545a2bE', symObjAddr: 0xA08, symBinAddr: 0xC230, symSize: 0xD0 }
  - { offset: 0x3510B, size: 0x8, addend: 0x0, symName: '__ZN3std6thread5local17LocalKey$LT$T$GT$8try_with17h94a6a4dd32e695a6E', symObjAddr: 0xAD8, symBinAddr: 0xC300, symSize: 0xCC }
  - { offset: 0x3528C, size: 0x8, addend: 0x0, symName: '__ZN3std6thread5local17LocalKey$LT$T$GT$8try_with17h95393da873435371E', symObjAddr: 0xBA4, symBinAddr: 0xC3CC, symSize: 0xD8 }
  - { offset: 0x3540E, size: 0x8, addend: 0x0, symName: '__ZN3std6thread5local17LocalKey$LT$T$GT$8try_with17h99c3978cf6f1c2d9E', symObjAddr: 0xC7C, symBinAddr: 0xC4A4, symSize: 0xCC }
  - { offset: 0x3558F, size: 0x8, addend: 0x0, symName: '__ZN3std6thread5local17LocalKey$LT$T$GT$8try_with17hc7ea81d9fbca01ccE', symObjAddr: 0xEF8, symBinAddr: 0xC570, symSize: 0xEC }
  - { offset: 0x35754, size: 0x8, addend: 0x0, symName: '__ZN4core4cell13Cell$LT$T$GT$3get17had543fd2b66a1e76E', symObjAddr: 0x1744, symBinAddr: 0xC79C, symSize: 0x18 }
  - { offset: 0x357A8, size: 0x8, addend: 0x0, symName: '__ZN4core4cell13Cell$LT$T$GT$3set17h4ba2f640ae2dcf54E', symObjAddr: 0x1774, symBinAddr: 0xC7B4, symSize: 0x1C }
  - { offset: 0x3591B, size: 0x8, addend: 0x0, symName: '__ZN4core4cell16RefCell$LT$T$GT$10borrow_mut17h6bf854705fc8ed51E', symObjAddr: 0x17D0, symBinAddr: 0xC7D0, symSize: 0xAC }
  - { offset: 0x35B1E, size: 0x8, addend: 0x0, symName: '__ZN4core4cell16RefCell$LT$T$GT$6borrow17h9b549c209be0fd45E', symObjAddr: 0x1928, symBinAddr: 0xC87C, symSize: 0xC0 }
  - { offset: 0x35D32, size: 0x8, addend: 0x0, symName: __ZN4pyo33gil13ReferencePool13update_counts17h6f85665f8a50f58cE, symObjAddr: 0x26B8, symBinAddr: 0xCBC0, symSize: 0x320 }
  - { offset: 0x35E84, size: 0x8, addend: 0x0, symName: __ZN4pyo33gil13ReferencePool15register_decref17hb9b9e10ac9a83f13E, symObjAddr: 0x29D8, symBinAddr: 0xCEE0, symSize: 0x90 }
  - { offset: 0x35EB6, size: 0x8, addend: 0x0, symName: __ZN4pyo33gil7GILPool3new17he616e035988a18f5E, symObjAddr: 0x2E58, symBinAddr: 0xD264, symSize: 0x3C }
  - { offset: 0x35EEC, size: 0x8, addend: 0x0, symName: __ZN4pyo33gil7LockGIL4bail17h9915dd62b4bd9ffcE, symObjAddr: 0x2FC8, symBinAddr: 0x597F8, symSize: 0x5C }
  - { offset: 0x35F0F, size: 0x8, addend: 0x0, symName: __ZN4pyo33gil8GILGuard17acquire_unchecked17h8a1e94b066ca1ff7E, symObjAddr: 0x3024, symBinAddr: 0xD334, symSize: 0x94 }
  - { offset: 0x35F71, size: 0x8, addend: 0x0, symName: __ZN4pyo33gil8GILGuard7acquire17h089c123673b8b7edE, symObjAddr: 0x30B8, symBinAddr: 0xD3C8, symSize: 0x80 }
  - { offset: 0x35FFB, size: 0x8, addend: 0x0, symName: __ZN4pyo35types8iterator10PyIterator11from_object17h824d01eadfd6449cE, symObjAddr: 0x3414, symBinAddr: 0xD578, symSize: 0x40 }
  - { offset: 0x3602A, size: 0x8, addend: 0x0, symName: '__ZN4pyo38instance11Py$LT$T$GT$13from_non_null17h0e8d829cfb954568E', symObjAddr: 0x39AC, symBinAddr: 0xD5B8, symSize: 0x14 }
  - { offset: 0x36056, size: 0x8, addend: 0x0, symName: '__ZN4pyo38instance11Py$LT$T$GT$13into_non_null17h844129810e73f248E', symObjAddr: 0x39C0, symBinAddr: 0xD5CC, symSize: 0x34 }
  - { offset: 0x360A0, size: 0x8, addend: 0x0, symName: '__ZN4pyo38instance11Py$LT$T$GT$13into_non_null17he42c805ec3f8668eE', symObjAddr: 0x3A28, symBinAddr: 0xD600, symSize: 0x34 }
  - { offset: 0x360EA, size: 0x8, addend: 0x0, symName: '__ZN4pyo38instance11Py$LT$T$GT$14from_owned_ptr17h63e74110a62fa8b0E', symObjAddr: 0x3AA4, symBinAddr: 0xD634, symSize: 0x48 }
  - { offset: 0x36131, size: 0x8, addend: 0x0, symName: '__ZN4pyo38instance11Py$LT$T$GT$14from_owned_ptr17h8308785077889d1dE', symObjAddr: 0x3AEC, symBinAddr: 0xD67C, symSize: 0x48 }
  - { offset: 0x36178, size: 0x8, addend: 0x0, symName: '__ZN4pyo38instance11Py$LT$T$GT$17from_borrowed_ptr17h1d174bbdcbe6d148E', symObjAddr: 0x3B34, symBinAddr: 0xD6C4, symSize: 0x48 }
  - { offset: 0x361BF, size: 0x8, addend: 0x0, symName: '__ZN4pyo38instance11Py$LT$T$GT$17from_borrowed_ptr17h3d602f50f1df3757E', symObjAddr: 0x3B7C, symBinAddr: 0xD70C, symSize: 0x48 }
  - { offset: 0x36206, size: 0x8, addend: 0x0, symName: '__ZN4pyo38instance11Py$LT$T$GT$17from_borrowed_ptr17h789df6a879b95ab3E', symObjAddr: 0x3C0C, symBinAddr: 0xD754, symSize: 0x48 }
  - { offset: 0x3624D, size: 0x8, addend: 0x0, symName: '__ZN4pyo38instance11Py$LT$T$GT$17from_borrowed_ptr17h921d34fb521d4356E', symObjAddr: 0x3C54, symBinAddr: 0xD79C, symSize: 0x48 }
  - { offset: 0x36294, size: 0x8, addend: 0x0, symName: '__ZN4pyo38instance11Py$LT$T$GT$17from_borrowed_ptr17h93309ec65913d693E', symObjAddr: 0x3C9C, symBinAddr: 0xD7E4, symSize: 0x48 }
  - { offset: 0x362DB, size: 0x8, addend: 0x0, symName: '__ZN4pyo38instance11Py$LT$T$GT$21from_owned_ptr_or_err17h042e8e4c508a19caE', symObjAddr: 0x3CE4, symBinAddr: 0xD82C, symSize: 0x80 }
  - { offset: 0x36340, size: 0x8, addend: 0x0, symName: '__ZN4pyo38instance11Py$LT$T$GT$21from_owned_ptr_or_err17h6e3e708664c39a4aE', symObjAddr: 0x3DE4, symBinAddr: 0xD8AC, symSize: 0x80 }
  - { offset: 0x363A5, size: 0x8, addend: 0x0, symName: '__ZN4pyo38instance11Py$LT$T$GT$21from_owned_ptr_or_err17ha550bd271f80fd27E', symObjAddr: 0x3EE4, symBinAddr: 0xD92C, symSize: 0x80 }
  - { offset: 0x3640A, size: 0x8, addend: 0x0, symName: '__ZN4pyo38instance11Py$LT$T$GT$21from_owned_ptr_or_opt17ha393fa82252fc0e7E', symObjAddr: 0x3F64, symBinAddr: 0xD9AC, symSize: 0x28 }
  - { offset: 0x36451, size: 0x8, addend: 0x0, symName: '__ZN4pyo38instance11Py$LT$T$GT$24from_borrowed_ptr_or_opt17h2748d709bad6e3a7E', symObjAddr: 0x3FA0, symBinAddr: 0xD9E8, symSize: 0x34 }
  - { offset: 0x36498, size: 0x8, addend: 0x0, symName: '__ZN4pyo38instance11Py$LT$T$GT$24from_borrowed_ptr_or_opt17h505fc74fc9c73b7aE', symObjAddr: 0x3FD4, symBinAddr: 0xDA1C, symSize: 0x34 }
  - { offset: 0x364DF, size: 0x8, addend: 0x0, symName: '__ZN4pyo38instance11Py$LT$T$GT$24from_borrowed_ptr_or_opt17h72c01a3c311d2f4cE', symObjAddr: 0x403C, symBinAddr: 0xDA50, symSize: 0x34 }
  - { offset: 0x36526, size: 0x8, addend: 0x0, symName: '__ZN4pyo38instance11Py$LT$T$GT$24from_borrowed_ptr_or_opt17h8c54e83593787edbE', symObjAddr: 0x4070, symBinAddr: 0xDA84, symSize: 0x34 }
  - { offset: 0x3656D, size: 0x8, addend: 0x0, symName: '__ZN4pyo38instance11Py$LT$T$GT$24from_borrowed_ptr_or_opt17he64e92faad5015b3E', symObjAddr: 0x40A4, symBinAddr: 0xDAB8, symSize: 0x34 }
  - { offset: 0x365CE, size: 0x8, addend: 0x0, symName: '__ZN4pyo38instance11Py$LT$T$GT$6as_ptr17h548166c52a358838E', symObjAddr: 0x4298, symBinAddr: 0xDC04, symSize: 0x1C }
  - { offset: 0x36607, size: 0x8, addend: 0x0, symName: '__ZN4pyo38instance11Py$LT$T$GT$6as_ptr17h75813f5776b217a4E', symObjAddr: 0x42B4, symBinAddr: 0xDC20, symSize: 0x1C }
  - { offset: 0x36640, size: 0x8, addend: 0x0, symName: '__ZN4pyo38instance11Py$LT$T$GT$6as_ptr17hc4794b08699a89ddE', symObjAddr: 0x4308, symBinAddr: 0xDC3C, symSize: 0x1C }
  - { offset: 0x36679, size: 0x8, addend: 0x0, symName: '__ZN4pyo38instance11Py$LT$T$GT$6as_ptr17hc8c098b2ac6197bbE', symObjAddr: 0x4324, symBinAddr: 0xDC58, symSize: 0x1C }
  - { offset: 0x366B2, size: 0x8, addend: 0x0, symName: '__ZN4pyo38instance11Py$LT$T$GT$6as_ptr17he44a51c029173b8fE', symObjAddr: 0x435C, symBinAddr: 0xDC74, symSize: 0x1C }
  - { offset: 0x366EB, size: 0x8, addend: 0x0, symName: '__ZN4pyo38instance11Py$LT$T$GT$6as_ref17h0c5f19e162441102E', symObjAddr: 0x43F0, symBinAddr: 0xDC90, symSize: 0x78 }
  - { offset: 0x36755, size: 0x8, addend: 0x0, symName: '__ZN4pyo38instance11Py$LT$T$GT$6as_ref17h162dba9da25715e5E', symObjAddr: 0x4468, symBinAddr: 0xDD08, symSize: 0x78 }
  - { offset: 0x367BF, size: 0x8, addend: 0x0, symName: '__ZN4pyo38instance11Py$LT$T$GT$6as_ref17ha64ddc61fd5d7f15E', symObjAddr: 0x44E0, symBinAddr: 0xDD80, symSize: 0x78 }
  - { offset: 0x36829, size: 0x8, addend: 0x0, symName: '__ZN4pyo38instance11Py$LT$T$GT$6as_ref17hbb9ea3457597235fE', symObjAddr: 0x4558, symBinAddr: 0xDDF8, symSize: 0x78 }
  - { offset: 0x36886, size: 0x8, addend: 0x0, symName: '__ZN4pyo38instance11Py$LT$T$GT$8into_ptr17h00a753e895908aabE', symObjAddr: 0x47C4, symBinAddr: 0xDE70, symSize: 0x88 }
  - { offset: 0x368EE, size: 0x8, addend: 0x0, symName: '__ZN4pyo38instance11Py$LT$T$GT$8into_ptr17h4ce4fd8912adf23fE', symObjAddr: 0x48D4, symBinAddr: 0xDEF8, symSize: 0x88 }
  - { offset: 0x36956, size: 0x8, addend: 0x0, symName: '__ZN4pyo38instance11Py$LT$T$GT$8into_ref17hedfa4f53ec6574b6E', symObjAddr: 0x4A6C, symBinAddr: 0xDF80, symSize: 0x28 }
  - { offset: 0x3699D, size: 0x8, addend: 0x0, symName: '__ZN4pyo38instance11Py$LT$T$GT$9clone_ref17h32fdab700cdf67f0E', symObjAddr: 0x4A94, symBinAddr: 0xDFA8, symSize: 0x2C }
  - { offset: 0x369E4, size: 0x8, addend: 0x0, symName: '__ZN4pyo38instance11Py$LT$T$GT$9clone_ref17h8308883518e48e6fE', symObjAddr: 0x4AC0, symBinAddr: 0xDFD4, symSize: 0x2C }
  - { offset: 0x36F3F, size: 0x8, addend: 0x0, symName: '__ZN64_$LT$alloc..ffi..c_str..NulError$u20$as$u20$core..fmt..Debug$GT$3fmt17he95b3bbbdabb665cE', symObjAddr: 0x4E88, symBinAddr: 0xF860, symSize: 0x5C }
  - { offset: 0x36F7F, size: 0x8, addend: 0x0, symName: '__ZN68_$LT$alloc..ffi..c_str..CString$u20$as$u20$core..ops..drop..Drop$GT$4drop17ha29529e3447e0ffdE', symObjAddr: 0x5254, symBinAddr: 0xF8BC, symSize: 0x70 }
  - { offset: 0x36FEB, size: 0x8, addend: 0x0, symName: '__ZN70_$LT$alloc..ffi..c_str..CString$u20$as$u20$core..ops..deref..Deref$GT$5deref17h203bf3f4e920f4b3E', symObjAddr: 0x53C0, symBinAddr: 0xF92C, symSize: 0x20 }
  - { offset: 0x37079, size: 0x8, addend: 0x0, symName: '__ZN97_$LT$alloc..ffi..c_str..CString$u20$as$u20$core..borrow..Borrow$LT$core..ffi..c_str..CStr$GT$$GT$6borrow17h846c9cb44f406eefE', symObjAddr: 0x7794, symBinAddr: 0xF990, symSize: 0x20 }
  - { offset: 0x3779B, size: 0x8, addend: 0x0, symName: '__ZN102_$LT$core..iter..adapters..zip..Zip$LT$A$C$B$GT$$u20$as$u20$core..iter..traits..iterator..Iterator$GT$4next17haf50b6f972e2f0cfE', symObjAddr: 0x88, symBinAddr: 0xE9B0, symSize: 0x24 }
  - { offset: 0x377D9, size: 0x8, addend: 0x0, symName: '__ZN102_$LT$core..iter..adapters..zip..Zip$LT$A$C$B$GT$$u20$as$u20$core..iter..traits..iterator..Iterator$GT$4next17he1621bb7221343eeE', symObjAddr: 0xAC, symBinAddr: 0xE9D4, symSize: 0x24 }
  - { offset: 0x37817, size: 0x8, addend: 0x0, symName: '__ZN102_$LT$core..iter..adapters..zip..Zip$LT$A$C$B$GT$$u20$as$u20$core..iter..traits..iterator..Iterator$GT$9size_hint17hb47b61fc6d44c2f4E', symObjAddr: 0xF4, symBinAddr: 0xE9F8, symSize: 0x24 }
  - { offset: 0x37855, size: 0x8, addend: 0x0, symName: '__ZN102_$LT$core..iter..adapters..zip..Zip$LT$A$C$B$GT$$u20$as$u20$core..iter..traits..iterator..Iterator$GT$9size_hint17hd2cca0766e3b038fE', symObjAddr: 0x118, symBinAddr: 0xEA1C, symSize: 0x24 }
  - { offset: 0x37899, size: 0x8, addend: 0x0, symName: '__ZN111_$LT$core..iter..adapters..zip..Zip$LT$A$C$B$GT$$u20$as$u20$core..iter..adapters..zip..ZipImpl$LT$A$C$B$GT$$GT$3new17hf44a981104f34732E', symObjAddr: 0x40C, symBinAddr: 0xEA7C, symSize: 0xBC }
  - { offset: 0x3792C, size: 0x8, addend: 0x0, symName: '__ZN111_$LT$core..iter..adapters..zip..Zip$LT$A$C$B$GT$$u20$as$u20$core..iter..adapters..zip..ZipImpl$LT$A$C$B$GT$$GT$4next17h441571fae5247e02E', symObjAddr: 0x4C8, symBinAddr: 0xEB38, symSize: 0xB0 }
  - { offset: 0x37982, size: 0x8, addend: 0x0, symName: '__ZN111_$LT$core..iter..adapters..zip..Zip$LT$A$C$B$GT$$u20$as$u20$core..iter..adapters..zip..ZipImpl$LT$A$C$B$GT$$GT$9size_hint17h8408a405e078e366E', symObjAddr: 0x88C, symBinAddr: 0xEDF4, symSize: 0x34 }
  - { offset: 0x379C8, size: 0x8, addend: 0x0, symName: '__ZN111_$LT$core..iter..adapters..zip..Zip$LT$A$C$B$GT$$u20$as$u20$core..iter..adapters..zip..ZipImpl$LT$A$C$B$GT$$GT$3new17h2c339077fb152381E', symObjAddr: 0x3D0, symBinAddr: 0xEA40, symSize: 0x3C }
  - { offset: 0x37A14, size: 0x8, addend: 0x0, symName: '__ZN111_$LT$core..iter..adapters..zip..Zip$LT$A$C$B$GT$$u20$as$u20$core..iter..adapters..zip..ZipImpl$LT$A$C$B$GT$$GT$4next17h4c382002d6f65a6dE', symObjAddr: 0x578, symBinAddr: 0xEBE8, symSize: 0xE0 }
  - { offset: 0x37B75, size: 0x8, addend: 0x0, symName: '__ZN111_$LT$core..iter..adapters..zip..Zip$LT$A$C$B$GT$$u20$as$u20$core..iter..adapters..zip..ZipImpl$LT$A$C$B$GT$$GT$9size_hint17h0c1de5afe920cbc5E', symObjAddr: 0x760, symBinAddr: 0xECC8, symSize: 0x12C }
  - { offset: 0x37E8E, size: 0x8, addend: 0x0, symName: __ZN4core4iter6traits8iterator8Iterator10filter_map17h14ee3f6008fe021bE, symObjAddr: 0x1B10, symBinAddr: 0xEF24, symSize: 0x30 }
  - { offset: 0x37EFC, size: 0x8, addend: 0x0, symName: __ZN4core4iter6traits8iterator8Iterator10filter_map17h5bc95d374452f1cdE, symObjAddr: 0x1B40, symBinAddr: 0xEF54, symSize: 0x30 }
  - { offset: 0x37F6A, size: 0x8, addend: 0x0, symName: __ZN4core4iter6traits8iterator8Iterator8find_map17h870496df5a4890fcE, symObjAddr: 0x1C2C, symBinAddr: 0xEF84, symSize: 0x8C }
  - { offset: 0x37FF2, size: 0x8, addend: 0x0, symName: __ZN4core4iter6traits8iterator8Iterator8find_map17hdd430575e5c773e7E, symObjAddr: 0x1CB8, symBinAddr: 0xF010, symSize: 0x8C }
  - { offset: 0x3807A, size: 0x8, addend: 0x0, symName: __ZN4core4iter6traits8iterator8Iterator8try_fold17h2f87a8f7670708b6E, symObjAddr: 0x1D44, symBinAddr: 0xF09C, symSize: 0x190 }
  - { offset: 0x38130, size: 0x8, addend: 0x0, symName: __ZN4core4iter6traits8iterator8Iterator8try_fold17h3d9012f11150f941E, symObjAddr: 0x1ED4, symBinAddr: 0xF22C, symSize: 0x190 }
  - { offset: 0x38C54, size: 0x8, addend: 0x0, symName: '__ZN4pyo35types5tuple125_$LT$impl$u20$pyo3..conversion..IntoPy$LT$pyo3..instance..Py$LT$pyo3..types..any..PyAny$GT$$GT$$u20$for$u20$$LP$T0$C$$RP$$GT$7into_py17h5c3889e24849541bE', symObjAddr: 0x4028, symBinAddr: 0xF4B4, symSize: 0x48 }
  - { offset: 0x38DBA, size: 0x8, addend: 0x0, symName: __ZN4pyo35types5tuple16array_into_tuple17h133ac8a73ec5117eE, symObjAddr: 0x413C, symBinAddr: 0xF558, symSize: 0x1E4 }
  - { offset: 0x38E75, size: 0x8, addend: 0x0, symName: '__ZN71_$LT$pyo3..types..tuple..PyTuple$u20$as$u20$core..ops..deref..Deref$GT$5deref17h9742d550b1d39d7eE', symObjAddr: 0x5654, symBinAddr: 0xF94C, symSize: 0x14 }
  - { offset: 0x38F75, size: 0x8, addend: 0x0, symName: __ZN4pyo35impl_10trampoline33panic_result_into_callback_output17h5eb517139cb9fc14E, symObjAddr: 0x3E2C, symBinAddr: 0xF3BC, symSize: 0xF8 }
  - { offset: 0x39182, size: 0x8, addend: 0x0, symName: __ZN8pyo3_ffi13unicodeobject15PyUnicode_Check17hb8c96cd418e7b4d9E, symObjAddr: 0x75CC, symBinAddr: 0xF960, symSize: 0x30 }
  - { offset: 0x3927B, size: 0x8, addend: 0x0, symName: __ZN3std3sys12thread_local20abort_on_dtor_unwind17hfcb5b762db324a97E, symObjAddr: 0xB34, symBinAddr: 0xEE28, symSize: 0x50 }
  - { offset: 0x39469, size: 0x8, addend: 0x0, symName: __ZN4core3ffi5c_str4CStr29from_bytes_with_nul_unchecked17h9f0f7b97003e7481E, symObjAddr: 0x19F0, symBinAddr: 0xEE78, symSize: 0x18 }
  - { offset: 0x39499, size: 0x8, addend: 0x0, symName: __ZN4core3ffi5c_str4CStr6as_ptr17h78330665d14e3bf4E, symObjAddr: 0x1A08, symBinAddr: 0xEE90, symSize: 0x18 }
  - { offset: 0x394DA, size: 0x8, addend: 0x0, symName: __ZN4core3ffi5c_str4CStr8from_ptr17h09d00e1547fced59E, symObjAddr: 0x1A20, symBinAddr: 0xEEA8, symSize: 0x7C }
  - { offset: 0x396C8, size: 0x8, addend: 0x0, symName: __ZN4pyo35types5tuple15PyTupleIterator8get_item17h3475d6fdf20845ccE, symObjAddr: 0x40E0, symBinAddr: 0xF4FC, symSize: 0x5C }
  - { offset: 0x39705, size: 0x8, addend: 0x0, symName: __ZN4pyo35types5tuple7PyTuple3len17h3913bc18dfbc4de2E, symObjAddr: 0x45E0, symBinAddr: 0xF73C, symSize: 0x30 }
  - { offset: 0x39727, size: 0x8, addend: 0x0, symName: __ZN4pyo35types5tuple7PyTuple4iter17h659618ebdc883d81E, symObjAddr: 0x4610, symBinAddr: 0xF76C, symSize: 0x40 }
  - { offset: 0x39756, size: 0x8, addend: 0x0, symName: __ZN4pyo35types5tuple7PyTuple8get_item17h02fe4879d6d967b5E, symObjAddr: 0x46C4, symBinAddr: 0xF7AC, symSize: 0x64 }
  - { offset: 0x397C8, size: 0x8, addend: 0x0, symName: __ZN5alloc3ffi5c_str7CString3new17h37b09992030bc6d2E, symObjAddr: 0x4DF4, symBinAddr: 0xF810, symSize: 0x28 }
  - { offset: 0x397F4, size: 0x8, addend: 0x0, symName: __ZN5alloc3ffi5c_str7CString3new17hfd7f875a066f6787E, symObjAddr: 0x4E30, symBinAddr: 0xF838, symSize: 0x28 }
  - { offset: 0x399F0, size: 0x8, addend: 0x0, symName: '__ZN11parking_lot4once4Once15call_once_force28_$u7b$$u7b$closure$u7d$$u7d$17h36a97a01837a262aE', symObjAddr: 0x1E8, symBinAddr: 0xFB5C, symSize: 0x3C }
  - { offset: 0x39A32, size: 0x8, addend: 0x0, symName: '__ZN11parking_lot4once4Once15call_once_force28_$u7b$$u7b$closure$u7d$$u7d$17he988e2c089624145E', symObjAddr: 0x224, symBinAddr: 0xFB98, symSize: 0x3C }
  - { offset: 0x3A2D0, size: 0x8, addend: 0x0, symName: __ZN4core4sync6atomic23atomic_compare_exchange17h2b212c03c41f1cd0E, symObjAddr: 0x6E8, symBinAddr: 0xFC44, symSize: 0x4B4 }
  - { offset: 0x3A3FA, size: 0x8, addend: 0x0, symName: '__ZN4core3ops8function5impls79_$LT$impl$u20$core..ops..function..FnMut$LT$A$GT$$u20$for$u20$$RF$mut$u20$F$GT$8call_mut17hd1f0d6b302bfe8a7E', symObjAddr: 0x678, symBinAddr: 0xFBD4, symSize: 0x38 }
  - { offset: 0x3A449, size: 0x8, addend: 0x0, symName: '__ZN4core3ops8function5impls79_$LT$impl$u20$core..ops..function..FnMut$LT$A$GT$$u20$for$u20$$RF$mut$u20$F$GT$8call_mut17hdffabf357a5285b1E', symObjAddr: 0x6B0, symBinAddr: 0xFC0C, symSize: 0x38 }
  - { offset: 0x3A6D5, size: 0x8, addend: 0x0, symName: '__ZN4core5slice29_$LT$impl$u20$$u5b$T$u5d$$GT$4iter17hd181cd87cfdf6a7aE', symObjAddr: 0xD20, symBinAddr: 0x101B4, symSize: 0x28 }
  - { offset: 0x3A907, size: 0x8, addend: 0x0, symName: '__ZN50_$LT$T$u20$as$u20$core..convert..Into$LT$U$GT$$GT$4into17h3df70c379943006fE', symObjAddr: 0x3884, symBinAddr: 0x106C0, symSize: 0x14 }
  - { offset: 0x3A948, size: 0x8, addend: 0x0, symName: '__ZN50_$LT$T$u20$as$u20$core..convert..Into$LT$U$GT$$GT$4into17hf0922f9e87da810cE', symObjAddr: 0x3898, symBinAddr: 0x106D4, symSize: 0x24 }
  - { offset: 0x3AADF, size: 0x8, addend: 0x0, symName: __ZN4pyo38instance12PyNativeType2py17h6a3f1e75297185e1E, symObjAddr: 0x3864, symBinAddr: 0x106A0, symSize: 0x20 }
  - { offset: 0x3AB66, size: 0x8, addend: 0x0, symName: '__ZN101_$LT$pyo3..types..floatob..PyFloat$u20$as$u20$core..convert..AsRef$LT$pyo3..types..any..PyAny$GT$$GT$6as_ref17h3545c93b552c6abcE', symObjAddr: 0x3C, symBinAddr: 0xF9B0, symSize: 0x14 }
  - { offset: 0x3AB98, size: 0x8, addend: 0x0, symName: '__ZN4pyo35types7floatob115_$LT$impl$u20$pyo3..conversion..IntoPy$LT$pyo3..instance..Py$LT$pyo3..types..any..PyAny$GT$$GT$$u20$for$u20$f64$GT$7into_py17hd5ba0958c5639aefE', symObjAddr: 0x32C4, symBinAddr: 0x105A4, symSize: 0x2C }
  - { offset: 0x3ABE3, size: 0x8, addend: 0x0, symName: '__ZN4pyo35types7floatob64_$LT$impl$u20$pyo3..conversion..FromPyObject$u20$for$u20$f64$GT$7extract17h3e25fdd4e6e55edfE', symObjAddr: 0x3400, symBinAddr: 0x105D0, symSize: 0xAC }
  - { offset: 0x3AC92, size: 0x8, addend: 0x0, symName: __ZN4pyo310conversion13FromPyPointer14from_owned_ptr17h20db771930a3dd87E, symObjAddr: 0xE6C, symBinAddr: 0x101DC, symSize: 0x24 }
  - { offset: 0x3ACE4, size: 0x8, addend: 0x0, symName: __ZN4pyo310conversion13FromPyPointer23from_owned_ptr_or_panic17h181f1ace61a2344bE, symObjAddr: 0xE90, symBinAddr: 0x10200, symSize: 0x34 }
  - { offset: 0x3AD3C, size: 0x8, addend: 0x0, symName: '__ZN53_$LT$T$u20$as$u20$pyo3..conversion..FromPyPointer$GT$21from_owned_ptr_or_opt17h78f18e0f2d78d2a2E', symObjAddr: 0x38BC, symBinAddr: 0x106F8, symSize: 0xB4 }
  - { offset: 0x3AF41, size: 0x8, addend: 0x0, symName: '__ZN4pyo35impl_16extract_argument19FunctionDescription34missing_required_keyword_arguments28_$u7b$$u7b$closure$u7d$$u7d$17hc110aa11f4438d43E', symObjAddr: 0x29D0, symBinAddr: 0x10234, symSize: 0x84 }
  - { offset: 0x3AFB1, size: 0x8, addend: 0x0, symName: '__ZN4pyo35impl_16extract_argument19FunctionDescription37missing_required_positional_arguments28_$u7b$$u7b$closure$u7d$$u7d$17h3b58b70ea7994fadE', symObjAddr: 0x2B9C, symBinAddr: 0x102B8, symSize: 0x78 }
  - { offset: 0x3B01D, size: 0x8, addend: 0x0, symName: __ZN4pyo35impl_16extract_argument19push_parameter_list17ha00341a71cf926feE, symObjAddr: 0x2D20, symBinAddr: 0x1043C, symSize: 0x168 }
  - { offset: 0x3B093, size: 0x8, addend: 0x0, symName: __ZN4pyo35impl_16extract_argument25argument_extraction_error17h78b6f93282b3cb24E, symObjAddr: 0x2E88, symBinAddr: 0x5A374, symSize: 0x1EC }
  - { offset: 0x3B2CD, size: 0x8, addend: 0x0, symName: __ZN11parking_lot4once4Once15call_once_force17ha911987fa4aa190bE, symObjAddr: 0x50, symBinAddr: 0xF9C4, symSize: 0xCC }
  - { offset: 0x3B323, size: 0x8, addend: 0x0, symName: __ZN11parking_lot4once4Once15call_once_force17hc4cf44da8f372f56E, symObjAddr: 0x11C, symBinAddr: 0xFA90, symSize: 0xCC }
  - { offset: 0x3B386, size: 0x8, addend: 0x0, symName: __ZN4core4sync6atomic8AtomicU816compare_exchange17ha59eb004ab842630E, symObjAddr: 0xC4C, symBinAddr: 0x100F8, symSize: 0x34 }
  - { offset: 0x3B3E5, size: 0x8, addend: 0x0, symName: __ZN4core4sync6atomic8AtomicU821compare_exchange_weak17h3e27479edcf3cff2E, symObjAddr: 0xC80, symBinAddr: 0x1012C, symSize: 0x34 }
  - { offset: 0x3B444, size: 0x8, addend: 0x0, symName: __ZN4core4sync6atomic8AtomicU84load17h850f447e8e9feaf1E, symObjAddr: 0xCB4, symBinAddr: 0x10160, symSize: 0x24 }
  - { offset: 0x3B48A, size: 0x8, addend: 0x0, symName: __ZN4core4sync6atomic9AtomicI6416compare_exchange17h7444b3933c26be68E, symObjAddr: 0xCD8, symBinAddr: 0x10184, symSize: 0x30 }
  - { offset: 0x3B5AD, size: 0x8, addend: 0x0, symName: '__ZN5alloc6string94_$LT$impl$u20$core..convert..From$LT$$RF$str$GT$$u20$for$u20$alloc..borrow..Cow$LT$str$GT$$GT$4from17haf4593f588d444c2E', symObjAddr: 0x4AD8, symBinAddr: 0x107FC, symSize: 0x2C }
  - { offset: 0x3B964, size: 0x8, addend: 0x0, symName: '__ZN5alloc3str56_$LT$impl$u20$alloc..borrow..ToOwned$u20$for$u20$str$GT$8to_owned17h2aadb5ac5f5233f6E', symObjAddr: 0x4A38, symBinAddr: 0x107AC, symSize: 0x50 }
  - { offset: 0x3BAD4, size: 0x8, addend: 0x0, symName: '__ZN66_$LT$alloc..borrow..Cow$LT$B$GT$$u20$as$u20$core..fmt..Display$GT$3fmt17h211fc51da364f35eE', symObjAddr: 0x4B84, symBinAddr: 0x10828, symSize: 0x84 }
  - { offset: 0x3BB8C, size: 0x8, addend: 0x0, symName: '__ZN71_$LT$alloc..borrow..Cow$LT$B$GT$$u20$as$u20$core..ops..deref..Deref$GT$5deref17h4dac52d3c77b1da7E', symObjAddr: 0x54D0, symBinAddr: 0x108AC, symSize: 0x70 }
  - { offset: 0x3BBE1, size: 0x8, addend: 0x0, symName: '__ZN71_$LT$alloc..borrow..Cow$LT$B$GT$$u20$as$u20$core..ops..deref..Deref$GT$5deref17hea20c304d99496c3E', symObjAddr: 0x5540, symBinAddr: 0x1091C, symSize: 0x78 }
  - { offset: 0x3BDF3, size: 0x8, addend: 0x0, symName: __ZN4pyo35impl_16extract_argument19FunctionDescription26missing_required_arguments17h79bb77f398cca332E, symObjAddr: 0x1FF8, symBinAddr: 0x59854, symSize: 0x1F8 }
  - { offset: 0x3BEC5, size: 0x8, addend: 0x0, symName: __ZN4pyo35impl_16extract_argument19FunctionDescription27unexpected_keyword_argument17hd5312d8862788150E, symObjAddr: 0x21F0, symBinAddr: 0x59A4C, symSize: 0x100 }
  - { offset: 0x3BF4B, size: 0x8, addend: 0x0, symName: __ZN4pyo35impl_16extract_argument19FunctionDescription28multiple_values_for_argument17h01a48e52ae9c9d76E, symObjAddr: 0x22F0, symBinAddr: 0x59B4C, symSize: 0x110 }
  - { offset: 0x3BFD1, size: 0x8, addend: 0x0, symName: __ZN4pyo35impl_16extract_argument19FunctionDescription29too_many_positional_arguments17h7f91011e8ba1d46dE, symObjAddr: 0x2400, symBinAddr: 0x59C5C, symSize: 0x304 }
  - { offset: 0x3C0E4, size: 0x8, addend: 0x0, symName: __ZN4pyo35impl_16extract_argument19FunctionDescription33positional_only_keyword_arguments17he109b236d6bf2d64E, symObjAddr: 0x2704, symBinAddr: 0x59F60, symSize: 0x148 }
  - { offset: 0x3C1A7, size: 0x8, addend: 0x0, symName: __ZN4pyo35impl_16extract_argument19FunctionDescription34missing_required_keyword_arguments17h6ac9237a05b05411E, symObjAddr: 0x284C, symBinAddr: 0x5A0A8, symSize: 0x184 }
  - { offset: 0x3C23E, size: 0x8, addend: 0x0, symName: __ZN4pyo35impl_16extract_argument19FunctionDescription37missing_required_positional_arguments17hbf229d9833ae6ca1E, symObjAddr: 0x2A54, symBinAddr: 0x5A22C, symSize: 0x148 }
  - { offset: 0x3C287, size: 0x8, addend: 0x0, symName: __ZN4pyo35impl_16extract_argument19FunctionDescription9full_name17h92f91e26e110e571E, symObjAddr: 0x2C14, symBinAddr: 0x10330, symSize: 0x10C }
  - { offset: 0x3C391, size: 0x8, addend: 0x0, symName: __ZN4pyo35types7floatob7PyFloat3new17h5a974007494fb2b7E, symObjAddr: 0x34AC, symBinAddr: 0x1067C, symSize: 0x24 }
  - { offset: 0x3C885, size: 0x8, addend: 0x0, symName: __ZN4core4iter6traits8iterator8Iterator9enumerate17hc08614f89478c2caE, symObjAddr: 0x18FC, symBinAddr: 0x10D1C, symSize: 0x18 }
  - { offset: 0x3C8B6, size: 0x8, addend: 0x0, symName: __ZN4core4iter6traits8iterator8Iterator9enumerate17hc08614f89478c2caE, symObjAddr: 0x18FC, symBinAddr: 0x10D1C, symSize: 0x18 }
  - { offset: 0x3D797, size: 0x8, addend: 0x0, symName: '__ZN4core3ptr9const_ptr33_$LT$impl$u20$$BP$const$u20$T$GT$20offset_from_unsigned18precondition_check17h08ee24e26db2944bE', symObjAddr: 0x13F8, symBinAddr: 0x10C8C, symSize: 0x60 }
  - { offset: 0x3D813, size: 0x8, addend: 0x0, symName: '__ZN4core3ptr9const_ptr33_$LT$impl$u20$$BP$const$u20$T$GT$7is_null17h2fe48aa661a4d2c8E', symObjAddr: 0x1458, symBinAddr: 0x10CEC, symSize: 0x18 }
  - { offset: 0x3D85D, size: 0x8, addend: 0x0, symName: '__ZN4core3ptr9const_ptr33_$LT$impl$u20$$BP$const$u20$T$GT$7is_null17hdaffc5b0f993bdfdE', symObjAddr: 0x1470, symBinAddr: 0x10D04, symSize: 0x18 }
  - { offset: 0x3DA91, size: 0x8, addend: 0x0, symName: '__ZN185_$LT$core..ops..control_flow..ControlFlow$LT$B$C$C$GT$$u20$as$u20$core..ops..try_trait..FromResidual$LT$core..ops..control_flow..ControlFlow$LT$B$C$core..convert..Infallible$GT$$GT$$GT$13from_residual17h28e4aa054c87a2b1E', symObjAddr: 0x498, symBinAddr: 0x10994, symSize: 0x18 }
  - { offset: 0x3DAD5, size: 0x8, addend: 0x0, symName: '__ZN95_$LT$core..ops..control_flow..ControlFlow$LT$B$C$C$GT$$u20$as$u20$core..ops..try_trait..Try$GT$11from_output17h8ea417d32ffccad6E', symObjAddr: 0x5F90, symBinAddr: 0x11624, symSize: 0x10 }
  - { offset: 0x3DB13, size: 0x8, addend: 0x0, symName: '__ZN95_$LT$core..ops..control_flow..ControlFlow$LT$B$C$C$GT$$u20$as$u20$core..ops..try_trait..Try$GT$6branch17hcbb5ad45147bf4a5E', symObjAddr: 0x6050, symBinAddr: 0x11634, symSize: 0x54 }
  - { offset: 0x3E1FC, size: 0x8, addend: 0x0, symName: '__ZN53_$LT$core..fmt..Error$u20$as$u20$core..fmt..Debug$GT$3fmt17h95878b85e034d4eaE', symObjAddr: 0x5E18, symBinAddr: 0x11584, symSize: 0x40 }
  - { offset: 0x3E2D1, size: 0x8, addend: 0x0, symName: '__ZN82_$LT$core..array..iter..IntoIter$LT$T$C$_$GT$$u20$as$u20$core..ops..drop..Drop$GT$4drop17h3fb25a8593f9d23aE', symObjAddr: 0x5F04, symBinAddr: 0x115C4, symSize: 0x30 }
  - { offset: 0x3E328, size: 0x8, addend: 0x0, symName: '__ZN99_$LT$core..array..iter..IntoIter$LT$T$C$_$GT$$u20$as$u20$core..iter..traits..iterator..Iterator$GT$4next17h97887b62ed7733f8E', symObjAddr: 0x6134, symBinAddr: 0x11688, symSize: 0x2C }
  - { offset: 0x3E553, size: 0x8, addend: 0x0, symName: __ZN8pyo3_ffi10listobject12PyList_Check17h4e960d7c80834d44E, symObjAddr: 0x5F34, symBinAddr: 0x115F4, symSize: 0x30 }
  - { offset: 0x3F1A1, size: 0x8, addend: 0x0, symName: '__ZN4pyo34sync8Interned3get28_$u7b$$u7b$closure$u7d$$u7d$17hc55774583100db79E', symObjAddr: 0x5BCC, symBinAddr: 0x11550, symSize: 0x34 }
  - { offset: 0x3F1ED, size: 0x8, addend: 0x0, symName: '__ZN4pyo34sync20GILOnceCell$LT$T$GT$11get_or_init28_$u7b$$u7b$closure$u7d$$u7d$17h2d3eed16c283b537E', symObjAddr: 0x33DC, symBinAddr: 0x10ED4, symSize: 0x24 }
  - { offset: 0x3F22C, size: 0x8, addend: 0x0, symName: '__ZN4pyo34sync20GILOnceCell$LT$T$GT$11get_or_init28_$u7b$$u7b$closure$u7d$$u7d$17h3feafc4475f74853E', symObjAddr: 0x3448, symBinAddr: 0x10EF8, symSize: 0x34 }
  - { offset: 0x3F787, size: 0x8, addend: 0x0, symName: __ZN4core3fmt9Arguments23as_statically_known_str17h16deea40d8e92ec8E, symObjAddr: 0xDF8, symBinAddr: 0x109AC, symSize: 0x104 }
  - { offset: 0x3F895, size: 0x8, addend: 0x0, symName: __ZN4core3fmt9Arguments3new17h08170d49a022d034E, symObjAddr: 0xEFC, symBinAddr: 0x10AB0, symSize: 0x1C }
  - { offset: 0x3F92F, size: 0x8, addend: 0x0, symName: __ZN4core3fmt9Arguments3new17h12dd086a48d8696dE, symObjAddr: 0xF6C, symBinAddr: 0x10ACC, symSize: 0x1C }
  - { offset: 0x3F9FD, size: 0x8, addend: 0x0, symName: __ZN4core3fmt9Arguments3new17h42fccd2e7ed14e4eE, symObjAddr: 0x1014, symBinAddr: 0x10AE8, symSize: 0x1C }
  - { offset: 0x3FA97, size: 0x8, addend: 0x0, symName: __ZN4core3fmt9Arguments3new17h4ea72cc7c797b577E, symObjAddr: 0x1084, symBinAddr: 0x10B04, symSize: 0x1C }
  - { offset: 0x3FB31, size: 0x8, addend: 0x0, symName: __ZN4core3fmt9Arguments3new17h6ce3bc1a6b6160bbE, symObjAddr: 0x10D8, symBinAddr: 0x10B20, symSize: 0x1C }
  - { offset: 0x3FB97, size: 0x8, addend: 0x0, symName: __ZN4core3fmt9Arguments3new17h6f958859001c5d9bE, symObjAddr: 0x10F4, symBinAddr: 0x10B3C, symSize: 0x1C }
  - { offset: 0x3FC17, size: 0x8, addend: 0x0, symName: __ZN4core3fmt9Arguments3new17h89d4b2d9f6e1e1fdE, symObjAddr: 0x1148, symBinAddr: 0x10B58, symSize: 0x1C }
  - { offset: 0x3FC63, size: 0x8, addend: 0x0, symName: __ZN4core3fmt9Arguments3new17h8fb65771cafa6accE, symObjAddr: 0x1164, symBinAddr: 0x10B74, symSize: 0x1C }
  - { offset: 0x3FCC9, size: 0x8, addend: 0x0, symName: __ZN4core3fmt9Arguments3new17hb786733237676b22E, symObjAddr: 0x11B8, symBinAddr: 0x10B90, symSize: 0x1C }
  - { offset: 0x3FD15, size: 0x8, addend: 0x0, symName: __ZN4core3fmt9Arguments3new17hce503345bef147d6E, symObjAddr: 0x11D4, symBinAddr: 0x10BAC, symSize: 0x1C }
  - { offset: 0x3FD7B, size: 0x8, addend: 0x0, symName: __ZN4core3fmt9Arguments8from_str17hb10fc6214625c96cE, symObjAddr: 0x1228, symBinAddr: 0x10BC8, symSize: 0x20 }
  - { offset: 0x3FD9E, size: 0x8, addend: 0x0, symName: __ZN4core3fmt9Formatter9write_fmt17hff4f2b7058da7f0eE, symObjAddr: 0x1248, symBinAddr: 0x10BE8, symSize: 0xA4 }
  - { offset: 0x3FE4E, size: 0x8, addend: 0x0, symName: '__ZN4pyo34sync20GILOnceCell$LT$T$GT$11get_or_init17h22044076e93d372eE', symObjAddr: 0x2CC4, symBinAddr: 0x10D34, symSize: 0xC8 }
  - { offset: 0x3FEF6, size: 0x8, addend: 0x0, symName: '__ZN4pyo34sync20GILOnceCell$LT$T$GT$11get_or_init17h3985961822934f2fE', symObjAddr: 0x2D8C, symBinAddr: 0x10DFC, symSize: 0xD8 }
  - { offset: 0x40137, size: 0x8, addend: 0x0, symName: '__ZN4pyo34sync20GILOnceCell$LT$T$GT$15get_or_try_init17h57aa18ce26b8a829E', symObjAddr: 0x37E8, symBinAddr: 0x10F2C, symSize: 0xCC }
  - { offset: 0x401BE, size: 0x8, addend: 0x0, symName: '__ZN4pyo34sync20GILOnceCell$LT$T$GT$3get17h0bf3c83e89d1dd67E', symObjAddr: 0x3A6C, symBinAddr: 0x10FF8, symSize: 0x70 }
  - { offset: 0x40202, size: 0x8, addend: 0x0, symName: '__ZN4pyo34sync20GILOnceCell$LT$T$GT$3get17h717237628a77b667E', symObjAddr: 0x3B50, symBinAddr: 0x11068, symSize: 0x70 }
  - { offset: 0x40246, size: 0x8, addend: 0x0, symName: '__ZN4pyo34sync20GILOnceCell$LT$T$GT$3get17h9d2b0a238a5ebacfE', symObjAddr: 0x3C30, symBinAddr: 0x110D8, symSize: 0x70 }
  - { offset: 0x402C0, size: 0x8, addend: 0x0, symName: '__ZN4pyo34sync20GILOnceCell$LT$T$GT$3set17h3c2bc6a429ee7352E', symObjAddr: 0x3CC8, symBinAddr: 0x11148, symSize: 0x140 }
  - { offset: 0x4037A, size: 0x8, addend: 0x0, symName: '__ZN4pyo34sync20GILOnceCell$LT$T$GT$3set17h7ff7bc529648df30E', symObjAddr: 0x3F10, symBinAddr: 0x11288, symSize: 0x140 }
  - { offset: 0x40434, size: 0x8, addend: 0x0, symName: '__ZN4pyo34sync20GILOnceCell$LT$T$GT$3set17ha0e971c431f5f8a9E', symObjAddr: 0x4050, symBinAddr: 0x113C8, symSize: 0x140 }
  - { offset: 0x4050E, size: 0x8, addend: 0x0, symName: '__ZN4pyo34sync20GILOnceCell$LT$T$GT$4init17h1eff9bca0c54bb21E', symObjAddr: 0x455C, symBinAddr: 0x5A560, symSize: 0x18C }
  - { offset: 0x405E4, size: 0x8, addend: 0x0, symName: '__ZN4pyo34sync20GILOnceCell$LT$T$GT$4init17h4154ad2e18e4b643E', symObjAddr: 0x46E8, symBinAddr: 0x5A6EC, symSize: 0x11C }
  - { offset: 0x406C3, size: 0x8, addend: 0x0, symName: '__ZN4pyo34sync20GILOnceCell$LT$T$GT$4init17hf38c43030c19556dE', symObjAddr: 0x55B4, symBinAddr: 0x5A808, symSize: 0x120 }
  - { offset: 0x40794, size: 0x8, addend: 0x0, symName: __ZN4pyo34sync8Interned3get17hfc3273ecfeb29e75E, symObjAddr: 0x5B84, symBinAddr: 0x11508, symSize: 0x48 }
  - { offset: 0x4093D, size: 0x8, addend: 0x0, symName: '__ZN45_$LT$T$u20$as$u20$alloc..string..ToString$GT$9to_string17h35785858d0d8f149E', symObjAddr: 0x84, symBinAddr: 0x116E8, symSize: 0x24 }
  - { offset: 0x40998, size: 0x8, addend: 0x0, symName: '__ZN76_$LT$alloc..string..String$u20$as$u20$core..convert..From$LT$$RF$str$GT$$GT$4from17hbe5e7958ac71f977E', symObjAddr: 0x681C, symBinAddr: 0x1391C, symSize: 0x50 }
  - { offset: 0x40A85, size: 0x8, addend: 0x0, symName: '__ZN55_$LT$$RF$str$u20$as$u20$alloc..string..SpecToString$GT$14spec_to_string17h569bf387567669ceE', symObjAddr: 0x5D34, symBinAddr: 0x134EC, symSize: 0x5C }
  - { offset: 0x40BAE, size: 0x8, addend: 0x0, symName: '__ZN58_$LT$alloc..string..String$u20$as$u20$core..fmt..Write$GT$10write_char17h5a1be583d179d12eE', symObjAddr: 0x5DF8, symBinAddr: 0x135B0, symSize: 0x30 }
  - { offset: 0x40BEB, size: 0x8, addend: 0x0, symName: '__ZN58_$LT$alloc..string..String$u20$as$u20$core..fmt..Write$GT$9write_str17he326f58c84252bfdE', symObjAddr: 0x5E28, symBinAddr: 0x135E0, symSize: 0x38 }
  - { offset: 0x40C79, size: 0x8, addend: 0x0, symName: '__ZN65_$LT$alloc..string..String$u20$as$u20$core..ops..deref..Deref$GT$5deref17hff54e93b530c2928E', symObjAddr: 0x6254, symBinAddr: 0x13864, symSize: 0x20 }
  - { offset: 0x40D38, size: 0x8, addend: 0x0, symName: '__ZN60_$LT$alloc..string..String$u20$as$u20$core..fmt..Display$GT$3fmt17h54bb623a4b4f2b3cE', symObjAddr: 0x6070, symBinAddr: 0x13828, symSize: 0x3C }
  - { offset: 0x413F7, size: 0x8, addend: 0x0, symName: '__ZN5alloc3str83_$LT$impl$u20$core..borrow..Borrow$LT$str$GT$$u20$for$u20$alloc..string..String$GT$6borrow17hb68119501be3d317E', symObjAddr: 0x5E60, symBinAddr: 0x13618, symSize: 0x20 }
  - { offset: 0x4177A, size: 0x8, addend: 0x0, symName: '__ZN4core3ptr101drop_in_place$LT$core..result..Result$LT$$RF$pyo3..types..string..PyString$C$pyo3..err..PyErr$GT$$GT$17h9f06f86d09b74c24E', symObjAddr: 0x1448, symBinAddr: 0x11D4C, symSize: 0x40 }
  - { offset: 0x417A9, size: 0x8, addend: 0x0, symName: '__ZN4core3ptr104drop_in_place$LT$core..option..Option$LT$pyo3..instance..Py$LT$pyo3..types..module..PyModule$GT$$GT$$GT$17hc65b3b5ba9ffecfdE', symObjAddr: 0x14D0, symBinAddr: 0x11D8C, symSize: 0x44 }
  - { offset: 0x417D8, size: 0x8, addend: 0x0, symName: '__ZN4core3ptr104drop_in_place$LT$core..option..Option$LT$pyo3..instance..Py$LT$pyo3..types..string..PyString$GT$$GT$$GT$17h864747ad7f0a42a4E', symObjAddr: 0x1514, symBinAddr: 0x11DD0, symSize: 0x44 }
  - { offset: 0x41807, size: 0x8, addend: 0x0, symName: '__ZN4core3ptr106drop_in_place$LT$alloc..vec..Vec$LT$core..ptr..non_null..NonNull$LT$pyo3_ffi..object..PyObject$GT$$GT$$GT$17h13272cd05601839fE', symObjAddr: 0x157C, symBinAddr: 0x11E14, symSize: 0x5C }
  - { offset: 0x41836, size: 0x8, addend: 0x0, symName: '__ZN4core3ptr106drop_in_place$LT$core..option..Option$LT$pyo3..instance..Py$LT$pyo3..types..typeobject..PyType$GT$$GT$$GT$17h8cd61356aebf9899E', symObjAddr: 0x15D8, symBinAddr: 0x11E70, symSize: 0x44 }
  - { offset: 0x41865, size: 0x8, addend: 0x0, symName: '__ZN4core3ptr108drop_in_place$LT$core..option..Option$LT$pyo3..instance..Py$LT$pyo3..exceptions..PyBaseException$GT$$GT$$GT$17h8532d47d93644aa0E', symObjAddr: 0x1640, symBinAddr: 0x11EB4, symSize: 0x44 }
  - { offset: 0x41894, size: 0x8, addend: 0x0, symName: '__ZN4core3ptr111drop_in_place$LT$core..cell..UnsafeCell$LT$core..option..Option$LT$pyo3..err..err_state..PyErrState$GT$$GT$$GT$17h047aac6c779e45dfE', symObjAddr: 0x17E0, symBinAddr: 0x11EF8, symSize: 0x24 }
  - { offset: 0x418C3, size: 0x8, addend: 0x0, symName: '__ZN4core3ptr113drop_in_place$LT$alloc..raw_vec..RawVec$LT$core..ptr..non_null..NonNull$LT$pyo3_ffi..object..PyObject$GT$$GT$$GT$17h0ff0b2b870293ea2E', symObjAddr: 0x184C, symBinAddr: 0x11F1C, symSize: 0x24 }
  - { offset: 0x418F2, size: 0x8, addend: 0x0, symName: '__ZN4core3ptr115drop_in_place$LT$core..array..iter..IntoIter$LT$pyo3..instance..Py$LT$pyo3..types..any..PyAny$GT$$C$1_usize$GT$$GT$17h194efca984e55647E', symObjAddr: 0x18B8, symBinAddr: 0x11F40, symSize: 0x24 }
  - { offset: 0x41921, size: 0x8, addend: 0x0, symName: '__ZN4core3ptr115drop_in_place$LT$core..result..Result$LT$$LP$$RP$$C$pyo3..instance..Py$LT$pyo3..types..module..PyModule$GT$$GT$$GT$17h4d1be57461c5c314E', symObjAddr: 0x1900, symBinAddr: 0x11F64, symSize: 0x44 }
  - { offset: 0x41950, size: 0x8, addend: 0x0, symName: '__ZN4core3ptr115drop_in_place$LT$core..result..Result$LT$$LP$$RP$$C$pyo3..instance..Py$LT$pyo3..types..string..PyString$GT$$GT$$GT$17h33fad2cf58d96237E', symObjAddr: 0x1944, symBinAddr: 0x11FA8, symSize: 0x44 }
  - { offset: 0x4197F, size: 0x8, addend: 0x0, symName: '__ZN4core3ptr115drop_in_place$LT$core..result..Result$LT$$RF$pyo3..exceptions..PyBaseException$C$pyo3..err..PyDowncastError$GT$$GT$17hb5bb5a1dfd00ff01E', symObjAddr: 0x1988, symBinAddr: 0x11FEC, symSize: 0x48 }
  - { offset: 0x419AE, size: 0x8, addend: 0x0, symName: '__ZN4core3ptr117drop_in_place$LT$core..result..Result$LT$$LP$$RP$$C$pyo3..instance..Py$LT$pyo3..types..typeobject..PyType$GT$$GT$$GT$17h015a9c6e6cd32c83E', symObjAddr: 0x19D0, symBinAddr: 0x12034, symSize: 0x44 }
  - { offset: 0x419DD, size: 0x8, addend: 0x0, symName: '__ZN4core3ptr122drop_in_place$LT$alloc..vec..into_iter..IntoIter$LT$core..ptr..non_null..NonNull$LT$pyo3_ffi..object..PyObject$GT$$GT$$GT$17h9800fc34f9382ab1E', symObjAddr: 0x1B40, symBinAddr: 0x12078, symSize: 0x24 }
  - { offset: 0x41A0C, size: 0x8, addend: 0x0, symName: '__ZN4core3ptr129drop_in_place$LT$core..cell..Ref$LT$alloc..vec..Vec$LT$core..ptr..non_null..NonNull$LT$pyo3_ffi..object..PyObject$GT$$GT$$GT$$GT$17h75e8fd0a99dcef7fE', symObjAddr: 0x1CD4, symBinAddr: 0x1209C, symSize: 0x24 }
  - { offset: 0x41A3B, size: 0x8, addend: 0x0, symName: '__ZN4core3ptr132drop_in_place$LT$core..cell..RefMut$LT$alloc..vec..Vec$LT$core..ptr..non_null..NonNull$LT$pyo3_ffi..object..PyObject$GT$$GT$$GT$$GT$17h1fee513caac2c842E', symObjAddr: 0x1D1C, symBinAddr: 0x120C0, symSize: 0x24 }
  - { offset: 0x41A6A, size: 0x8, addend: 0x0, symName: '__ZN4core3ptr132drop_in_place$LT$pyo3..err..PyErr..new$LT$pyo3..exceptions..PyTypeError$C$alloc..string..String$GT$..$u7b$$u7b$closure$u7d$$u7d$$GT$17h7920a1febbe30713E', symObjAddr: 0x1D40, symBinAddr: 0x120E4, symSize: 0x24 }
  - { offset: 0x41A99, size: 0x8, addend: 0x0, symName: '__ZN4core3ptr133drop_in_place$LT$core..cell..RefCell$LT$alloc..vec..Vec$LT$core..ptr..non_null..NonNull$LT$pyo3_ffi..object..PyObject$GT$$GT$$GT$$GT$17hf8bbaadb79be2549E', symObjAddr: 0x1D64, symBinAddr: 0x12108, symSize: 0x24 }
  - { offset: 0x41AC8, size: 0x8, addend: 0x0, symName: '__ZN4core3ptr136drop_in_place$LT$core..cell..UnsafeCell$LT$alloc..vec..Vec$LT$core..ptr..non_null..NonNull$LT$pyo3_ffi..object..PyObject$GT$$GT$$GT$$GT$17h587b5f6ef9a20012E', symObjAddr: 0x1E18, symBinAddr: 0x1212C, symSize: 0x24 }
  - { offset: 0x41AF7, size: 0x8, addend: 0x0, symName: '__ZN4core3ptr136drop_in_place$LT$pyo3..err..PyErr..new$LT$pyo3..exceptions..PyOverflowError$C$alloc..string..String$GT$..$u7b$$u7b$closure$u7d$$u7d$$GT$17ha1e7cab2430b02b1E', symObjAddr: 0x1E60, symBinAddr: 0x12150, symSize: 0x24 }
  - { offset: 0x41B26, size: 0x8, addend: 0x0, symName: '__ZN4core3ptr141drop_in_place$LT$pyo3..err..PyErr..new$LT$pyo3..panic..PanicException$C$$LP$alloc..string..String$C$$RP$$GT$..$u7b$$u7b$closure$u7d$$u7d$$GT$17ha33a9b3681a9f7f7E', symObjAddr: 0x2034, symBinAddr: 0x12174, symSize: 0x24 }
  - { offset: 0x41B55, size: 0x8, addend: 0x0, symName: '__ZN4core3ptr145drop_in_place$LT$pyo3..err..err_state..PyErrState..lazy$LT$pyo3..instance..Py$LT$pyo3..types..any..PyAny$GT$$GT$..$u7b$$u7b$closure$u7d$$u7d$$GT$17h4c5b3c4d99462724E', symObjAddr: 0x20C4, symBinAddr: 0x12198, symSize: 0x60 }
  - { offset: 0x41B84, size: 0x8, addend: 0x0, symName: '__ZN4core3ptr146drop_in_place$LT$pyo3..err..PyErr..new$LT$pyo3..exceptions..PyTypeError$C$pyo3..err..PyDowncastErrorArguments$GT$..$u7b$$u7b$closure$u7d$$u7d$$GT$17hb74020e0eacc9123E', symObjAddr: 0x2148, symBinAddr: 0x121F8, symSize: 0x24 }
  - { offset: 0x41C01, size: 0x8, addend: 0x0, symName: '__ZN4core3ptr165drop_in_place$LT$core..iter..adapters..enumerate..Enumerate$LT$core..array..iter..IntoIter$LT$pyo3..instance..Py$LT$pyo3..types..any..PyAny$GT$$C$1_usize$GT$$GT$$GT$17h88119413c4f718e1E', symObjAddr: 0x236C, symBinAddr: 0x1221C, symSize: 0x24 }
  - { offset: 0x41C30, size: 0x8, addend: 0x0, symName: '__ZN4core3ptr189drop_in_place$LT$core..array..iter..iter_inner..PolymorphicIter$LT$$u5b$core..mem..maybe_uninit..MaybeUninit$LT$pyo3..instance..Py$LT$pyo3..types..any..PyAny$GT$$GT$$u3b$$u20$1$u5d$$GT$$GT$17hf3639038ba3de390E', symObjAddr: 0x2468, symBinAddr: 0x12240, symSize: 0x24 }
  - { offset: 0x41C64, size: 0x8, addend: 0x0, symName: __ZN4core3ptr19copy_nonoverlapping18precondition_check17h2c7b57f4c0cf29d9E, symObjAddr: 0x251C, symBinAddr: 0x12264, symSize: 0x168 }
  - { offset: 0x41E4D, size: 0x8, addend: 0x0, symName: '__ZN4core3ptr216drop_in_place$LT$$LT$alloc..vec..into_iter..IntoIter$LT$T$C$A$GT$$u20$as$u20$core..ops..drop..Drop$GT$..drop..DropGuard$LT$core..ptr..non_null..NonNull$LT$pyo3_ffi..object..PyObject$GT$$C$alloc..alloc..Global$GT$$GT$17h3abfe399dfb21d4dE', symObjAddr: 0x2958, symBinAddr: 0x123CC, symSize: 0x24 }
  - { offset: 0x41E7C, size: 0x8, addend: 0x0, symName: '__ZN4core3ptr236drop_in_place$LT$alloc..boxed..Box$LT$dyn$u20$core..ops..function..FnOnce$LT$$LP$pyo3..marker..Python$C$$RP$$GT$$u2b$Output$u20$$u3d$$u20$pyo3..err..err_state..PyErrStateLazyFnOutput$u2b$core..marker..Sync$u2b$core..marker..Send$GT$$GT$17h3f7251f56d61b802E', symObjAddr: 0x2AD4, symBinAddr: 0x123F0, symSize: 0x80 }
  - { offset: 0x41F84, size: 0x8, addend: 0x0, symName: '__ZN4core3ptr272drop_in_place$LT$lock_api..mutex..MutexGuard$LT$parking_lot..raw_mutex..RawMutex$C$$LP$alloc..vec..Vec$LT$core..ptr..non_null..NonNull$LT$pyo3_ffi..object..PyObject$GT$$GT$$C$alloc..vec..Vec$LT$core..ptr..non_null..NonNull$LT$pyo3_ffi..object..PyObject$GT$$GT$$RP$$GT$$GT$17hd5b0be254a25bc36E', symObjAddr: 0x2F0C, symBinAddr: 0x12470, symSize: 0x24 }
  - { offset: 0x41FB3, size: 0x8, addend: 0x0, symName: '__ZN4core3ptr37drop_in_place$LT$pyo3..err..PyErr$GT$17h0f43c68ada541fc0E', symObjAddr: 0x2F54, symBinAddr: 0x12494, symSize: 0x24 }
  - { offset: 0x41FE2, size: 0x8, addend: 0x0, symName: '__ZN4core3ptr39drop_in_place$LT$pyo3..gil..GILPool$GT$17h15ba8b4e5b82623bE', symObjAddr: 0x2F78, symBinAddr: 0x124B8, symSize: 0x24 }
  - { offset: 0x42011, size: 0x8, addend: 0x0, symName: '__ZN4core3ptr40drop_in_place$LT$pyo3..gil..GILGuard$GT$17hfb26adccc457a7b6E', symObjAddr: 0x2F9C, symBinAddr: 0x124DC, symSize: 0x24 }
  - { offset: 0x42040, size: 0x8, addend: 0x0, symName: '__ZN4core3ptr42drop_in_place$LT$alloc..string..String$GT$17h4331c37a1f98d9dcE', symObjAddr: 0x2FE4, symBinAddr: 0x12500, symSize: 0x24 }
  - { offset: 0x4206F, size: 0x8, addend: 0x0, symName: '__ZN4core3ptr42drop_in_place$LT$core..cell..BorrowRef$GT$17hed2bd549b64b453fE', symObjAddr: 0x3008, symBinAddr: 0x12524, symSize: 0x24 }
  - { offset: 0x4209E, size: 0x8, addend: 0x0, symName: '__ZN4core3ptr45drop_in_place$LT$core..cell..BorrowRefMut$GT$17h1d874bb5fe442740E', symObjAddr: 0x302C, symBinAddr: 0x12548, symSize: 0x24 }
  - { offset: 0x420CD, size: 0x8, addend: 0x0, symName: '__ZN4core3ptr47drop_in_place$LT$alloc..ffi..c_str..CString$GT$17ha0d11ae7b7aafdd8E', symObjAddr: 0x3074, symBinAddr: 0x1256C, symSize: 0x5C }
  - { offset: 0x420FC, size: 0x8, addend: 0x0, symName: '__ZN4core3ptr47drop_in_place$LT$pyo3..err..PyDowncastError$GT$17h8f73f34e0c16fd00E', symObjAddr: 0x3118, symBinAddr: 0x125C8, symSize: 0x24 }
  - { offset: 0x4212B, size: 0x8, addend: 0x0, symName: '__ZN4core3ptr48drop_in_place$LT$alloc..ffi..c_str..NulError$GT$17he31905fc5cf41a68E', symObjAddr: 0x3160, symBinAddr: 0x125EC, symSize: 0x24 }
  - { offset: 0x4215A, size: 0x8, addend: 0x0, symName: '__ZN4core3ptr50drop_in_place$LT$alloc..borrow..Cow$LT$str$GT$$GT$17h0c8c992c8fae6399E', symObjAddr: 0x32FC, symBinAddr: 0x12610, symSize: 0x48 }
  - { offset: 0x42189, size: 0x8, addend: 0x0, symName: '__ZN4core3ptr50drop_in_place$LT$pyo3..impl_..panic..PanicTrap$GT$17h969a01a2f93f5790E', symObjAddr: 0x3344, symBinAddr: 0x12658, symSize: 0x24 }
  - { offset: 0x421B8, size: 0x8, addend: 0x0, symName: '__ZN4core3ptr51drop_in_place$LT$alloc..vec..Vec$LT$$RF$str$GT$$GT$17h16eae69918c46a93E', symObjAddr: 0x3368, symBinAddr: 0x1267C, symSize: 0x5C }
  - { offset: 0x421E7, size: 0x8, addend: 0x0, symName: '__ZN4core3ptr53drop_in_place$LT$$LP$alloc..string..String$C$$RP$$GT$17h47f3aff4d3ba2e3eE', symObjAddr: 0x33C4, symBinAddr: 0x126D8, symSize: 0x24 }
  - { offset: 0x42216, size: 0x8, addend: 0x0, symName: '__ZN4core3ptr53drop_in_place$LT$pyo3..err..err_state..PyErrState$GT$17h2ab9b955d806ba98E', symObjAddr: 0x33E8, symBinAddr: 0x126FC, symSize: 0x58 }
  - { offset: 0x42245, size: 0x8, addend: 0x0, symName: '__ZN4core3ptr56drop_in_place$LT$pyo3..err..PyDowncastErrorArguments$GT$17hb15edbad6cbc0978E', symObjAddr: 0x3464, symBinAddr: 0x12754, symSize: 0x5C }
  - { offset: 0x42274, size: 0x8, addend: 0x0, symName: '__ZN4core3ptr58drop_in_place$LT$alloc..boxed..Box$LT$$u5b$u8$u5d$$GT$$GT$17hf2c24544b264b939E', symObjAddr: 0x34C0, symBinAddr: 0x127B0, symSize: 0x2C }
  - { offset: 0x422A3, size: 0x8, addend: 0x0, symName: '__ZN4core3ptr58drop_in_place$LT$alloc..raw_vec..RawVec$LT$$RF$str$GT$$GT$17h02038f49d407f86dE', symObjAddr: 0x34EC, symBinAddr: 0x127DC, symSize: 0x24 }
  - { offset: 0x422D2, size: 0x8, addend: 0x0, symName: '__ZN4core3ptr63drop_in_place$LT$pyo3..err..err_state..PyErrStateNormalized$GT$17h21c0b274874382c0E', symObjAddr: 0x3574, symBinAddr: 0x12800, symSize: 0x24 }
  - { offset: 0x42301, size: 0x8, addend: 0x0, symName: '__ZN4core3ptr65drop_in_place$LT$core..option..Option$LT$pyo3..err..PyErr$GT$$GT$17h41943b16c64d5d42E', symObjAddr: 0x3598, symBinAddr: 0x12824, symSize: 0x40 }
  - { offset: 0x42330, size: 0x8, addend: 0x0, symName: '__ZN4core3ptr66drop_in_place$LT$pyo3..impl_..pymethods..PyMethodDefDestructor$GT$17h20c5b5c220031935E', symObjAddr: 0x3620, symBinAddr: 0x12864, symSize: 0x60 }
  - { offset: 0x4235F, size: 0x8, addend: 0x0, symName: '__ZN4core3ptr68drop_in_place$LT$core..option..Option$LT$pyo3..gil..GILGuard$GT$$GT$17h95fab76e6e959d13E', symObjAddr: 0x3680, symBinAddr: 0x128C4, symSize: 0x44 }
  - { offset: 0x4238E, size: 0x8, addend: 0x0, symName: '__ZN4core3ptr69drop_in_place$LT$alloc..borrow..Cow$LT$core..ffi..c_str..CStr$GT$$GT$17h78a3af8fcbe16a62E', symObjAddr: 0x36C4, symBinAddr: 0x12908, symSize: 0x40 }
  - { offset: 0x423BD, size: 0x8, addend: 0x0, symName: '__ZN4core3ptr70drop_in_place$LT$pyo3..instance..Py$LT$pyo3..types..any..PyAny$GT$$GT$17ha83a09bab2ae711eE', symObjAddr: 0x3868, symBinAddr: 0x12948, symSize: 0x24 }
  - { offset: 0x423EC, size: 0x8, addend: 0x0, symName: '__ZN4core3ptr74drop_in_place$LT$pyo3..instance..Py$LT$pyo3..types..tuple..PyTuple$GT$$GT$17h6a67c4a648dbcfacE', symObjAddr: 0x3ACC, symBinAddr: 0x1296C, symSize: 0x24 }
  - { offset: 0x4241B, size: 0x8, addend: 0x0, symName: '__ZN4core3ptr75drop_in_place$LT$core..option..Option$LT$alloc..ffi..c_str..CString$GT$$GT$17h43d38042b8a61481E', symObjAddr: 0x3AF0, symBinAddr: 0x12990, symSize: 0x44 }
  - { offset: 0x4244A, size: 0x8, addend: 0x0, symName: '__ZN4core3ptr75drop_in_place$LT$core..result..Result$LT$$RF$str$C$pyo3..err..PyErr$GT$$GT$17h15b09bacc09500e8E', symObjAddr: 0x3B34, symBinAddr: 0x129D4, symSize: 0x40 }
  - { offset: 0x42479, size: 0x8, addend: 0x0, symName: '__ZN4core3ptr76drop_in_place$LT$core..result..Result$LT$$LP$$RP$$C$pyo3..err..PyErr$GT$$GT$17hc58be03dd5a141f7E', symObjAddr: 0x3C28, symBinAddr: 0x12A14, symSize: 0x40 }
  - { offset: 0x424A8, size: 0x8, addend: 0x0, symName: '__ZN4core3ptr76drop_in_place$LT$pyo3..instance..Py$LT$pyo3..types..module..PyModule$GT$$GT$17hb6de43bd2dde8c43E', symObjAddr: 0x3C68, symBinAddr: 0x12A54, symSize: 0x24 }
  - { offset: 0x424D7, size: 0x8, addend: 0x0, symName: '__ZN4core3ptr76drop_in_place$LT$pyo3..instance..Py$LT$pyo3..types..string..PyString$GT$$GT$17hef067620140110bdE', symObjAddr: 0x3C8C, symBinAddr: 0x12A78, symSize: 0x24 }
  - { offset: 0x42506, size: 0x8, addend: 0x0, symName: '__ZN4core3ptr78drop_in_place$LT$pyo3..instance..Py$LT$pyo3..types..typeobject..PyType$GT$$GT$17hb66fbaa53d199d76E', symObjAddr: 0x3D8C, symBinAddr: 0x12A9C, symSize: 0x24 }
  - { offset: 0x42535, size: 0x8, addend: 0x0, symName: '__ZN4core3ptr80drop_in_place$LT$$u5b$pyo3..instance..Py$LT$pyo3..types..any..PyAny$GT$$u5d$$GT$17h9ee9a01b3d203f81E', symObjAddr: 0x3EA8, symBinAddr: 0x12AC0, symSize: 0xB4 }
  - { offset: 0x42564, size: 0x8, addend: 0x0, symName: '__ZN4core3ptr80drop_in_place$LT$pyo3..instance..Py$LT$pyo3..exceptions..PyBaseException$GT$$GT$17hc963dfde00fc1799E', symObjAddr: 0x3F80, symBinAddr: 0x12B74, symSize: 0x24 }
  - { offset: 0x42593, size: 0x8, addend: 0x0, symName: '__ZN4core3ptr81drop_in_place$LT$core..option..Option$LT$pyo3..err..err_state..PyErrState$GT$$GT$17hbb130a37c46454b9E', symObjAddr: 0x4010, symBinAddr: 0x12B98, symSize: 0x40 }
  - { offset: 0x425C2, size: 0x8, addend: 0x0, symName: '__ZN4core3ptr91drop_in_place$LT$$u5b$pyo3..instance..Py$LT$pyo3..types..any..PyAny$GT$$u3b$$u20$1$u5d$$GT$17hedba16e1b9786e15E', symObjAddr: 0x4194, symBinAddr: 0x12BD8, symSize: 0xA4 }
  - { offset: 0x425F1, size: 0x8, addend: 0x0, symName: '__ZN4core3ptr91drop_in_place$LT$alloc..boxed..Box$LT$dyn$u20$core..any..Any$u2b$core..marker..Send$GT$$GT$17h7ea94539dbce66cdE', symObjAddr: 0x42DC, symBinAddr: 0x12C7C, symSize: 0x80 }
  - { offset: 0x43156, size: 0x8, addend: 0x0, symName: __ZN4core3cmp3Ord3max17h40c48fd63dbfabe0E, symObjAddr: 0x5D0, symBinAddr: 0x1170C, symSize: 0x74 }
  - { offset: 0x431C4, size: 0x8, addend: 0x0, symName: __ZN4core3cmp3Ord3min17h6f36141d08bc48d4E, symObjAddr: 0x644, symBinAddr: 0x11780, symSize: 0x74 }
  - { offset: 0x432A6, size: 0x8, addend: 0x0, symName: '__ZN36_$LT$T$u20$as$u20$core..any..Any$GT$7type_id17h8516a8470ff6cc65E', symObjAddr: 0x64, symBinAddr: 0x116C8, symSize: 0x20 }
  - { offset: 0x43536, size: 0x8, addend: 0x0, symName: __ZN4core3fmt5Write9write_fmt17h9c99b13308b38f0bE, symObjAddr: 0x874, symBinAddr: 0x118FC, symSize: 0x34 }
  - { offset: 0x43583, size: 0x8, addend: 0x0, symName: '__ZN75_$LT$$RF$mut$u20$W$u20$as$u20$core..fmt..Write..write_fmt..SpecWriteFmt$GT$14spec_write_fmt17hfc433f4bc944a7e9E', symObjAddr: 0x6784, symBinAddr: 0x13884, symSize: 0x98 }
  - { offset: 0x43C2D, size: 0x8, addend: 0x0, symName: '__ZN4core3ops8function6FnOnce40call_once$u7b$$u7b$vtable.shim$u7d$$u7d$17h0bebe60755ee1a01E', symObjAddr: 0x920, symBinAddr: 0x11930, symSize: 0x24 }
  - { offset: 0x43C71, size: 0x8, addend: 0x0, symName: '__ZN4core3ops8function6FnOnce40call_once$u7b$$u7b$vtable.shim$u7d$$u7d$17h2b0daaa608f07c48E', symObjAddr: 0xA3C, symBinAddr: 0x11954, symSize: 0x30 }
  - { offset: 0x43CB1, size: 0x8, addend: 0x0, symName: '__ZN4core3ops8function6FnOnce40call_once$u7b$$u7b$vtable.shim$u7d$$u7d$17h2e69c95db547131fE', symObjAddr: 0xA94, symBinAddr: 0x11984, symSize: 0x30 }
  - { offset: 0x43CF5, size: 0x8, addend: 0x0, symName: '__ZN4core3ops8function6FnOnce40call_once$u7b$$u7b$vtable.shim$u7d$$u7d$17h4145c2fcc7c51322E', symObjAddr: 0xB3C, symBinAddr: 0x119B4, symSize: 0x30 }
  - { offset: 0x43D39, size: 0x8, addend: 0x0, symName: '__ZN4core3ops8function6FnOnce40call_once$u7b$$u7b$vtable.shim$u7d$$u7d$17h4b99086a10d58006E', symObjAddr: 0xBBC, symBinAddr: 0x119E4, symSize: 0x24 }
  - { offset: 0x43D7D, size: 0x8, addend: 0x0, symName: '__ZN4core3ops8function6FnOnce40call_once$u7b$$u7b$vtable.shim$u7d$$u7d$17h4f5734537cbe94ebE', symObjAddr: 0xBE0, symBinAddr: 0x11A08, symSize: 0x30 }
  - { offset: 0x43DBD, size: 0x8, addend: 0x0, symName: '__ZN4core3ops8function6FnOnce40call_once$u7b$$u7b$vtable.shim$u7d$$u7d$17h67ac8d1c6c017c10E', symObjAddr: 0xC48, symBinAddr: 0x11A38, symSize: 0x30 }
  - { offset: 0x43E01, size: 0x8, addend: 0x0, symName: '__ZN4core3ops8function6FnOnce40call_once$u7b$$u7b$vtable.shim$u7d$$u7d$17h897f40c5babf893aE', symObjAddr: 0xC9C, symBinAddr: 0x11A68, symSize: 0x30 }
  - { offset: 0x43E45, size: 0x8, addend: 0x0, symName: '__ZN4core3ops8function6FnOnce40call_once$u7b$$u7b$vtable.shim$u7d$$u7d$17h904921d33153cfd2E', symObjAddr: 0xCF4, symBinAddr: 0x11A98, symSize: 0x24 }
  - { offset: 0x43E89, size: 0x8, addend: 0x0, symName: '__ZN4core3ops8function6FnOnce40call_once$u7b$$u7b$vtable.shim$u7d$$u7d$17hb48b4e98ef69148cE', symObjAddr: 0xD40, symBinAddr: 0x11ABC, symSize: 0x30 }
  - { offset: 0x43ECD, size: 0x8, addend: 0x0, symName: '__ZN4core3ops8function6FnOnce40call_once$u7b$$u7b$vtable.shim$u7d$$u7d$17he92321a06b447c49E', symObjAddr: 0xEB4, symBinAddr: 0x11AEC, symSize: 0x24 }
  - { offset: 0x43F11, size: 0x8, addend: 0x0, symName: __ZN4core3ops8function6FnOnce9call_once17h012abc327bc4cf59E, symObjAddr: 0xF74, symBinAddr: 0x11B10, symSize: 0x24 }
  - { offset: 0x43F55, size: 0x8, addend: 0x0, symName: __ZN4core3ops8function6FnOnce9call_once17h1a33ff5d241d684eE, symObjAddr: 0xFE4, symBinAddr: 0x11B34, symSize: 0x2C }
  - { offset: 0x43F99, size: 0x8, addend: 0x0, symName: __ZN4core3ops8function6FnOnce9call_once17h3d0b618e6784b421E, symObjAddr: 0x1010, symBinAddr: 0x11B60, symSize: 0x4C }
  - { offset: 0x43FDD, size: 0x8, addend: 0x0, symName: __ZN4core3ops8function6FnOnce9call_once17h420a2660647b6ee8E, symObjAddr: 0x105C, symBinAddr: 0x11BAC, symSize: 0x4C }
  - { offset: 0x4401D, size: 0x8, addend: 0x0, symName: __ZN4core3ops8function6FnOnce9call_once17h45db342d8f6488ccE, symObjAddr: 0x10A8, symBinAddr: 0x11BF8, symSize: 0x34 }
  - { offset: 0x44061, size: 0x8, addend: 0x0, symName: __ZN4core3ops8function6FnOnce9call_once17h5ee12acedf72a755E, symObjAddr: 0x10DC, symBinAddr: 0x11C2C, symSize: 0x24 }
  - { offset: 0x440A5, size: 0x8, addend: 0x0, symName: __ZN4core3ops8function6FnOnce9call_once17h96610999e41869feE, symObjAddr: 0x11F0, symBinAddr: 0x11C50, symSize: 0x4C }
  - { offset: 0x440E5, size: 0x8, addend: 0x0, symName: __ZN4core3ops8function6FnOnce9call_once17ha78db1224e20b5c2E, symObjAddr: 0x1260, symBinAddr: 0x11C9C, symSize: 0x34 }
  - { offset: 0x44129, size: 0x8, addend: 0x0, symName: __ZN4core3ops8function6FnOnce9call_once17hb362cdab2f7eb939E, symObjAddr: 0x12D0, symBinAddr: 0x11CD0, symSize: 0x30 }
  - { offset: 0x4418A, size: 0x8, addend: 0x0, symName: __ZN4core3ops8function6FnOnce9call_once17he0c4533aa3131c7cE, symObjAddr: 0x13B4, symBinAddr: 0x11D00, symSize: 0x4C }
  - { offset: 0x4449F, size: 0x8, addend: 0x0, symName: '__ZN4core3str21_$LT$impl$u20$str$GT$3len17head057469001d6ccE', symObjAddr: 0x4824, symBinAddr: 0x12CFC, symSize: 0x1C }
  - { offset: 0x4454E, size: 0x8, addend: 0x0, symName: '__ZN4core3str6traits54_$LT$impl$u20$core..cmp..PartialEq$u20$for$u20$str$GT$2eq17he6e5c0a6e2f9fe5cE', symObjAddr: 0x4AFC, symBinAddr: 0x12D18, symSize: 0x4C }
  - { offset: 0x44790, size: 0x8, addend: 0x0, symName: __ZN4core4char7methods25encode_utf8_raw_unchecked17h7755ac0a73739243E, symObjAddr: 0x4EE0, symBinAddr: 0x12D64, symSize: 0x188 }
  - { offset: 0x449FC, size: 0x8, addend: 0x0, symName: '__ZN4pyo311conversions3std6string133_$LT$impl$u20$pyo3..conversion..IntoPy$LT$pyo3..instance..Py$LT$pyo3..types..any..PyAny$GT$$GT$$u20$for$u20$alloc..string..String$GT$7into_py17h12a5c25184a7b201E', symObjAddr: 0x51FC, symBinAddr: 0x12EEC, symSize: 0x8C }
  - { offset: 0x44A48, size: 0x8, addend: 0x0, symName: '__ZN4pyo311conversions3std6string80_$LT$impl$u20$pyo3..conversion..ToPyObject$u20$for$u20$alloc..string..String$GT$9to_object17h9979524108e54c42E', symObjAddr: 0x5288, symBinAddr: 0x12F78, symSize: 0x34 }
  - { offset: 0x44C32, size: 0x8, addend: 0x0, symName: '__ZN4pyo35types5tuple125_$LT$impl$u20$pyo3..conversion..IntoPy$LT$pyo3..instance..Py$LT$pyo3..types..any..PyAny$GT$$GT$$u20$for$u20$$LP$T0$C$$RP$$GT$7into_py17ha313d858194548f7E', symObjAddr: 0x5C5C, symBinAddr: 0x13498, symSize: 0x54 }
  - { offset: 0x44CB9, size: 0x8, addend: 0x0, symName: __ZN4pyo35panic14PanicException15type_object_raw11TYPE_OBJECT17h690906651727d92bE, symObjAddr: 0x51740, symBinAddr: 0x950E0, symSize: 0x0 }
  - { offset: 0x44CC6, size: 0x8, addend: 0x0, symName: '__ZN4pyo35panic14PanicException15type_object_raw28_$u7b$$u7b$closure$u7d$$u7d$17h8c9c0122da5df00dE', symObjAddr: 0x5A48, symBinAddr: 0x133C8, symSize: 0x74 }
  - { offset: 0x44D92, size: 0x8, addend: 0x0, symName: '__ZN77_$LT$pyo3..panic..PanicException$u20$as$u20$pyo3..type_object..PyTypeInfo$GT$15type_object_raw17ha5ce7e3257372723E', symObjAddr: 0x686C, symBinAddr: 0x1396C, symSize: 0x1C }
  - { offset: 0x44DF0, size: 0x8, addend: 0x0, symName: '__ZN120_$LT$pyo3..derive_utils..PyFunctionArguments$u20$as$u20$core..convert..From$LT$$RF$pyo3..types..module..PyModule$GT$$GT$4from17h5fa3ae293f6e2bcbE', symObjAddr: 0x10, symBinAddr: 0x116B4, symSize: 0x14 }
  - { offset: 0x44F22, size: 0x8, addend: 0x0, symName: '__ZN58_$LT$T$u20$as$u20$pyo3..err..err_state..PyErrArguments$GT$9arguments17h19ea35b12bb4de5aE', symObjAddr: 0x5D90, symBinAddr: 0x13548, symSize: 0x34 }
  - { offset: 0x44F71, size: 0x8, addend: 0x0, symName: '__ZN58_$LT$T$u20$as$u20$pyo3..err..err_state..PyErrArguments$GT$9arguments17hb270b68b61d8fa4fE', symObjAddr: 0x5DC4, symBinAddr: 0x1357C, symSize: 0x34 }
  - { offset: 0x4524B, size: 0x8, addend: 0x0, symName: __ZN4pyo35impl_9pymethods7get_doc17h2f73f0f2a55421e9E, symObjAddr: 0x59AC, symBinAddr: 0x1332C, symSize: 0x38 }
  - { offset: 0x45279, size: 0x8, addend: 0x0, symName: __ZN4pyo35impl_9pymethods8get_name17h6ae9d6e9c7f850b3E, symObjAddr: 0x59E4, symBinAddr: 0x13364, symSize: 0x38 }
  - { offset: 0x45392, size: 0x8, addend: 0x0, symName: __ZN4pyo311type_object10PyTypeInfo11type_object17h083f7e4fad705bb3E, symObjAddr: 0x53BC, symBinAddr: 0x12FAC, symSize: 0x20 }
  - { offset: 0x454F1, size: 0x8, addend: 0x0, symName: __ZN8pyo3_ffi10modsupport15PyModule_Create17hd53a95f872168a06E, symObjAddr: 0x6938, symBinAddr: 0x13988, symSize: 0x28 }
  - { offset: 0x4578C, size: 0x8, addend: 0x0, symName: __ZN4core3fmt2rt8Argument11new_display17h28c3df8696e00badE, symObjAddr: 0x6E8, symBinAddr: 0x117F4, symSize: 0x2C }
  - { offset: 0x457B7, size: 0x8, addend: 0x0, symName: __ZN4core3fmt2rt8Argument11new_display17h3e872e96b4af3ddcE, symObjAddr: 0x714, symBinAddr: 0x11820, symSize: 0x2C }
  - { offset: 0x45809, size: 0x8, addend: 0x0, symName: __ZN4core3fmt2rt8Argument11new_display17ha139e7f8c32e0336E, symObjAddr: 0x76C, symBinAddr: 0x1184C, symSize: 0x2C }
  - { offset: 0x4584E, size: 0x8, addend: 0x0, symName: __ZN4core3fmt2rt8Argument11new_display17ha14646d00645e958E, symObjAddr: 0x798, symBinAddr: 0x11878, symSize: 0x2C }
  - { offset: 0x458A0, size: 0x8, addend: 0x0, symName: __ZN4core3fmt2rt8Argument11new_display17he480808172fd329dE, symObjAddr: 0x7F0, symBinAddr: 0x118A4, symSize: 0x2C }
  - { offset: 0x458CB, size: 0x8, addend: 0x0, symName: __ZN4core3fmt2rt8Argument11new_display17hf2cd125536dd52feE, symObjAddr: 0x81C, symBinAddr: 0x118D0, symSize: 0x2C }
  - { offset: 0x45AB2, size: 0x8, addend: 0x0, symName: __ZN4pyo312derive_utils19PyFunctionArguments24into_py_and_maybe_module17h2e7807ef9214af46E, symObjAddr: 0x53DC, symBinAddr: 0x12FCC, symSize: 0x5C }
  - { offset: 0x45BE4, size: 0x8, addend: 0x0, symName: __ZN4pyo35impl_9pymethods11PyMethodDef13as_method_def17h2d22a764ce0879b6E, symObjAddr: 0x5514, symBinAddr: 0x13028, symSize: 0x304 }
  - { offset: 0x45D39, size: 0x8, addend: 0x0, symName: __ZN4pyo35panic14PanicException15type_object_raw17he85989165e07ef35E, symObjAddr: 0x5A1C, symBinAddr: 0x1339C, symSize: 0x2C }
  - { offset: 0x45D94, size: 0x8, addend: 0x0, symName: __ZN4pyo35panic14PanicException18from_panic_payload17h61d886910d07a141E, symObjAddr: 0x5ABC, symBinAddr: 0x5A928, symSize: 0x144 }
  - { offset: 0x45DF3, size: 0x8, addend: 0x0, symName: __ZN4pyo35panic14PanicException7new_err17h45cae3255fde0c42E, symObjAddr: 0x5C00, symBinAddr: 0x1343C, symSize: 0x34 }
  - { offset: 0x45E32, size: 0x8, addend: 0x0, symName: __ZN4pyo35panic14PanicException7new_err17h5e52de36ae5edb8eE, symObjAddr: 0x5C34, symBinAddr: 0x13470, symSize: 0x28 }
  - { offset: 0x460B7, size: 0x8, addend: 0x0, symName: __ZN5alloc6string6String4push17hace74d2722f0695eE, symObjAddr: 0x5E80, symBinAddr: 0x13638, symSize: 0x114 }
  - { offset: 0x4642E, size: 0x8, addend: 0x0, symName: __ZN5alloc6string6String8push_str17ha67710b001a9a120E, symObjAddr: 0x5F94, symBinAddr: 0x1374C, symSize: 0xDC }
  - { offset: 0x46FCE, size: 0x8, addend: 0x0, symName: '__ZN103_$LT$alloc..vec..into_iter..IntoIter$LT$T$C$A$GT$$u20$as$u20$core..iter..traits..iterator..Iterator$GT$4next17h07a64ac6ab800525E', symObjAddr: 0x0, symBinAddr: 0x139B0, symSize: 0x88 }
  - { offset: 0x46FFD, size: 0x8, addend: 0x0, symName: '__ZN103_$LT$alloc..vec..into_iter..IntoIter$LT$T$C$A$GT$$u20$as$u20$core..iter..traits..iterator..Iterator$GT$4next17h07a64ac6ab800525E', symObjAddr: 0x0, symBinAddr: 0x139B0, symSize: 0x88 }
  - { offset: 0x47157, size: 0x8, addend: 0x0, symName: '__ZN103_$LT$alloc..vec..into_iter..IntoIter$LT$T$C$A$GT$$u20$as$u20$core..iter..traits..iterator..Iterator$GT$9size_hint17h034dd5b48a6eef65E', symObjAddr: 0x27C, symBinAddr: 0x13A38, symSize: 0xB4 }
  - { offset: 0x47280, size: 0x8, addend: 0x0, symName: '__ZN157_$LT$$LT$alloc..vec..into_iter..IntoIter$LT$T$C$A$GT$$u20$as$u20$core..ops..drop..Drop$GT$..drop..DropGuard$LT$T$C$A$GT$$u20$as$u20$core..ops..drop..Drop$GT$4drop17hd70601949ab5c61bE', symObjAddr: 0x534, symBinAddr: 0x13B2C, symSize: 0x6C }
  - { offset: 0x473EC, size: 0x8, addend: 0x0, symName: '__ZN86_$LT$alloc..vec..into_iter..IntoIter$LT$T$C$A$GT$$u20$as$u20$core..ops..drop..Drop$GT$4drop17hce7e6f24c12ec1abE', symObjAddr: 0x65DC, symBinAddr: 0x1462C, symSize: 0x64 }
  - { offset: 0x4754A, size: 0x8, addend: 0x0, symName: '__ZN59_$LT$alloc..alloc..Global$u20$as$u20$core..clone..Clone$GT$5clone17h02590d85caa5ee45E', symObjAddr: 0x3E88, symBinAddr: 0x1428C, symSize: 0x10 }
  - { offset: 0x475A3, size: 0x8, addend: 0x0, symName: '__ZN63_$LT$alloc..alloc..Global$u20$as$u20$core..alloc..Allocator$GT$10deallocate17h686b1fca8021d60cE', symObjAddr: 0x47C8, symBinAddr: 0x145AC, symSize: 0x58 }
  - { offset: 0x47672, size: 0x8, addend: 0x0, symName: __ZN5alloc5alloc15exchange_malloc17h614a1916f1d184bfE, symObjAddr: 0x40FC, symBinAddr: 0x14368, symSize: 0xB0 }
  - { offset: 0x48CBB, size: 0x8, addend: 0x0, symName: '__ZN4core4iter6traits8iterator8Iterator8find_map5check28_$u7b$$u7b$closure$u7d$$u7d$17h8d31b7d2f3ada155E', symObjAddr: 0xF18, symBinAddr: 0x13B98, symSize: 0x7C }
  - { offset: 0x48D3E, size: 0x8, addend: 0x0, symName: '__ZN4core4iter6traits8iterator8Iterator8find_map5check28_$u7b$$u7b$closure$u7d$$u7d$17hb8ccffcc8da5b08aE', symObjAddr: 0xF94, symBinAddr: 0x13C14, symSize: 0x7C }
  - { offset: 0x48E6F, size: 0x8, addend: 0x0, symName: '__ZN4core5slice29_$LT$impl$u20$$u5b$T$u5d$$GT$4iter17h90567e831344b374E', symObjAddr: 0x111C, symBinAddr: 0x13C90, symSize: 0x28 }
  - { offset: 0x48EF3, size: 0x8, addend: 0x0, symName: '__ZN4core7convert3num67_$LT$impl$u20$core..convert..TryFrom$LT$i64$GT$$u20$for$u20$i32$GT$8try_from17hca98ca509ea2b46bE', symObjAddr: 0x12D0, symBinAddr: 0x13CB8, symSize: 0x7C }
  - { offset: 0x48F63, size: 0x8, addend: 0x0, symName: '__ZN4core7convert3num71_$LT$impl$u20$core..convert..TryFrom$LT$usize$GT$$u20$for$u20$isize$GT$8try_from17h85a0351467e74666E', symObjAddr: 0x148C, symBinAddr: 0x13D34, symSize: 0x5C }
  - { offset: 0x4948C, size: 0x8, addend: 0x0, symName: '__ZN69_$LT$pyo3..types..dict..PyDict$u20$as$u20$core..ops..deref..Deref$GT$5deref17h68e7f5645fe5b15cE', symObjAddr: 0x508C, symBinAddr: 0x14604, symSize: 0x14 }
  - { offset: 0x494BE, size: 0x8, addend: 0x0, symName: '__ZN91_$LT$$RF$pyo3..types..dict..PyDict$u20$as$u20$core..iter..traits..collect..IntoIterator$GT$9into_iter17hac81718d95ba6e41E', symObjAddr: 0x6780, symBinAddr: 0x14690, symSize: 0x58 }
  - { offset: 0x494F8, size: 0x8, addend: 0x0, symName: '__ZN106_$LT$pyo3..types..function..PyCFunction$u20$as$u20$core..convert..AsRef$LT$pyo3..types..any..PyAny$GT$$GT$6as_ref17h8081f0cf66603327E', symObjAddr: 0x41C, symBinAddr: 0x13AEC, symSize: 0x14 }
  - { offset: 0x495A1, size: 0x8, addend: 0x0, symName: '__ZN78_$LT$pyo3..types..function..PyCFunction$u20$as$u20$core..ops..deref..Deref$GT$5deref17h690b2f808ba0c02eE', symObjAddr: 0x624C, symBinAddr: 0x14618, symSize: 0x14 }
  - { offset: 0x4962B, size: 0x8, addend: 0x0, symName: '__ZN107_$LT$$RF$T$u20$as$u20$pyo3..conversion..IntoPy$LT$pyo3..instance..Py$LT$pyo3..types..any..PyAny$GT$$GT$$GT$7into_py17hf8c46c639e211205E', symObjAddr: 0x430, symBinAddr: 0x13B00, symSize: 0x2C }
  - { offset: 0x49683, size: 0x8, addend: 0x0, symName: __ZN4pyo310conversion13FromPyPointer21from_owned_ptr_or_err17h17575e3898844b28E, symObjAddr: 0x1530, symBinAddr: 0x13D90, symSize: 0x34 }
  - { offset: 0x496DB, size: 0x8, addend: 0x0, symName: '__ZN53_$LT$T$u20$as$u20$pyo3..conversion..FromPyPointer$GT$21from_owned_ptr_or_opt17hf91c3797e3e0f010E', symObjAddr: 0x3DB4, symBinAddr: 0x141D8, symSize: 0xB4 }
  - { offset: 0x49D9B, size: 0x8, addend: 0x0, symName: __ZN4pyo35types4dict14PyDictIterator14next_unchecked17hbf262b2476b12d13E, symObjAddr: 0x20E0, symBinAddr: 0x13DC4, symSize: 0xB0 }
  - { offset: 0x49E25, size: 0x8, addend: 0x0, symName: __ZN4pyo35types4dict6PyDict4_len17hf25fb0ada3942cd0E, symObjAddr: 0x23A0, symBinAddr: 0x13E74, symSize: 0x2C }
  - { offset: 0x49F24, size: 0x8, addend: 0x0, symName: __ZN4pyo35types8function11PyCFunction12internal_new17he59fe1ec76d75339E, symObjAddr: 0x29FC, symBinAddr: 0x13EA0, symSize: 0x338 }
  - { offset: 0x4A0F9, size: 0x8, addend: 0x0, symName: '__ZN5alloc3vec9into_iter21IntoIter$LT$T$C$A$GT$16as_raw_mut_slice17h9414d63a16ee5bd5E', symObjAddr: 0x3F64, symBinAddr: 0x1429C, symSize: 0xCC }
  - { offset: 0x4A3A4, size: 0x8, addend: 0x0, symName: __ZN5alloc5alloc6Global18alloc_impl_runtime17he89fce3731a1e824E, symObjAddr: 0x41AC, symBinAddr: 0x14418, symSize: 0x194 }
  - { offset: 0x4AA52, size: 0x8, addend: 0x0, symName: '__ZN77_$LT$alloc..raw_vec..RawVec$LT$T$C$A$GT$$u20$as$u20$core..ops..drop..Drop$GT$4drop17h59582930812141fbE', symObjAddr: 0x82F0, symBinAddr: 0x160EC, symSize: 0x30 }
  - { offset: 0x4AA8E, size: 0x8, addend: 0x0, symName: '__ZN77_$LT$alloc..raw_vec..RawVec$LT$T$C$A$GT$$u20$as$u20$core..ops..drop..Drop$GT$4drop17hc2bcff28fd09c201E', symObjAddr: 0x83EC, symBinAddr: 0x1611C, symSize: 0x34 }
  - { offset: 0x4BC28, size: 0x8, addend: 0x0, symName: '__ZN100_$LT$core..array..iter..iter_inner..PolymorphicIter$LT$DATA$GT$$u20$as$u20$core..ops..drop..Drop$GT$4drop17h9ee10532284ff757E', symObjAddr: 0x30, symBinAddr: 0x146E8, symSize: 0x30 }
  - { offset: 0x4CA6D, size: 0x8, addend: 0x0, symName: '__ZN50_$LT$T$u20$as$u20$core..convert..Into$LT$U$GT$$GT$4into17h2c4faf989aab3c3dE', symObjAddr: 0x7400, symBinAddr: 0x15D40, symSize: 0x24 }
  - { offset: 0x4CAAD, size: 0x8, addend: 0x0, symName: '__ZN50_$LT$T$u20$as$u20$core..convert..Into$LT$U$GT$$GT$4into17h358f63f7f0230d4dE', symObjAddr: 0x7424, symBinAddr: 0x15D64, symSize: 0x24 }
  - { offset: 0x4CAED, size: 0x8, addend: 0x0, symName: '__ZN50_$LT$T$u20$as$u20$core..convert..Into$LT$U$GT$$GT$4into17hc2c58560b59de8c2E', symObjAddr: 0x745C, symBinAddr: 0x15D88, symSize: 0x24 }
  - { offset: 0x4CB2D, size: 0x8, addend: 0x0, symName: '__ZN50_$LT$T$u20$as$u20$core..convert..Into$LT$U$GT$$GT$4into17hd080bfcc82060b79E', symObjAddr: 0x7480, symBinAddr: 0x15DAC, symSize: 0x28 }
  - { offset: 0x4CB6D, size: 0x8, addend: 0x0, symName: '__ZN50_$LT$T$u20$as$u20$core..convert..Into$LT$U$GT$$GT$4into17he44f574d4bc8af72E', symObjAddr: 0x74A8, symBinAddr: 0x15DD4, symSize: 0x24 }
  - { offset: 0x4CBB3, size: 0x8, addend: 0x0, symName: '__ZN53_$LT$T$u20$as$u20$core..convert..TryInto$LT$U$GT$$GT$8try_into17hbcc758303a5cd140E', symObjAddr: 0x753C, symBinAddr: 0x15DF8, symSize: 0x20 }
  - { offset: 0x4CF5F, size: 0x8, addend: 0x0, symName: '__ZN4pyo33err9err_state10PyErrState4lazy28_$u7b$$u7b$closure$u7d$$u7d$17hce996e101baa9ee4E', symObjAddr: 0x124C, symBinAddr: 0x14ED8, symSize: 0x70 }
  - { offset: 0x4CFC1, size: 0x8, addend: 0x0, symName: __ZN4pyo33err9err_state10raise_lazy17haee483783af887c0E, symObjAddr: 0x13CC, symBinAddr: 0x15058, symSize: 0x140 }
  - { offset: 0x4D089, size: 0x8, addend: 0x0, symName: '__ZN4pyo33err9err_state20PyErrStateNormalized4take28_$u7b$$u7b$closure$u7d$$u7d$17h94d0615a1fc3505bE', symObjAddr: 0x155C, symBinAddr: 0x151E8, symSize: 0x14 }
  - { offset: 0x4D0CD, size: 0x8, addend: 0x0, symName: '__ZN58_$LT$T$u20$as$u20$pyo3..err..err_state..PyErrArguments$GT$9arguments17h275436e6835cb121E', symObjAddr: 0x7638, symBinAddr: 0x15EF4, symSize: 0x28 }
  - { offset: 0x4D11B, size: 0x8, addend: 0x0, symName: '__ZN58_$LT$T$u20$as$u20$pyo3..err..err_state..PyErrArguments$GT$9arguments17hd2aa275deaa97151E', symObjAddr: 0x7660, symBinAddr: 0x15F1C, symSize: 0x28 }
  - { offset: 0x4D303, size: 0x8, addend: 0x0, symName: __ZN4pyo38instance12PyNativeType18unchecked_downcast17h8e79ccf974b0c654E, symObjAddr: 0x72E0, symBinAddr: 0x15C20, symSize: 0x70 }
  - { offset: 0x4D338, size: 0x8, addend: 0x0, symName: __ZN4pyo38instance12PyNativeType18unchecked_downcast17ha6a53a2326af49c5E, symObjAddr: 0x7350, symBinAddr: 0x15C90, symSize: 0x70 }
  - { offset: 0x4D36D, size: 0x8, addend: 0x0, symName: __ZN4pyo38instance12PyNativeType2py17h798e4e5aa2938d80E, symObjAddr: 0x73C0, symBinAddr: 0x15D00, symSize: 0x20 }
  - { offset: 0x4D39E, size: 0x8, addend: 0x0, symName: __ZN4pyo38instance12PyNativeType2py17hc9be84092d895d96E, symObjAddr: 0x73E0, symBinAddr: 0x15D20, symSize: 0x20 }
  - { offset: 0x4D452, size: 0x8, addend: 0x0, symName: __ZN4pyo35types10typeobject6PyType4name8INTERNED17h42ec860453e62ef4E, symObjAddr: 0xA3A0, symBinAddr: 0x94470, symSize: 0x0 }
  - { offset: 0x4D466, size: 0x8, addend: 0x0, symName: '__ZN103_$LT$pyo3..types..typeobject..PyType$u20$as$u20$core..convert..AsRef$LT$pyo3..types..any..PyAny$GT$$GT$6as_ref17ha15bc1d946cfbcaaE', symObjAddr: 0x1B8, symBinAddr: 0x1472C, symSize: 0x14 }
  - { offset: 0x4D50B, size: 0x8, addend: 0x0, symName: '__ZN68_$LT$pyo3..types..typeobject..PyType$u20$as$u20$core..fmt..Debug$GT$3fmt17h13e3103847a18933E', symObjAddr: 0x7E88, symBinAddr: 0x15FC8, symSize: 0xFC }
  - { offset: 0x4D57D, size: 0x8, addend: 0x0, symName: '__ZN75_$LT$pyo3..types..typeobject..PyType$u20$as$u20$core..ops..deref..Deref$GT$5deref17h8978a85c7786d74dE', symObjAddr: 0x820C, symBinAddr: 0x160D8, symSize: 0x14 }
  - { offset: 0x4D5AF, size: 0x8, addend: 0x0, symName: '__ZN81_$LT$pyo3..types..typeobject..PyType$u20$as$u20$pyo3..conversion..AsPyPointer$GT$6as_ptr17h277d79f17bd9e45bE', symObjAddr: 0x8474, symBinAddr: 0x16180, symSize: 0x24 }
  - { offset: 0x4D679, size: 0x8, addend: 0x0, symName: '__ZN101_$LT$pyo3..types..string..PyString$u20$as$u20$core..convert..AsRef$LT$pyo3..types..any..PyAny$GT$$GT$6as_ref17hbf6c67d39e89d05aE', symObjAddr: 0x60, symBinAddr: 0x14718, symSize: 0x14 }
  - { offset: 0x4D6AB, size: 0x8, addend: 0x0, symName: '__ZN141_$LT$$RF$pyo3..types..string..PyString$u20$as$u20$pyo3..conversion..IntoPy$LT$pyo3..instance..Py$LT$pyo3..types..string..PyString$GT$$GT$$GT$7into_py17h1d8c9bbc2edf35d1E', symObjAddr: 0x2C8, symBinAddr: 0x14740, symSize: 0x2C }
  - { offset: 0x4D6F6, size: 0x8, addend: 0x0, symName: '__ZN73_$LT$pyo3..types..string..PyString$u20$as$u20$core..ops..deref..Deref$GT$5deref17hc7ac85a4b46c9a50E', symObjAddr: 0x81F8, symBinAddr: 0x160C4, symSize: 0x14 }
  - { offset: 0x4D728, size: 0x8, addend: 0x0, symName: '__ZN79_$LT$pyo3..types..string..PyString$u20$as$u20$pyo3..type_object..PyTypeInfo$GT$10is_type_of17hac0f13e1eb910c2aE', symObjAddr: 0x8420, symBinAddr: 0x16150, symSize: 0x30 }
  - { offset: 0x4E182, size: 0x8, addend: 0x0, symName: '__ZN4pyo35impl_8pymodule9ModuleDef11make_module28_$u7b$$u7b$closure$u7d$$u7d$17h15581b6f85c6cc53E', symObjAddr: 0x2D0C, symBinAddr: 0x1539C, symSize: 0x190 }
  - { offset: 0x4E232, size: 0x8, addend: 0x0, symName: '__ZN4pyo35impl_8pymodule9ModuleDef11make_module28_$u7b$$u7b$closure$u7d$$u7d$17h90166357052e7e75E', symObjAddr: 0x2E9C, symBinAddr: 0x1552C, symSize: 0x30 }
  - { offset: 0x4E298, size: 0x8, addend: 0x0, symName: '__ZN49_$LT$T$u20$as$u20$pyo3..conversion..PyTryFrom$GT$18try_from_unchecked17hf44a36086ecb2803E', symObjAddr: 0x5BC, symBinAddr: 0x1478C, symSize: 0x30 }
  - { offset: 0x4E2D8, size: 0x8, addend: 0x0, symName: '__ZN49_$LT$T$u20$as$u20$pyo3..conversion..PyTryFrom$GT$8try_from17h70a42f7b5c498fc5E', symObjAddr: 0x684, symBinAddr: 0x147BC, symSize: 0x98 }
  - { offset: 0x4E33C, size: 0x8, addend: 0x0, symName: __ZN4pyo310conversion13FromPyPointer14from_owned_ptr17hc0a49afcad932acbE, symObjAddr: 0xA10, symBinAddr: 0x149E4, symSize: 0x24 }
  - { offset: 0x4E38E, size: 0x8, addend: 0x0, symName: __ZN4pyo310conversion13FromPyPointer17from_borrowed_ptr17hb91d734290714a2eE, symObjAddr: 0xA34, symBinAddr: 0x14A08, symSize: 0x24 }
  - { offset: 0x4E3E0, size: 0x8, addend: 0x0, symName: __ZN4pyo310conversion13FromPyPointer21from_owned_ptr_or_err17h6c660cecf4613a0aE, symObjAddr: 0xA58, symBinAddr: 0x14A2C, symSize: 0x34 }
  - { offset: 0x4E432, size: 0x8, addend: 0x0, symName: __ZN4pyo310conversion13FromPyPointer23from_owned_ptr_or_panic17h153e3c1f05f37c3dE, symObjAddr: 0xA8C, symBinAddr: 0x14A60, symSize: 0x34 }
  - { offset: 0x4E484, size: 0x8, addend: 0x0, symName: __ZN4pyo310conversion13FromPyPointer26from_borrowed_ptr_or_panic17hf3397f222a472bd6E, symObjAddr: 0xAC0, symBinAddr: 0x14A94, symSize: 0x34 }
  - { offset: 0x4E4DC, size: 0x8, addend: 0x0, symName: '__ZN53_$LT$T$u20$as$u20$pyo3..conversion..FromPyPointer$GT$21from_owned_ptr_or_opt17h41613d211101e23bE', symObjAddr: 0x755C, symBinAddr: 0x15E18, symSize: 0xB4 }
  - { offset: 0x4E54C, size: 0x8, addend: 0x0, symName: '__ZN53_$LT$T$u20$as$u20$pyo3..conversion..FromPyPointer$GT$24from_borrowed_ptr_or_opt17h328ac433795920ecE', symObjAddr: 0x7610, symBinAddr: 0x15ECC, symSize: 0x28 }
  - { offset: 0x4E5A5, size: 0x8, addend: 0x0, symName: __ZN4pyo315internal_tricks16extract_c_string17h1dae18257c673a47E, symObjAddr: 0xC7C, symBinAddr: 0x14AC8, symSize: 0x20C }
  - { offset: 0x4E692, size: 0x8, addend: 0x0, symName: '__ZN4pyo315internal_tricks16extract_c_string28_$u7b$$u7b$closure$u7d$$u7d$17h97ba5012c999246fE', symObjAddr: 0xE88, symBinAddr: 0x14CD4, symSize: 0x68 }
  - { offset: 0x4E6CB, size: 0x8, addend: 0x0, symName: '__ZN4pyo315internal_tricks16extract_c_string28_$u7b$$u7b$closure$u7d$$u7d$17hc0aa4e5b6517d66aE', symObjAddr: 0xEF0, symBinAddr: 0x14D3C, symSize: 0x38 }
  - { offset: 0x4EB4C, size: 0x8, addend: 0x0, symName: __ZN16parking_lot_core11parking_lot8deadlock16acquire_resource17h1e503ae02d0dbd67E, symObjAddr: 0x2F4, symBinAddr: 0x1476C, symSize: 0x10 }
  - { offset: 0x4EB76, size: 0x8, addend: 0x0, symName: __ZN16parking_lot_core11parking_lot8deadlock16release_resource17he8210579680158e5E, symObjAddr: 0x304, symBinAddr: 0x1477C, symSize: 0x10 }
  - { offset: 0x4EBFF, size: 0x8, addend: 0x0, symName: '__ZN4core3mem13manually_drop21ManuallyDrop$LT$T$GT$4drop17h35afc41840f2c148E', symObjAddr: 0x71C, symBinAddr: 0x14854, symSize: 0x20 }
  - { offset: 0x4ED99, size: 0x8, addend: 0x0, symName: '__ZN4core5array4iter10iter_inner78PolymorphicIter$LT$$u5b$core..mem..maybe_uninit..MaybeUninit$LT$T$GT$$u5d$$GT$4next17h0ef7a8c2d4dc70e6E', symObjAddr: 0x8A0, symBinAddr: 0x14874, symSize: 0x170 }
  - { offset: 0x4EFDB, size: 0x8, addend: 0x0, symName: __ZN4pyo33err9err_state10PyErrState10normalized17h04e3f6291b32dd00E, symObjAddr: 0x10E8, symBinAddr: 0x14D74, symSize: 0x3C }
  - { offset: 0x4F017, size: 0x8, addend: 0x0, symName: __ZN4pyo33err9err_state10PyErrState4lazy17h67d5f81be2e181a7E, symObjAddr: 0x1124, symBinAddr: 0x14DB0, symSize: 0x128 }
  - { offset: 0x4F08B, size: 0x8, addend: 0x0, symName: __ZN4pyo33err9err_state10PyErrState7restore17h3dda91e702f274f2E, symObjAddr: 0x12BC, symBinAddr: 0x14F48, symSize: 0x84 }
  - { offset: 0x4F101, size: 0x8, addend: 0x0, symName: __ZN4pyo33err9err_state10PyErrState9normalize17h73dbb5408ab87926E, symObjAddr: 0x1340, symBinAddr: 0x14FCC, symSize: 0x8C }
  - { offset: 0x4F191, size: 0x8, addend: 0x0, symName: __ZN4pyo33err9err_state20PyErrStateNormalized10ptraceback17h450958b8f1663769E, symObjAddr: 0x150C, symBinAddr: 0x15198, symSize: 0x2C }
  - { offset: 0x4F1CC, size: 0x8, addend: 0x0, symName: __ZN4pyo33err9err_state20PyErrStateNormalized4take17he0e353ac5caa1004E, symObjAddr: 0x1538, symBinAddr: 0x151C4, symSize: 0x24 }
  - { offset: 0x4F206, size: 0x8, addend: 0x0, symName: __ZN4pyo33err9err_state20PyErrStateNormalized5ptype17h90d7e68359257490E, symObjAddr: 0x1570, symBinAddr: 0x151FC, symSize: 0x2C }
  - { offset: 0x4F3E8, size: 0x8, addend: 0x0, symName: __ZN4pyo35impl_8pymodule9ModuleDef11make_module17h69e26eb819b783bfE, symObjAddr: 0x2B98, symBinAddr: 0x15228, symSize: 0x174 }
  - { offset: 0x4F46D, size: 0x8, addend: 0x0, symName: __ZN4pyo35types10typeobject6PyType13from_type_ptr17h3c83f080330942fbE, symObjAddr: 0x3114, symBinAddr: 0x1555C, symSize: 0x24 }
  - { offset: 0x4F4A8, size: 0x8, addend: 0x0, symName: __ZN4pyo35types10typeobject6PyType4name17h2e883b2a0b8b8b39E, symObjAddr: 0x3138, symBinAddr: 0x15580, symSize: 0xC8 }
  - { offset: 0x4F4F5, size: 0x8, addend: 0x0, symName: __ZN4pyo35types6string8PyString15to_string_lossy17he4a9fd0ac76e68b7E, symObjAddr: 0x334C, symBinAddr: 0x15648, symSize: 0x128 }
  - { offset: 0x4F551, size: 0x8, addend: 0x0, symName: __ZN4pyo35types6string8PyString3new17hd5c90cf5853c92dfE, symObjAddr: 0x3474, symBinAddr: 0x15770, symSize: 0x54 }
  - { offset: 0x4F5C6, size: 0x8, addend: 0x0, symName: __ZN4pyo35types6string8PyString6intern17h7182c84325b46799E, symObjAddr: 0x34C8, symBinAddr: 0x157C4, symSize: 0x78 }
  - { offset: 0x4F658, size: 0x8, addend: 0x0, symName: __ZN4pyo35types6string8PyString6to_str17h5b7e5be0dfc5e240E, symObjAddr: 0x3540, symBinAddr: 0x1583C, symSize: 0xD0 }
  - { offset: 0x4F6DB, size: 0x8, addend: 0x0, symName: __ZN4pyo36marker6Python14from_owned_ptr17h1d21ef67cb312c24E, symObjAddr: 0x3740, symBinAddr: 0x1590C, symSize: 0x24 }
  - { offset: 0x4F749, size: 0x8, addend: 0x0, symName: __ZN4pyo36marker6Python14from_owned_ptr17h544d0b412a3e4c8aE, symObjAddr: 0x37D0, symBinAddr: 0x15930, symSize: 0x24 }
  - { offset: 0x4F7AA, size: 0x8, addend: 0x0, symName: __ZN4pyo36marker6Python14from_owned_ptr17ha36f5c052a97eec1E, symObjAddr: 0x3818, symBinAddr: 0x15954, symSize: 0x24 }
  - { offset: 0x4F80B, size: 0x8, addend: 0x0, symName: __ZN4pyo36marker6Python14from_owned_ptr17hd29afe10d99c0cd6E, symObjAddr: 0x3860, symBinAddr: 0x15978, symSize: 0x24 }
  - { offset: 0x4F85F, size: 0x8, addend: 0x0, symName: __ZN4pyo36marker6Python14from_owned_ptr17hd883843e35eee8ddE, symObjAddr: 0x38A8, symBinAddr: 0x1599C, symSize: 0x24 }
  - { offset: 0x4F8B3, size: 0x8, addend: 0x0, symName: __ZN4pyo36marker6Python17from_borrowed_ptr17h573b9b6dee1aa308E, symObjAddr: 0x38F0, symBinAddr: 0x159C0, symSize: 0x24 }
  - { offset: 0x4F907, size: 0x8, addend: 0x0, symName: __ZN4pyo36marker6Python17from_borrowed_ptr17h6b6afe10e41ffcebE, symObjAddr: 0x3914, symBinAddr: 0x159E4, symSize: 0x24 }
  - { offset: 0x4F94E, size: 0x8, addend: 0x0, symName: __ZN4pyo36marker6Python19assume_gil_acquired17h2154bc55aa9c13bfE, symObjAddr: 0x395C, symBinAddr: 0x15A08, symSize: 0x4 }
  - { offset: 0x4F97B, size: 0x8, addend: 0x0, symName: __ZN4pyo36marker6Python21from_owned_ptr_or_err17h1493f122e331393fE, symObjAddr: 0x3984, symBinAddr: 0x15A0C, symSize: 0x24 }
  - { offset: 0x4F9CF, size: 0x8, addend: 0x0, symName: __ZN4pyo36marker6Python21from_owned_ptr_or_err17h60cf34b49997a49fE, symObjAddr: 0x39F0, symBinAddr: 0x15A30, symSize: 0x24 }
  - { offset: 0x4FA23, size: 0x8, addend: 0x0, symName: __ZN4pyo36marker6Python21from_owned_ptr_or_err17hf7c712f653520e53E, symObjAddr: 0x3AC8, symBinAddr: 0x15A54, symSize: 0x24 }
  - { offset: 0x4FA6A, size: 0x8, addend: 0x0, symName: __ZN4pyo36marker6Python21from_owned_ptr_or_opt17h05b07f715fd56ddeE, symObjAddr: 0x3B10, symBinAddr: 0x15A78, symSize: 0x24 }
  - { offset: 0x4FAB1, size: 0x8, addend: 0x0, symName: __ZN4pyo36marker6Python21from_owned_ptr_or_opt17h19356c86f524726aE, symObjAddr: 0x3B58, symBinAddr: 0x15A9C, symSize: 0x24 }
  - { offset: 0x4FAF8, size: 0x8, addend: 0x0, symName: __ZN4pyo36marker6Python24from_borrowed_ptr_or_err17hfb6130baa576f507E, symObjAddr: 0x3B7C, symBinAddr: 0x15AC0, symSize: 0x24 }
  - { offset: 0x4FB3F, size: 0x8, addend: 0x0, symName: __ZN4pyo36marker6Python4None17h77bca9f705465c9fE, symObjAddr: 0x3C54, symBinAddr: 0x15AE4, symSize: 0x28 }
  - { offset: 0x4FB6E, size: 0x8, addend: 0x0, symName: __ZN4pyo36marker6Python8get_type17hb0ea17b5263a6035E, symObjAddr: 0x3D78, symBinAddr: 0x15B0C, symSize: 0x1C }
  - { offset: 0x4FBA6, size: 0x8, addend: 0x0, symName: __ZN4pyo36marker6Python8get_type17hc8274a64a8de0b6bE, symObjAddr: 0x3D94, symBinAddr: 0x15B28, symSize: 0x1C }
  - { offset: 0x4FBF8, size: 0x8, addend: 0x0, symName: __ZN4pyo36marker6Python8with_gil17hf2a680eddd4dc11dE, symObjAddr: 0x4398, symBinAddr: 0x15B44, symSize: 0xDC }
  - { offset: 0x4FC95, size: 0x8, addend: 0x0, symName: '__ZN5alloc7raw_vec19RawVec$LT$T$C$A$GT$8grow_one17h30bac6d118bf7eebE', symObjAddr: 0x7798, symBinAddr: 0x15F44, symSize: 0x84 }
  - { offset: 0x4FDF3, size: 0x8, addend: 0x0, symName: '__ZN45_$LT$T$u20$as$u20$alloc..string..ToString$GT$9to_string17hbeb6722aeace094bE', symObjAddr: 0xC68, symBinAddr: 0x162EC, symSize: 0x24 }
  - { offset: 0x4FE30, size: 0x8, addend: 0x0, symName: '__ZN49_$LT$T$u20$as$u20$alloc..string..SpecToString$GT$14spec_to_string17hcbe1cf830d6a870cE', symObjAddr: 0xE98, symBinAddr: 0x16310, symSize: 0xF4 }
  - { offset: 0x50704, size: 0x8, addend: 0x0, symName: '__ZN70_$LT$core..num..error..TryFromIntError$u20$as$u20$core..fmt..Debug$GT$3fmt17h0ad9e14c0f537f87E', symObjAddr: 0x5DA4, symBinAddr: 0x17838, symSize: 0x54 }
  - { offset: 0x50DE8, size: 0x8, addend: 0x0, symName: '__ZN91_$LT$core..slice..iter..Iter$LT$T$GT$$u20$as$u20$core..iter..traits..iterator..Iterator$GT$24__iterator_get_unchecked17h87aca8208781c6e5E', symObjAddr: 0x61EC, symBinAddr: 0x179A0, symSize: 0x20 }
  - { offset: 0x50E43, size: 0x8, addend: 0x0, symName: '__ZN91_$LT$core..slice..iter..Iter$LT$T$GT$$u20$as$u20$core..iter..traits..iterator..Iterator$GT$24__iterator_get_unchecked17hb36cbeb05c3acae4E', symObjAddr: 0x620C, symBinAddr: 0x179C0, symSize: 0x28 }
  - { offset: 0x50E9E, size: 0x8, addend: 0x0, symName: '__ZN91_$LT$core..slice..iter..Iter$LT$T$GT$$u20$as$u20$core..iter..traits..iterator..Iterator$GT$4next17h8097b901f8b7ae74E', symObjAddr: 0x63BC, symBinAddr: 0x179E8, symSize: 0x84 }
  - { offset: 0x50F54, size: 0x8, addend: 0x0, symName: '__ZN91_$LT$core..slice..iter..Iter$LT$T$GT$$u20$as$u20$core..iter..traits..iterator..Iterator$GT$4next17hae5c52bb2c03759cE', symObjAddr: 0x64C4, symBinAddr: 0x17A6C, symSize: 0x84 }
  - { offset: 0x5100A, size: 0x8, addend: 0x0, symName: '__ZN91_$LT$core..slice..iter..Iter$LT$T$GT$$u20$as$u20$core..iter..traits..iterator..Iterator$GT$9size_hint17h1f51b739116b13a7E', symObjAddr: 0x6548, symBinAddr: 0x17AF0, symSize: 0xB4 }
  - { offset: 0x51137, size: 0x8, addend: 0x0, symName: '__ZN91_$LT$core..slice..iter..Iter$LT$T$GT$$u20$as$u20$core..iter..traits..iterator..Iterator$GT$9size_hint17h4dc367956478397bE', symObjAddr: 0x66B0, symBinAddr: 0x17BA4, symSize: 0xB4 }
  - { offset: 0x51264, size: 0x8, addend: 0x0, symName: '__ZN91_$LT$core..slice..iter..Iter$LT$T$GT$$u20$as$u20$core..iter..traits..iterator..Iterator$GT$9size_hint17ha09af121911a4827E', symObjAddr: 0x6764, symBinAddr: 0x17C58, symSize: 0xB4 }
  - { offset: 0x513DF, size: 0x8, addend: 0x0, symName: '__ZN31_$LT$dyn$u20$core..any..Any$GT$12downcast_ref17ha0a7894a04eb3d70E', symObjAddr: 0x418, symBinAddr: 0x161A4, symSize: 0xA4 }
  - { offset: 0x514D0, size: 0x8, addend: 0x0, symName: '__ZN31_$LT$dyn$u20$core..any..Any$GT$12downcast_ref17hf17a5c6c916b8a71E', symObjAddr: 0x4BC, symBinAddr: 0x16248, symSize: 0xA4 }
  - { offset: 0x5163B, size: 0x8, addend: 0x0, symName: '__ZN54_$LT$dyn$u20$core..any..Any$u2b$core..marker..Send$GT$12downcast_ref17h7ed480d98a75538cE', symObjAddr: 0x4F00, symBinAddr: 0x177CC, symSize: 0x2C }
  - { offset: 0x51672, size: 0x8, addend: 0x0, symName: '__ZN54_$LT$dyn$u20$core..any..Any$u2b$core..marker..Send$GT$12downcast_ref17h934adf81128e5a90E', symObjAddr: 0x4F2C, symBinAddr: 0x177F8, symSize: 0x2C }
  - { offset: 0x517AC, size: 0x8, addend: 0x0, symName: '__ZN4core3fmt3num52_$LT$impl$u20$core..fmt..Debug$u20$for$u20$usize$GT$3fmt17h2514a3a351190fd8E', symObjAddr: 0x133C, symBinAddr: 0x164CC, symSize: 0x90 }
  - { offset: 0x51F2D, size: 0x8, addend: 0x0, symName: __ZN4core4iter8adapters3zip27TrustedRandomAccessNoCoerce4size17h36cae0eae7454004E, symObjAddr: 0x1754, symBinAddr: 0x16678, symSize: 0x2C }
  - { offset: 0x51F64, size: 0x8, addend: 0x0, symName: __ZN4core4iter8adapters3zip27TrustedRandomAccessNoCoerce4size17he82d19fd32f5efedE, symObjAddr: 0x17AC, symBinAddr: 0x166A4, symSize: 0x2C }
  - { offset: 0x5204E, size: 0x8, addend: 0x0, symName: __ZN4core4iter6traits8iterator8Iterator3zip17hac14e0b3875a518fE, symObjAddr: 0x13CC, symBinAddr: 0x1655C, symSize: 0xC8 }
  - { offset: 0x520C4, size: 0x8, addend: 0x0, symName: __ZN4core4iter6traits8iterator8Iterator4take17h7f94c86daff39b1fE, symObjAddr: 0x155C, symBinAddr: 0x16624, symSize: 0x2C }
  - { offset: 0x5211F, size: 0x8, addend: 0x0, symName: __ZN4core4iter6traits8iterator8Iterator9enumerate17h036ad628a8577a0dE, symObjAddr: 0x1700, symBinAddr: 0x16650, symSize: 0x28 }
  - { offset: 0x5224D, size: 0x8, addend: 0x0, symName: __ZN4pyo35types6module7__all__8INTERNED17he9680aa4a9241b89E, symObjAddr: 0x7B78, symBinAddr: 0x94488, symSize: 0x0 }
  - { offset: 0x5226D, size: 0x8, addend: 0x0, symName: __ZN4pyo35types6module8__name__8INTERNED17h8d93f2433ee42babE, symObjAddr: 0x7B90, symBinAddr: 0x944A0, symSize: 0x0 }
  - { offset: 0x5227B, size: 0x8, addend: 0x0, symName: __ZN4pyo35types6module7__all__17h0d8c2714bed88fabE, symObjAddr: 0x35C8, symBinAddr: 0x16EF4, symSize: 0x24 }
  - { offset: 0x5246B, size: 0x8, addend: 0x0, symName: __ZN4pyo35types6module8__name__17hd768fdb68094491fE, symObjAddr: 0x4A78, symBinAddr: 0x17538, symSize: 0x24 }
  - { offset: 0x524AA, size: 0x8, addend: 0x0, symName: '__ZN73_$LT$pyo3..types..module..PyModule$u20$as$u20$core..ops..deref..Deref$GT$5deref17hc5ec9b192277eaedE', symObjAddr: 0x5E0C, symBinAddr: 0x178A0, symSize: 0x14 }
  - { offset: 0x52682, size: 0x8, addend: 0x0, symName: __ZN4pyo35types4list6PyList6append5inner17hf50a75c88012c705E, symObjAddr: 0x30A8, symBinAddr: 0x16DA0, symSize: 0xBC }
  - { offset: 0x526C3, size: 0x8, addend: 0x0, symName: '__ZN69_$LT$pyo3..types..list..PyList$u20$as$u20$core..ops..deref..Deref$GT$5deref17h3b574c7f86edbb03E', symObjAddr: 0x5D90, symBinAddr: 0x17824, symSize: 0x14 }
  - { offset: 0x526F5, size: 0x8, addend: 0x0, symName: '__ZN74_$LT$pyo3..types..list..PyList$u20$as$u20$pyo3..conversion..ToPyObject$GT$9to_object17h1e3abd2abf8b95eeE', symObjAddr: 0x5E20, symBinAddr: 0x178B4, symSize: 0x2C }
  - { offset: 0x52740, size: 0x8, addend: 0x0, symName: '__ZN75_$LT$pyo3..types..list..PyList$u20$as$u20$pyo3..type_object..PyTypeInfo$GT$10is_type_of17h739417cd8ba012d4E', symObjAddr: 0x5E7C, symBinAddr: 0x178E0, symSize: 0x30 }
  - { offset: 0x52811, size: 0x8, addend: 0x0, symName: '__ZN71_$LT$pyo3..types..bytes..PyBytes$u20$as$u20$core..ops..deref..Deref$GT$5deref17h2a4b9f4610c8c6faE', symObjAddr: 0x5DF8, symBinAddr: 0x1788C, symSize: 0x14 }
  - { offset: 0x52943, size: 0x8, addend: 0x0, symName: __ZN4pyo38instance12PyNativeType18unchecked_downcast17h913d1b993966f561E, symObjAddr: 0x4AB8, symBinAddr: 0x1755C, symSize: 0x70 }
  - { offset: 0x52978, size: 0x8, addend: 0x0, symName: __ZN4pyo38instance12PyNativeType18unchecked_downcast17h9efabca94fd61fcaE, symObjAddr: 0x4B28, symBinAddr: 0x175CC, symSize: 0x70 }
  - { offset: 0x529B9, size: 0x8, addend: 0x0, symName: '__ZN49_$LT$T$u20$as$u20$pyo3..conversion..PyTryFrom$GT$18try_from_unchecked17h701b6bab07328199E', symObjAddr: 0xFBC, symBinAddr: 0x16404, symSize: 0x30 }
  - { offset: 0x529F9, size: 0x8, addend: 0x0, symName: '__ZN49_$LT$T$u20$as$u20$pyo3..conversion..PyTryFrom$GT$8try_from17h3fc843e4ae4a06f8E', symObjAddr: 0x10E4, symBinAddr: 0x16434, symSize: 0x98 }
  - { offset: 0x52A5D, size: 0x8, addend: 0x0, symName: __ZN4pyo310conversion13FromPyPointer14from_owned_ptr17h1370fedaf1cbd161E, symObjAddr: 0x18D0, symBinAddr: 0x16778, symSize: 0x24 }
  - { offset: 0x52AAF, size: 0x8, addend: 0x0, symName: __ZN4pyo310conversion13FromPyPointer14from_owned_ptr17ha43c50461e4ad1b3E, symObjAddr: 0x18F4, symBinAddr: 0x1679C, symSize: 0x24 }
  - { offset: 0x52B01, size: 0x8, addend: 0x0, symName: __ZN4pyo310conversion13FromPyPointer23from_owned_ptr_or_panic17h54c88315729cc329E, symObjAddr: 0x1980, symBinAddr: 0x167C0, symSize: 0x34 }
  - { offset: 0x52B53, size: 0x8, addend: 0x0, symName: __ZN4pyo310conversion13FromPyPointer23from_owned_ptr_or_panic17hc33560d633fa9e2eE, symObjAddr: 0x19B4, symBinAddr: 0x167F4, symSize: 0x34 }
  - { offset: 0x52BAB, size: 0x8, addend: 0x0, symName: '__ZN53_$LT$T$u20$as$u20$pyo3..conversion..FromPyPointer$GT$21from_owned_ptr_or_opt17hc16faea0a6bcab51E', symObjAddr: 0x4D70, symBinAddr: 0x1763C, symSize: 0xB4 }
  - { offset: 0x52C1B, size: 0x8, addend: 0x0, symName: '__ZN53_$LT$T$u20$as$u20$pyo3..conversion..FromPyPointer$GT$21from_owned_ptr_or_opt17hca57d1908678b152E', symObjAddr: 0x4E24, symBinAddr: 0x176F0, symSize: 0xB4 }
  - { offset: 0x52C91, size: 0x8, addend: 0x0, symName: '__ZN54_$LT$$RF$T$u20$as$u20$pyo3..conversion..ToPyObject$GT$9to_object17hcd3420096eba66b3E', symObjAddr: 0x4ED8, symBinAddr: 0x177A4, symSize: 0x28 }
  - { offset: 0x52D3D, size: 0x8, addend: 0x0, symName: '__ZN4pyo311conversions3std3num115_$LT$impl$u20$pyo3..conversion..IntoPy$LT$pyo3..instance..Py$LT$pyo3..types..any..PyAny$GT$$GT$$u20$for$u20$i32$GT$7into_py17hc71c363a3f2a0624E', symObjAddr: 0x1B1C, symBinAddr: 0x16828, symSize: 0x2C }
  - { offset: 0x52D83, size: 0x8, addend: 0x0, symName: __ZN4pyo311conversions3std3num20err_if_invalid_value17h6d8ad5e49e66b77bE, symObjAddr: 0x1C2C, symBinAddr: 0x16854, symSize: 0xC8 }
  - { offset: 0x52E02, size: 0x8, addend: 0x0, symName: __ZN4pyo311conversions3std3num20err_if_invalid_value17hc6e1b60925e76337E, symObjAddr: 0x1CF4, symBinAddr: 0x1691C, symSize: 0xC8 }
  - { offset: 0x52E86, size: 0x8, addend: 0x0, symName: '__ZN4pyo311conversions3std3num64_$LT$impl$u20$pyo3..conversion..FromPyObject$u20$for$u20$i32$GT$7extract17hb0ea0d2cf78cb3b8E', symObjAddr: 0x238C, symBinAddr: 0x169E4, symSize: 0x13C }
  - { offset: 0x52F62, size: 0x8, addend: 0x0, symName: '__ZN4pyo311conversions3std3num64_$LT$impl$u20$pyo3..conversion..FromPyObject$u20$for$u20$i32$GT$7extract28_$u7b$$u7b$closure$u7d$$u7d$17hf0bb050e5d837a7eE', symObjAddr: 0x24C8, symBinAddr: 0x16B20, symSize: 0x38 }
  - { offset: 0x52FB1, size: 0x8, addend: 0x0, symName: '__ZN4pyo311conversions3std3num64_$LT$impl$u20$pyo3..conversion..FromPyObject$u20$for$u20$u64$GT$7extract17h511cd0eed2797a4dE', symObjAddr: 0x295C, symBinAddr: 0x16B58, symSize: 0xCC }
  - { offset: 0x5304F, size: 0x8, addend: 0x0, symName: '__ZN4pyo311conversions3std3num66_$LT$impl$u20$pyo3..conversion..FromPyObject$u20$for$u20$usize$GT$7extract17hb10484a9b92e185cE', symObjAddr: 0x2BF0, symBinAddr: 0x16C24, symSize: 0x9C }
  - { offset: 0x530BB, size: 0x8, addend: 0x0, symName: '__ZN4pyo311conversions3std3num66_$LT$impl$u20$pyo3..conversion..FromPyObject$u20$for$u20$usize$GT$7extract28_$u7b$$u7b$closure$u7d$$u7d$17hf6ef0ee86bd00d90E', symObjAddr: 0x2C8C, symBinAddr: 0x16CC0, symSize: 0x38 }
  - { offset: 0x53335, size: 0x8, addend: 0x0, symName: __ZN8pyo3_ffi8pyerrors22PyExceptionClass_Check17h922b3fbca2ca30b7E, symObjAddr: 0x6110, symBinAddr: 0x17910, symSize: 0x60 }
  - { offset: 0x53361, size: 0x8, addend: 0x0, symName: __ZN8pyo3_ffi8pyerrors25PyExceptionInstance_Check17hf766aad92a1673ceE, symObjAddr: 0x6170, symBinAddr: 0x17970, symSize: 0x30 }
  - { offset: 0x536C4, size: 0x8, addend: 0x0, symName: '__ZN4core5slice4iter13Iter$LT$T$GT$3new17hc2298b8f1088009eE', symObjAddr: 0x17D8, symBinAddr: 0x166D0, symSize: 0x58 }
  - { offset: 0x53874, size: 0x8, addend: 0x0, symName: '__ZN4core5slice4iter13Iter$LT$T$GT$3new17hfaccc954e92c0b6bE', symObjAddr: 0x1830, symBinAddr: 0x16728, symSize: 0x50 }
  - { offset: 0x53A0F, size: 0x8, addend: 0x0, symName: __ZN4pyo35types4list6PyList5empty17hbd6101f965a825ceE, symObjAddr: 0x3000, symBinAddr: 0x16CF8, symSize: 0x24 }
  - { offset: 0x53A3C, size: 0x8, addend: 0x0, symName: __ZN4pyo35types4list6PyList6append17hadb64e7284e69eb8E, symObjAddr: 0x3024, symBinAddr: 0x16D1C, symSize: 0x84 }
  - { offset: 0x53AAD, size: 0x8, addend: 0x0, symName: __ZN4pyo35types5bytes7PyBytes8as_bytes17h3d50c01396fbaf80E, symObjAddr: 0x3504, symBinAddr: 0x16E5C, symSize: 0x98 }
  - { offset: 0x53B13, size: 0x8, addend: 0x0, symName: __ZN4pyo35types6module8PyModule12add_function17h4188eb7d27fe37f1E, symObjAddr: 0x37D0, symBinAddr: 0x16F18, symSize: 0x150 }
  - { offset: 0x53BA4, size: 0x8, addend: 0x0, symName: __ZN4pyo35types6module8PyModule3add17hc5a001b3ed0d86d6E, symObjAddr: 0x3D6C, symBinAddr: 0x17068, symSize: 0x1B8 }
  - { offset: 0x53C19, size: 0x8, addend: 0x0, symName: __ZN4pyo35types6module8PyModule4name17hd427ef01e2a4a480E, symObjAddr: 0x4098, symBinAddr: 0x17220, symSize: 0xD4 }
  - { offset: 0x53C75, size: 0x8, addend: 0x0, symName: __ZN4pyo35types6module8PyModule5index17ha6a9e57655a68d11E, symObjAddr: 0x416C, symBinAddr: 0x172F4, symSize: 0x244 }
  - { offset: 0x54A3E, size: 0x8, addend: 0x0, symName: '__ZN4core3cmp5impls54_$LT$impl$u20$core..cmp..PartialEq$u20$for$u20$i32$GT$2ne17h787bc94b20a657a2E', symObjAddr: 0x9F4, symBinAddr: 0x181D4, symSize: 0x2C }
  - { offset: 0x54A81, size: 0x8, addend: 0x0, symName: '__ZN4core3cmp5impls54_$LT$impl$u20$core..cmp..PartialEq$u20$for$u20$i64$GT$2eq17hc6617b8c284b502dE', symObjAddr: 0xA20, symBinAddr: 0x18200, symSize: 0x2C }
  - { offset: 0x54ABE, size: 0x8, addend: 0x0, symName: '__ZN4core3cmp5impls54_$LT$impl$u20$core..cmp..PartialEq$u20$for$u20$i64$GT$2ne17haa07d21667662ed3E', symObjAddr: 0xA4C, symBinAddr: 0x1822C, symSize: 0x2C }
  - { offset: 0x54B01, size: 0x8, addend: 0x0, symName: '__ZN4core3cmp5impls54_$LT$impl$u20$core..cmp..PartialEq$u20$for$u20$u64$GT$2eq17h8b241b62a7aa2be8E', symObjAddr: 0xA78, symBinAddr: 0x18258, symSize: 0x2C }
  - { offset: 0x54B44, size: 0x8, addend: 0x0, symName: '__ZN4core3cmp5impls56_$LT$impl$u20$core..cmp..PartialEq$u20$for$u20$isize$GT$2ne17h4578f99d11a7a091E', symObjAddr: 0xAE0, symBinAddr: 0x18284, symSize: 0x2C }
  - { offset: 0x54B87, size: 0x8, addend: 0x0, symName: '__ZN4core3cmp5impls69_$LT$impl$u20$core..cmp..PartialEq$LT$$RF$B$GT$$u20$for$u20$$RF$A$GT$2eq17h07494e77dd6d5065E', symObjAddr: 0xB38, symBinAddr: 0x182B0, symSize: 0x44 }
  - { offset: 0x54EB4, size: 0x8, addend: 0x0, symName: __ZN4core5slice3raw14from_raw_parts17hf289db9f9404b6e8E, symObjAddr: 0xBC8, symBinAddr: 0x1830C, symSize: 0x58 }
  - { offset: 0x54EFC, size: 0x8, addend: 0x0, symName: __ZN4core5slice3raw14from_raw_parts18precondition_check17h012ca36e256cf4e0E, symObjAddr: 0xC20, symBinAddr: 0x18364, symSize: 0x10C }
  - { offset: 0x5501E, size: 0x8, addend: 0x0, symName: '__ZN73_$LT$$u5b$A$u5d$$u20$as$u20$core..slice..cmp..SlicePartialEq$LT$B$GT$$GT$5equal17hf24ff40c3e4c9a65E', symObjAddr: 0x35EC, symBinAddr: 0x18DF0, symSize: 0x88 }
  - { offset: 0x55360, size: 0x8, addend: 0x0, symName: '__ZN42_$LT$$RF$T$u20$as$u20$core..fmt..Debug$GT$3fmt17h0561143ae8527178E', symObjAddr: 0x8BC, symBinAddr: 0x181A4, symSize: 0x30 }
  - { offset: 0x55408, size: 0x8, addend: 0x0, symName: __ZN4core3str8converts19from_utf8_unchecked17hfd6cb9c9bcbd81edE, symObjAddr: 0xBB0, symBinAddr: 0x182F4, symSize: 0x18 }
  - { offset: 0x55505, size: 0x8, addend: 0x0, symName: '__ZN4core5tuple66_$LT$impl$u20$core..default..Default$u20$for$u20$$LP$U$C$T$RP$$GT$7default17h641b572a4546c6bdE', symObjAddr: 0xE90, symBinAddr: 0x18470, symSize: 0x8C }
  - { offset: 0x556C9, size: 0x8, addend: 0x0, symName: '__ZN50_$LT$T$u20$as$u20$core..convert..Into$LT$U$GT$$GT$4into17hbce19a377eb2bb6aE', symObjAddr: 0x11D0, symBinAddr: 0x18594, symSize: 0x24 }
  - { offset: 0x56307, size: 0x8, addend: 0x0, symName: '__ZN5alloc3vec16Vec$LT$T$C$A$GT$7set_len18precondition_check17h084d6d7d02af2502E', symObjAddr: 0x2488, symBinAddr: 0x18A68, symSize: 0x60 }
  - { offset: 0x565A5, size: 0x8, addend: 0x0, symName: '__ZN111_$LT$alloc..vec..Vec$LT$T$GT$$u20$as$u20$alloc..vec..spec_from_iter_nested..SpecFromIterNested$LT$T$C$I$GT$$GT$9from_iter17h000a7219d8efa620E', symObjAddr: 0x1E0, symBinAddr: 0x17D0C, symSize: 0x24C }
  - { offset: 0x56804, size: 0x8, addend: 0x0, symName: '__ZN111_$LT$alloc..vec..Vec$LT$T$GT$$u20$as$u20$alloc..vec..spec_from_iter_nested..SpecFromIterNested$LT$T$C$I$GT$$GT$9from_iter17h7010f010b33e456aE', symObjAddr: 0x670, symBinAddr: 0x17F58, symSize: 0x24C }
  - { offset: 0x56D08, size: 0x8, addend: 0x0, symName: '__ZN72_$LT$alloc..vec..Vec$LT$T$C$A$GT$$u20$as$u20$core..ops..deref..Deref$GT$5deref17h7bc419cd11571bfdE', symObjAddr: 0x35AC, symBinAddr: 0x18DD0, symSize: 0x20 }
  - { offset: 0x56DCB, size: 0x8, addend: 0x0, symName: '__ZN67_$LT$alloc..vec..Vec$LT$T$GT$$u20$as$u20$core..default..Default$GT$7default17hd48051491864aa65E', symObjAddr: 0x33E0, symBinAddr: 0x18D74, symSize: 0x14 }
  - { offset: 0x56DED, size: 0x8, addend: 0x0, symName: '__ZN67_$LT$alloc..vec..Vec$LT$T$GT$$u20$as$u20$core..default..Default$GT$7default17hd48051491864aa65E', symObjAddr: 0x33E0, symBinAddr: 0x18D74, symSize: 0x14 }
  - { offset: 0x56E0E, size: 0x8, addend: 0x0, symName: '__ZN70_$LT$alloc..vec..Vec$LT$T$C$A$GT$$u20$as$u20$core..ops..drop..Drop$GT$4drop17h2274e60f272e63aeE', symObjAddr: 0x3440, symBinAddr: 0x18D88, symSize: 0x24 }
  - { offset: 0x56EBE, size: 0x8, addend: 0x0, symName: '__ZN70_$LT$alloc..vec..Vec$LT$T$C$A$GT$$u20$as$u20$core..ops..drop..Drop$GT$4drop17h98ab19f44e7a9a2cE', symObjAddr: 0x3508, symBinAddr: 0x18DAC, symSize: 0x24 }
  - { offset: 0x56F74, size: 0x8, addend: 0x0, symName: '__ZN90_$LT$alloc..vec..Vec$LT$T$C$A$GT$$u20$as$u20$core..iter..traits..collect..IntoIterator$GT$9into_iter17hd481d2c043f82540E', symObjAddr: 0x39AC, symBinAddr: 0x18E78, symSize: 0xA8 }
  - { offset: 0x57171, size: 0x8, addend: 0x0, symName: '__ZN95_$LT$alloc..vec..Vec$LT$T$GT$$u20$as$u20$core..iter..traits..collect..FromIterator$LT$T$GT$$GT$9from_iter17h372644ba7071db0bE', symObjAddr: 0x3A54, symBinAddr: 0x18F20, symSize: 0x34 }
  - { offset: 0x571B2, size: 0x8, addend: 0x0, symName: '__ZN95_$LT$alloc..vec..Vec$LT$T$GT$$u20$as$u20$core..iter..traits..collect..FromIterator$LT$T$GT$$GT$9from_iter17hb464c2248f346facE', symObjAddr: 0x3A88, symBinAddr: 0x18F54, symSize: 0x34 }
  - { offset: 0x571FE, size: 0x8, addend: 0x0, symName: '__ZN97_$LT$alloc..vec..Vec$LT$T$C$A$GT$$u20$as$u20$alloc..vec..spec_extend..SpecExtend$LT$T$C$I$GT$$GT$11spec_extend17h567d3db91c35633eE', symObjAddr: 0x3AF0, symBinAddr: 0x18F88, symSize: 0x24 }
  - { offset: 0x57250, size: 0x8, addend: 0x0, symName: '__ZN97_$LT$alloc..vec..Vec$LT$T$C$A$GT$$u20$as$u20$alloc..vec..spec_extend..SpecExtend$LT$T$C$I$GT$$GT$11spec_extend17hf9e9e96b172bb274E', symObjAddr: 0x3B38, symBinAddr: 0x18FAC, symSize: 0x24 }
  - { offset: 0x572AE, size: 0x8, addend: 0x0, symName: '__ZN98_$LT$alloc..vec..Vec$LT$T$GT$$u20$as$u20$alloc..vec..spec_from_iter..SpecFromIter$LT$T$C$I$GT$$GT$9from_iter17h6bdd1b2adecaf700E', symObjAddr: 0x3B84, symBinAddr: 0x18FE4, symSize: 0x14 }
  - { offset: 0x572ED, size: 0x8, addend: 0x0, symName: '__ZN98_$LT$alloc..vec..Vec$LT$T$GT$$u20$as$u20$alloc..vec..spec_from_iter..SpecFromIter$LT$T$C$I$GT$$GT$9from_iter17hbe108e82f284d2a4E', symObjAddr: 0x3B98, symBinAddr: 0x18FF8, symSize: 0x14 }
  - { offset: 0x5795B, size: 0x8, addend: 0x0, symName: __ZN4pyo310conversion13FromPyPointer17from_borrowed_ptr17hdb5d7a37b457d55eE, symObjAddr: 0xF1C, symBinAddr: 0x184FC, symSize: 0x24 }
  - { offset: 0x579AD, size: 0x8, addend: 0x0, symName: __ZN4pyo310conversion13FromPyPointer26from_borrowed_ptr_or_panic17hbf3f649806b8fa5eE, symObjAddr: 0xF40, symBinAddr: 0x18520, symSize: 0x34 }
  - { offset: 0x57A05, size: 0x8, addend: 0x0, symName: '__ZN53_$LT$T$u20$as$u20$pyo3..conversion..FromPyPointer$GT$24from_borrowed_ptr_or_opt17hfbd31bf7f7223fd1E', symObjAddr: 0x122C, symBinAddr: 0x185B8, symSize: 0x28 }
  - { offset: 0x57B23, size: 0x8, addend: 0x0, symName: '__ZN97_$LT$pyo3..types..none..PyNone$u20$as$u20$core..convert..AsRef$LT$pyo3..types..any..PyAny$GT$$GT$6as_ref17h3bf07ad87c9dd6daE', symObjAddr: 0x3B5C, symBinAddr: 0x18FD0, symSize: 0x14 }
  - { offset: 0x57C42, size: 0x8, addend: 0x0, symName: __ZN4pyo38instance12PyNativeType2py17h0ed772107769aeb4E, symObjAddr: 0x11B0, symBinAddr: 0x18574, symSize: 0x20 }
  - { offset: 0x57E03, size: 0x8, addend: 0x0, symName: __ZN4pyo35types4none6PyNone3get17h75e192722aed57afE, symObjAddr: 0x1190, symBinAddr: 0x18554, symSize: 0x20 }
  - { offset: 0x57F7C, size: 0x8, addend: 0x0, symName: '__ZN5alloc3vec12Vec$LT$T$GT$3new17h5ffb6e41ae8707f0E', symObjAddr: 0x12D4, symBinAddr: 0x185E0, symSize: 0x14 }
  - { offset: 0x581B0, size: 0x8, addend: 0x0, symName: '__ZN5alloc3vec16Vec$LT$T$C$A$GT$16extend_desugared17h5968bc31b18582f9E', symObjAddr: 0x1820, symBinAddr: 0x185F4, symSize: 0x1C4 }
  - { offset: 0x58580, size: 0x8, addend: 0x0, symName: '__ZN5alloc3vec16Vec$LT$T$C$A$GT$16extend_desugared17h80e9af665fb4d864E', symObjAddr: 0x19E4, symBinAddr: 0x187B8, symSize: 0x1C4 }
  - { offset: 0x5886E, size: 0x8, addend: 0x0, symName: '__ZN5alloc3vec16Vec$LT$T$C$A$GT$3len17hb6094f2ed657b7dbE', symObjAddr: 0x216C, symBinAddr: 0x1897C, symSize: 0x18 }
  - { offset: 0x588B0, size: 0x8, addend: 0x0, symName: '__ZN5alloc3vec16Vec$LT$T$C$A$GT$4push17h782fd8c5e46ad802E', symObjAddr: 0x21A8, symBinAddr: 0x18994, symSize: 0x2C }
  - { offset: 0x58A17, size: 0x8, addend: 0x0, symName: '__ZN5alloc3vec16Vec$LT$T$C$A$GT$7reserve17h40229f371ee6dd62E', symObjAddr: 0x23E0, symBinAddr: 0x189C0, symSize: 0xA8 }
  - { offset: 0x58B8A, size: 0x8, addend: 0x0, symName: '__ZN5alloc3vec16Vec$LT$T$C$A$GT$8is_empty17h63da71552da879a2E', symObjAddr: 0x2528, symBinAddr: 0x18AC8, symSize: 0x20 }
  - { offset: 0x58C02, size: 0x8, addend: 0x0, symName: '__ZN5alloc3vec16Vec$LT$T$C$A$GT$8is_empty17h97554dd75f153ae6E', symObjAddr: 0x2548, symBinAddr: 0x18AE8, symSize: 0x20 }
  - { offset: 0x58D9D, size: 0x8, addend: 0x0, symName: '__ZN5alloc3vec16Vec$LT$T$C$A$GT$8push_mut17h6c17750f13556cf9E', symObjAddr: 0x2AF4, symBinAddr: 0x18B08, symSize: 0xD0 }
  - { offset: 0x5915A, size: 0x8, addend: 0x0, symName: '__ZN5alloc3vec16Vec$LT$T$C$A$GT$9split_off17h5bb6c07e9df7b469E', symObjAddr: 0x2CBC, symBinAddr: 0x18BD8, symSize: 0x19C }
  - { offset: 0x59AE8, size: 0x8, addend: 0x0, symName: '__ZN72_$LT$alloc..boxed..Box$LT$T$C$A$GT$$u20$as$u20$core..ops..drop..Drop$GT$4drop17h5184f3a0ac7c3d95E', symObjAddr: 0x4F30, symBinAddr: 0x1A41C, symSize: 0xC4 }
  - { offset: 0x59C21, size: 0x8, addend: 0x0, symName: '__ZN72_$LT$alloc..boxed..Box$LT$T$C$A$GT$$u20$as$u20$core..ops..drop..Drop$GT$4drop17h56755868fe80a154E', symObjAddr: 0x4FF4, symBinAddr: 0x1A4E0, symSize: 0xC4 }
  - { offset: 0x59D5A, size: 0x8, addend: 0x0, symName: '__ZN72_$LT$alloc..boxed..Box$LT$T$C$A$GT$$u20$as$u20$core..ops..drop..Drop$GT$4drop17h81534b2c71438026E', symObjAddr: 0x5168, symBinAddr: 0x1A5A4, symSize: 0xBC }
  - { offset: 0x59EE3, size: 0x8, addend: 0x0, symName: '__ZN5alloc5boxed12Box$LT$T$GT$8into_raw17h79061bca93cfd328E', symObjAddr: 0x483C, symBinAddr: 0x1A34C, symSize: 0x14 }
  - { offset: 0x59F20, size: 0x8, addend: 0x0, symName: '__ZN90_$LT$alloc..boxed..Box$LT$F$C$A$GT$$u20$as$u20$core..ops..function..FnOnce$LT$Args$GT$$GT$9call_once17hee4a6b79cd916525E', symObjAddr: 0x5C5C, symBinAddr: 0x1A810, symSize: 0x138 }
  - { offset: 0x5AD51, size: 0x8, addend: 0x0, symName: '__ZN145_$LT$core..option..Option$LT$T$GT$$u20$as$u20$core..ops..try_trait..FromResidual$LT$core..option..Option$LT$core..convert..Infallible$GT$$GT$$GT$13from_residual17h253faf19943fbec4E', symObjAddr: 0x418, symBinAddr: 0x190F8, symSize: 0x10 }
  - { offset: 0x5AD84, size: 0x8, addend: 0x0, symName: '__ZN145_$LT$core..option..Option$LT$T$GT$$u20$as$u20$core..ops..try_trait..FromResidual$LT$core..option..Option$LT$core..convert..Infallible$GT$$GT$$GT$13from_residual17h29d1db17d1a0533cE', symObjAddr: 0x428, symBinAddr: 0x19108, symSize: 0x10 }
  - { offset: 0x5ADB7, size: 0x8, addend: 0x0, symName: '__ZN145_$LT$core..option..Option$LT$T$GT$$u20$as$u20$core..ops..try_trait..FromResidual$LT$core..option..Option$LT$core..convert..Infallible$GT$$GT$$GT$13from_residual17h305a9cfedd9cd0a0E', symObjAddr: 0x448, symBinAddr: 0x19118, symSize: 0x10 }
  - { offset: 0x5ADEA, size: 0x8, addend: 0x0, symName: '__ZN145_$LT$core..option..Option$LT$T$GT$$u20$as$u20$core..ops..try_trait..FromResidual$LT$core..option..Option$LT$core..convert..Infallible$GT$$GT$$GT$13from_residual17h48499c9a7499054fE', symObjAddr: 0x468, symBinAddr: 0x19128, symSize: 0x10 }
  - { offset: 0x5AE1D, size: 0x8, addend: 0x0, symName: '__ZN145_$LT$core..option..Option$LT$T$GT$$u20$as$u20$core..ops..try_trait..FromResidual$LT$core..option..Option$LT$core..convert..Infallible$GT$$GT$$GT$13from_residual17h5635073f499cfe89E', symObjAddr: 0x488, symBinAddr: 0x19138, symSize: 0x10 }
  - { offset: 0x5AE50, size: 0x8, addend: 0x0, symName: '__ZN145_$LT$core..option..Option$LT$T$GT$$u20$as$u20$core..ops..try_trait..FromResidual$LT$core..option..Option$LT$core..convert..Infallible$GT$$GT$$GT$13from_residual17h7c8341c4c7c6712cE', symObjAddr: 0x4B8, symBinAddr: 0x19148, symSize: 0x10 }
  - { offset: 0x5AE83, size: 0x8, addend: 0x0, symName: '__ZN145_$LT$core..option..Option$LT$T$GT$$u20$as$u20$core..ops..try_trait..FromResidual$LT$core..option..Option$LT$core..convert..Infallible$GT$$GT$$GT$13from_residual17h967f1cdc83cb1e93E', symObjAddr: 0x4C8, symBinAddr: 0x19158, symSize: 0x10 }
  - { offset: 0x5AEB6, size: 0x8, addend: 0x0, symName: '__ZN145_$LT$core..option..Option$LT$T$GT$$u20$as$u20$core..ops..try_trait..FromResidual$LT$core..option..Option$LT$core..convert..Infallible$GT$$GT$$GT$13from_residual17hb7351efa253c53beE', symObjAddr: 0x518, symBinAddr: 0x19168, symSize: 0x10 }
  - { offset: 0x5AEE9, size: 0x8, addend: 0x0, symName: '__ZN145_$LT$core..option..Option$LT$T$GT$$u20$as$u20$core..ops..try_trait..FromResidual$LT$core..option..Option$LT$core..convert..Infallible$GT$$GT$$GT$13from_residual17hde8c38d5342ff10bE', symObjAddr: 0x528, symBinAddr: 0x19178, symSize: 0x10 }
  - { offset: 0x5CB3B, size: 0x8, addend: 0x0, symName: '__ZN66_$LT$core..option..Option$LT$T$GT$$u20$as$u20$core..fmt..Debug$GT$3fmt17h148b2a02e2ce85bdE', symObjAddr: 0x4918, symBinAddr: 0x1A360, symSize: 0x9C }
  - { offset: 0x5CBA5, size: 0x8, addend: 0x0, symName: '__ZN75_$LT$core..option..Option$LT$T$GT$$u20$as$u20$core..ops..try_trait..Try$GT$6branch17h4831e22a2f80a38aE', symObjAddr: 0x5678, symBinAddr: 0x1A660, symSize: 0x40 }
  - { offset: 0x5CBFA, size: 0x8, addend: 0x0, symName: '__ZN75_$LT$core..option..Option$LT$T$GT$$u20$as$u20$core..ops..try_trait..Try$GT$6branch17hcffa77382935fa84E', symObjAddr: 0x56B8, symBinAddr: 0x1A6A0, symSize: 0x40 }
  - { offset: 0x5CCF6, size: 0x8, addend: 0x0, symName: __ZN4core9panicking13panic_display17h3a50138e58187c70E, symObjAddr: 0x391C, symBinAddr: 0x1A2D0, symSize: 0x5C }
  - { offset: 0x5CF22, size: 0x8, addend: 0x0, symName: '__ZN4core5slice4iter87_$LT$impl$u20$core..iter..traits..collect..IntoIterator$u20$for$u20$$RF$$u5b$T$u5d$$GT$9into_iter17hfd1ba33d613b1b8aE', symObjAddr: 0x1044, symBinAddr: 0x193C8, symSize: 0x50 }
  - { offset: 0x5D494, size: 0x8, addend: 0x0, symName: '__ZN118_$LT$$u5b$core..mem..maybe_uninit..MaybeUninit$LT$T$GT$$u5d$$u20$as$u20$core..array..iter..iter_inner..PartialDrop$GT$12partial_drop17he2657cad3122fb44E', symObjAddr: 0x3C, symBinAddr: 0x1900C, symSize: 0xA0 }
  - { offset: 0x5D594, size: 0x8, addend: 0x0, symName: '__ZN129_$LT$$u5b$core..mem..maybe_uninit..MaybeUninit$LT$T$GT$$u3b$$u20$N$u5d$$u20$as$u20$core..array..iter..iter_inner..PartialDrop$GT$12partial_drop17hea5e4c77dc698fa5E', symObjAddr: 0x2C8, symBinAddr: 0x190AC, symSize: 0x4C }
  - { offset: 0x5D767, size: 0x8, addend: 0x0, symName: __ZN4core5alloc6layout6Layout25from_size_align_unchecked18precondition_check17h2093aa64c3adecceE, symObjAddr: 0xDF4, symBinAddr: 0x1930C, symSize: 0xBC }
  - { offset: 0x5E42D, size: 0x8, addend: 0x0, symName: __ZN3std3sys12thread_local6native5eager7destroy17hdebd083883813ca9E, symObjAddr: 0xA2C, symBinAddr: 0x1929C, symSize: 0x30 }
  - { offset: 0x5E463, size: 0x8, addend: 0x0, symName: '__ZN3std3sys12thread_local6native5eager7destroy28_$u7b$$u7b$closure$u7d$$u7d$17h23e17fd45c569ecdE', symObjAddr: 0xA5C, symBinAddr: 0x192CC, symSize: 0x40 }
  - { offset: 0x5E5CC, size: 0x8, addend: 0x0, symName: '__ZN81_$LT$pyo3..types..sequence..PySequence$u20$as$u20$pyo3..conversion..PyTryFrom$GT$18try_from_unchecked17h7a2d1af4cd0faef9E', symObjAddr: 0x5914, symBinAddr: 0x1A6E0, symSize: 0x7C }
  - { offset: 0x5E8F9, size: 0x8, addend: 0x0, symName: __ZN4pyo38instance12PyNativeType2py17h4283e6367ad391acE, symObjAddr: 0x46B4, symBinAddr: 0x1A32C, symSize: 0x20 }
  - { offset: 0x5EDD1, size: 0x8, addend: 0x0, symName: '__ZN71_$LT$pyo3..impl_..panic..PanicTrap$u20$as$u20$core..ops..drop..Drop$GT$4drop17haf34a6b949c54cb2E', symObjAddr: 0x4E4C, symBinAddr: 0x1A3FC, symSize: 0x20 }
  - { offset: 0x5F046, size: 0x8, addend: 0x0, symName: __ZN15portable_atomic5utils32assert_compare_exchange_ordering17h2bf454c4b55053c6E, symObjAddr: 0x558, symBinAddr: 0x19188, symSize: 0xA4 }
  - { offset: 0x5F1CF, size: 0x8, addend: 0x0, symName: '__ZN3std3sys12thread_local6native5eager16Storage$LT$T$GT$10initialize17h6e372ed31817d794E', symObjAddr: 0x968, symBinAddr: 0x5AA6C, symSize: 0x54 }
  - { offset: 0x5F285, size: 0x8, addend: 0x0, symName: '__ZN3std3sys12thread_local6native5eager16Storage$LT$T$GT$3get17hbbdff14c1eced3d1E', symObjAddr: 0x9BC, symBinAddr: 0x1922C, symSize: 0x70 }
  - { offset: 0x5F563, size: 0x8, addend: 0x0, symName: '__ZN4core6option15Option$LT$T$GT$10ok_or_else17h11d65c8d5f97c707E', symObjAddr: 0x1100, symBinAddr: 0x19418, symSize: 0x80 }
  - { offset: 0x5F5DB, size: 0x8, addend: 0x0, symName: '__ZN4core6option15Option$LT$T$GT$10ok_or_else17h2477a3c6cc652e00E', symObjAddr: 0x1180, symBinAddr: 0x19498, symSize: 0x80 }
  - { offset: 0x5F653, size: 0x8, addend: 0x0, symName: '__ZN4core6option15Option$LT$T$GT$10ok_or_else17h82e879e4fc709ceaE', symObjAddr: 0x1380, symBinAddr: 0x19518, symSize: 0x80 }
  - { offset: 0x5F6CB, size: 0x8, addend: 0x0, symName: '__ZN4core6option15Option$LT$T$GT$10ok_or_else17h95e5aa449df7e5f5E', symObjAddr: 0x1400, symBinAddr: 0x19598, symSize: 0x80 }
  - { offset: 0x5F7B9, size: 0x8, addend: 0x0, symName: '__ZN4core6option15Option$LT$T$GT$11map_or_else17ha8fc95752938809aE', symObjAddr: 0x1780, symBinAddr: 0x19618, symSize: 0xC0 }
  - { offset: 0x5F849, size: 0x8, addend: 0x0, symName: '__ZN4core6option15Option$LT$T$GT$14unwrap_or_else17h018dd3e3c8eae5aeE', symObjAddr: 0x1840, symBinAddr: 0x196D8, symSize: 0x58 }
  - { offset: 0x5F89A, size: 0x8, addend: 0x0, symName: '__ZN4core6option15Option$LT$T$GT$14unwrap_or_else17h3d07b534ff202b4eE', symObjAddr: 0x19A0, symBinAddr: 0x19730, symSize: 0x58 }
  - { offset: 0x5F8DE, size: 0x8, addend: 0x0, symName: '__ZN4core6option15Option$LT$T$GT$14unwrap_or_else17h43a6053970cabc0cE', symObjAddr: 0x19F8, symBinAddr: 0x19788, symSize: 0x58 }
  - { offset: 0x5F93C, size: 0x8, addend: 0x0, symName: '__ZN4core6option15Option$LT$T$GT$14unwrap_or_else17h9d9abf8b28bf2715E', symObjAddr: 0x1AFC, symBinAddr: 0x197E0, symSize: 0x58 }
  - { offset: 0x5F980, size: 0x8, addend: 0x0, symName: '__ZN4core6option15Option$LT$T$GT$14unwrap_or_else17hbad518e82eedaadbE', symObjAddr: 0x1C04, symBinAddr: 0x19838, symSize: 0x58 }
  - { offset: 0x5F9D1, size: 0x8, addend: 0x0, symName: '__ZN4core6option15Option$LT$T$GT$14unwrap_or_else17he2bb503b2ec12c0eE', symObjAddr: 0x1D64, symBinAddr: 0x19890, symSize: 0x58 }
  - { offset: 0x5FA22, size: 0x8, addend: 0x0, symName: '__ZN4core6option15Option$LT$T$GT$14unwrap_or_else17hedbb0e1bf58e3340E', symObjAddr: 0x1DBC, symBinAddr: 0x198E8, symSize: 0x58 }
  - { offset: 0x5FA91, size: 0x8, addend: 0x0, symName: '__ZN4core6option15Option$LT$T$GT$3map17h1151c45c2a429617E', symObjAddr: 0x1EC8, symBinAddr: 0x19940, symSize: 0x50 }
  - { offset: 0x5FB60, size: 0x8, addend: 0x0, symName: '__ZN4core6option15Option$LT$T$GT$3map17h2b13a9193a77df55E', symObjAddr: 0x1F90, symBinAddr: 0x19990, symSize: 0x74 }
  - { offset: 0x5FBCC, size: 0x8, addend: 0x0, symName: '__ZN4core6option15Option$LT$T$GT$3map17h3157baec5166ec5fE', symObjAddr: 0x2070, symBinAddr: 0x19A04, symSize: 0x5C }
  - { offset: 0x5FC44, size: 0x8, addend: 0x0, symName: '__ZN4core6option15Option$LT$T$GT$3map17h389d389707f3eaf0E', symObjAddr: 0x20CC, symBinAddr: 0x19A60, symSize: 0x50 }
  - { offset: 0x5FCAF, size: 0x8, addend: 0x0, symName: '__ZN4core6option15Option$LT$T$GT$3map17h3d37e1cd854d0376E', symObjAddr: 0x211C, symBinAddr: 0x19AB0, symSize: 0x5C }
  - { offset: 0x5FD1A, size: 0x8, addend: 0x0, symName: '__ZN4core6option15Option$LT$T$GT$3map17h4aad55c9d55c581aE', symObjAddr: 0x2250, symBinAddr: 0x19B0C, symSize: 0x50 }
  - { offset: 0x5FD85, size: 0x8, addend: 0x0, symName: '__ZN4core6option15Option$LT$T$GT$3map17h504b6d2b7fd66f6aE', symObjAddr: 0x22A0, symBinAddr: 0x19B5C, symSize: 0x50 }
  - { offset: 0x5FE08, size: 0x8, addend: 0x0, symName: '__ZN4core6option15Option$LT$T$GT$3map17h8864d2cb6b5e18f6E', symObjAddr: 0x2558, symBinAddr: 0x19BAC, symSize: 0x70 }
  - { offset: 0x5FE8B, size: 0x8, addend: 0x0, symName: '__ZN4core6option15Option$LT$T$GT$3map17ha88cb232594a52e1E', symObjAddr: 0x26A0, symBinAddr: 0x19C1C, symSize: 0x5C }
  - { offset: 0x5FF0E, size: 0x8, addend: 0x0, symName: '__ZN4core6option15Option$LT$T$GT$3map17hbd2f971e8caabe00E', symObjAddr: 0x2858, symBinAddr: 0x19C78, symSize: 0x64 }
  - { offset: 0x5FF91, size: 0x8, addend: 0x0, symName: '__ZN4core6option15Option$LT$T$GT$3map17hcb1bba296fd68d7dE', symObjAddr: 0x28BC, symBinAddr: 0x19CDC, symSize: 0x84 }
  - { offset: 0x5FFFD, size: 0x8, addend: 0x0, symName: '__ZN4core6option15Option$LT$T$GT$3map17hcc8d4384a4d082fbE', symObjAddr: 0x2940, symBinAddr: 0x19D60, symSize: 0x5C }
  - { offset: 0x60075, size: 0x8, addend: 0x0, symName: '__ZN4core6option15Option$LT$T$GT$3map17hdfa0aa9f02030df3E', symObjAddr: 0x2A08, symBinAddr: 0x19DBC, symSize: 0x50 }
  - { offset: 0x600E0, size: 0x8, addend: 0x0, symName: '__ZN4core6option15Option$LT$T$GT$3map17hed91727bf206e46dE', symObjAddr: 0x2A58, symBinAddr: 0x19E0C, symSize: 0x5C }
  - { offset: 0x60158, size: 0x8, addend: 0x0, symName: '__ZN4core6option15Option$LT$T$GT$4take17h19f75afee1225b04E', symObjAddr: 0x2B20, symBinAddr: 0x19E68, symSize: 0x20 }
  - { offset: 0x601AF, size: 0x8, addend: 0x0, symName: '__ZN4core6option15Option$LT$T$GT$4take17h2260cea88fa9fa44E', symObjAddr: 0x2B40, symBinAddr: 0x19E88, symSize: 0x3C }
  - { offset: 0x60206, size: 0x8, addend: 0x0, symName: '__ZN4core6option15Option$LT$T$GT$4take17h96baa1a7f5cd30ceE', symObjAddr: 0x2B7C, symBinAddr: 0x19EC4, symSize: 0x20 }
  - { offset: 0x6026A, size: 0x8, addend: 0x0, symName: '__ZN4core6option15Option$LT$T$GT$6as_ref17h5ae65bd6cf2aa84aE', symObjAddr: 0x2C1C, symBinAddr: 0x19EE4, symSize: 0x4C }
  - { offset: 0x602CE, size: 0x8, addend: 0x0, symName: '__ZN4core6option15Option$LT$T$GT$6as_ref17hd7b2b2bc2d0dde37E', symObjAddr: 0x2CB0, symBinAddr: 0x19F30, symSize: 0x4C }
  - { offset: 0x60332, size: 0x8, addend: 0x0, symName: '__ZN4core6option15Option$LT$T$GT$6as_ref17hda0b26dfee17733aE', symObjAddr: 0x2CFC, symBinAddr: 0x19F7C, symSize: 0x4C }
  - { offset: 0x60396, size: 0x8, addend: 0x0, symName: '__ZN4core6option15Option$LT$T$GT$6as_ref17hf7ed06aabcd3e285E', symObjAddr: 0x2D48, symBinAddr: 0x19FC8, symSize: 0x4C }
  - { offset: 0x6041F, size: 0x8, addend: 0x0, symName: '__ZN4core6option15Option$LT$T$GT$6expect17h1e74578ae8a337bfE', symObjAddr: 0x2DE4, symBinAddr: 0x1A014, symSize: 0x60 }
  - { offset: 0x6045B, size: 0x8, addend: 0x0, symName: '__ZN4core6option15Option$LT$T$GT$6expect17h96b69780a40c663fE', symObjAddr: 0x2E44, symBinAddr: 0x1A074, symSize: 0x5C }
  - { offset: 0x60496, size: 0x8, addend: 0x0, symName: '__ZN4core6option15Option$LT$T$GT$6map_or17h035b8094fd163ddcE', symObjAddr: 0x2EA0, symBinAddr: 0x1A0D0, symSize: 0x9C }
  - { offset: 0x60545, size: 0x8, addend: 0x0, symName: '__ZN4core6option15Option$LT$T$GT$6map_or17hcaa4a70548513154E', symObjAddr: 0x31C8, symBinAddr: 0x1A16C, symSize: 0x9C }
  - { offset: 0x605D3, size: 0x8, addend: 0x0, symName: '__ZN4core6option15Option$LT$T$GT$7is_none17hd44eee6003b29a25E', symObjAddr: 0x3300, symBinAddr: 0x1A208, symSize: 0x28 }
  - { offset: 0x6062A, size: 0x8, addend: 0x0, symName: '__ZN4core6option15Option$LT$T$GT$7is_some17h41d0dd8c32dd70f5E', symObjAddr: 0x3370, symBinAddr: 0x1A230, symSize: 0x28 }
  - { offset: 0x60656, size: 0x8, addend: 0x0, symName: '__ZN4core6option15Option$LT$T$GT$7is_some17h4af4ecf874134592E', symObjAddr: 0x3398, symBinAddr: 0x1A258, symSize: 0x28 }
  - { offset: 0x60682, size: 0x8, addend: 0x0, symName: '__ZN4core6option15Option$LT$T$GT$7is_some17h8a78d3e1c20bd110E', symObjAddr: 0x33E4, symBinAddr: 0x1A280, symSize: 0x28 }
  - { offset: 0x606AE, size: 0x8, addend: 0x0, symName: '__ZN4core6option15Option$LT$T$GT$7is_some17hb833b0239e694cedE', symObjAddr: 0x3434, symBinAddr: 0x1A2A8, symSize: 0x28 }
  - { offset: 0x60A27, size: 0x8, addend: 0x0, symName: '__ZN82_$LT$lock_api..mutex..MutexGuard$LT$R$C$T$GT$$u20$as$u20$core..ops..drop..Drop$GT$4drop17h242d34acc381ccadE', symObjAddr: 0x5AC0, symBinAddr: 0x1A75C, symSize: 0x28 }
  - { offset: 0x60A69, size: 0x8, addend: 0x0, symName: '__ZN84_$LT$lock_api..mutex..MutexGuard$LT$R$C$T$GT$$u20$as$u20$core..ops..deref..Deref$GT$5deref17h569dc53003b821dfE', symObjAddr: 0x5AE8, symBinAddr: 0x1A784, symSize: 0x24 }
  - { offset: 0x60AAF, size: 0x8, addend: 0x0, symName: '__ZN87_$LT$lock_api..mutex..MutexGuard$LT$R$C$T$GT$$u20$as$u20$core..ops..deref..DerefMut$GT$9deref_mut17h2df4b3368186c1e0E', symObjAddr: 0x5B8C, symBinAddr: 0x1A7A8, symSize: 0x24 }
  - { offset: 0x60BEA, size: 0x8, addend: 0x0, symName: '__ZN96_$LT$core..option..Option$LT$T$GT$$u20$as$u20$parking_lot..util..UncheckedOptionExt$LT$T$GT$$GT$16unchecked_unwrap17h0a836a7974b3bf9cE', symObjAddr: 0x5E7C, symBinAddr: 0x1A948, symSize: 0x2C }
  - { offset: 0x60C1B, size: 0x8, addend: 0x0, symName: '__ZN96_$LT$core..option..Option$LT$T$GT$$u20$as$u20$parking_lot..util..UncheckedOptionExt$LT$T$GT$$GT$16unchecked_unwrap17h60f46e2197bbdb14E', symObjAddr: 0x5EA8, symBinAddr: 0x1A974, symSize: 0x2C }
  - { offset: 0x60CB2, size: 0x8, addend: 0x0, symName: '__ZN8lock_api5mutex18Mutex$LT$R$C$T$GT$20make_guard_unchecked17h6be188a1b6bb0ea9E', symObjAddr: 0x5BEC, symBinAddr: 0x1A7CC, symSize: 0x14 }
  - { offset: 0x60CE6, size: 0x8, addend: 0x0, symName: '__ZN8lock_api5mutex18Mutex$LT$R$C$T$GT$4lock17h0908ddaf7a4dd921E', symObjAddr: 0x5C00, symBinAddr: 0x1A7E0, symSize: 0x30 }
  - { offset: 0x60F3D, size: 0x8, addend: 0x0, symName: '__ZN100_$LT$core..iter..adapters..take..Take$LT$I$GT$$u20$as$u20$core..iter..traits..iterator..Iterator$GT$4next17h2bb35351da52c26eE', symObjAddr: 0x0, symBinAddr: 0x1A9A0, symSize: 0x58 }
  - { offset: 0x612E8, size: 0x8, addend: 0x0, symName: __ZN5alloc3fmt6format17h63261071474f39adE, symObjAddr: 0x7254, symBinAddr: 0x1CC90, symSize: 0xD8 }
  - { offset: 0x613AC, size: 0x8, addend: 0x0, symName: '__ZN5alloc3fmt6format28_$u7b$$u7b$closure$u7d$$u7d$17h686a0814aace29acE', symObjAddr: 0x732C, symBinAddr: 0x1CD68, symSize: 0x30 }
  - { offset: 0x61DD4, size: 0x8, addend: 0x0, symName: '__ZN100_$LT$core..iter..adapters..take..Take$LT$I$GT$$u20$as$u20$core..iter..traits..iterator..Iterator$GT$4next17h2bb35351da52c26eE', symObjAddr: 0x0, symBinAddr: 0x1A9A0, symSize: 0x58 }
  - { offset: 0x61E09, size: 0x8, addend: 0x0, symName: '__ZN100_$LT$core..iter..adapters..take..Take$LT$I$GT$$u20$as$u20$core..iter..traits..iterator..Iterator$GT$9size_hint17h3fd2d4af2ef0e29bE', symObjAddr: 0x58, symBinAddr: 0x1A9F8, symSize: 0x100 }
  - { offset: 0x61F72, size: 0x8, addend: 0x0, symName: __ZN4core4iter6traits8iterator8Iterator3zip17hde525d147aef17d6E, symObjAddr: 0xA64, symBinAddr: 0x1AB58, symSize: 0xB0 }
  - { offset: 0x62039, size: 0x8, addend: 0x0, symName: '__ZN104_$LT$core..ops..index_range..IndexRange$u20$as$u20$core..slice..index..SliceIndex$LT$$u5b$T$u5d$$GT$$GT$17get_unchecked_mut18precondition_check17hd37e1aca2808ff04E', symObjAddr: 0x158, symBinAddr: 0x1AAF8, symSize: 0x60 }
  - { offset: 0x62098, size: 0x8, addend: 0x0, symName: '__ZN75_$LT$usize$u20$as$u20$core..slice..index..SliceIndex$LT$$u5b$T$u5d$$GT$$GT$13get_unchecked18precondition_check17hcbc0eceefbdbaca5E', symObjAddr: 0x784C, symBinAddr: 0x1CD98, symSize: 0x60 }
  - { offset: 0x620F1, size: 0x8, addend: 0x0, symName: '__ZN75_$LT$usize$u20$as$u20$core..slice..index..SliceIndex$LT$$u5b$T$u5d$$GT$$GT$17get_unchecked_mut18precondition_check17hfd8ad66b2d88fcc8E', symObjAddr: 0x78AC, symBinAddr: 0x1CDF8, symSize: 0x60 }
  - { offset: 0x62547, size: 0x8, addend: 0x0, symName: '__ZN50_$LT$T$u20$as$u20$core..convert..Into$LT$U$GT$$GT$4into17h8117455f8fc59247E', symObjAddr: 0x6C1C, symBinAddr: 0x1C9EC, symSize: 0x14 }
  - { offset: 0x6269D, size: 0x8, addend: 0x0, symName: '__ZN4pyo33err5PyErr3new28_$u7b$$u7b$closure$u7d$$u7d$17h22d9b4e945912bbfE', symObjAddr: 0x4364, symBinAddr: 0x1BA88, symSize: 0xD4 }
  - { offset: 0x626F6, size: 0x8, addend: 0x0, symName: '__ZN4pyo33err5PyErr3new28_$u7b$$u7b$closure$u7d$$u7d$17h417c8f1391b5b2a5E', symObjAddr: 0x468C, symBinAddr: 0x1BB5C, symSize: 0xD4 }
  - { offset: 0x6274F, size: 0x8, addend: 0x0, symName: '__ZN4pyo33err5PyErr3new28_$u7b$$u7b$closure$u7d$$u7d$17h4c046f3553c8bf96E', symObjAddr: 0x48E0, symBinAddr: 0x1BC30, symSize: 0xD4 }
  - { offset: 0x627A8, size: 0x8, addend: 0x0, symName: '__ZN4pyo33err5PyErr3new28_$u7b$$u7b$closure$u7d$$u7d$17h6707ad448034c2eaE', symObjAddr: 0x49B4, symBinAddr: 0x1BD04, symSize: 0xD4 }
  - { offset: 0x62801, size: 0x8, addend: 0x0, symName: '__ZN4pyo33err5PyErr3new28_$u7b$$u7b$closure$u7d$$u7d$17h715b1f64512960acE', symObjAddr: 0x4CDC, symBinAddr: 0x1BDD8, symSize: 0xC0 }
  - { offset: 0x62859, size: 0x8, addend: 0x0, symName: '__ZN4pyo33err5PyErr3new28_$u7b$$u7b$closure$u7d$$u7d$17h90090ad812525e25E', symObjAddr: 0x4FC4, symBinAddr: 0x1BE98, symSize: 0xC0 }
  - { offset: 0x628B1, size: 0x8, addend: 0x0, symName: '__ZN4pyo33err5PyErr3new28_$u7b$$u7b$closure$u7d$$u7d$17haad8e6ab34eb0e8aE', symObjAddr: 0x5134, symBinAddr: 0x1BF58, symSize: 0xC0 }
  - { offset: 0x62909, size: 0x8, addend: 0x0, symName: '__ZN4pyo33err5PyErr3new28_$u7b$$u7b$closure$u7d$$u7d$17he2141c0fd8c50e06E', symObjAddr: 0x5734, symBinAddr: 0x1C018, symSize: 0xC0 }
  - { offset: 0x62967, size: 0x8, addend: 0x0, symName: '__ZN4pyo33err5PyErr16write_unraisable28_$u7b$$u7b$closure$u7d$$u7d$17hec25021fc84df7f5E', symObjAddr: 0x29D8, symBinAddr: 0x1B3F4, symSize: 0x24 }
  - { offset: 0x629AD, size: 0x8, addend: 0x0, symName: '__ZN4pyo33err5PyErr5_take28_$u7b$$u7b$closure$u7d$$u7d$17hac7ac5d602818029E', symObjAddr: 0x5CE4, symBinAddr: 0x1C2DC, symSize: 0x64 }
  - { offset: 0x629E3, size: 0x8, addend: 0x0, symName: '__ZN4pyo33err5PyErr5_take28_$u7b$$u7b$closure$u7d$$u7d$17he1a3303761bef96cE', symObjAddr: 0x5D48, symBinAddr: 0x1C340, symSize: 0x44 }
  - { offset: 0x62A30, size: 0x8, addend: 0x0, symName: '__ZN4pyo33err5PyErr8new_type28_$u7b$$u7b$closure$u7d$$u7d$17h4c307f544914f6afE', symObjAddr: 0x6244, symBinAddr: 0x1C7D0, symSize: 0x50 }
  - { offset: 0x62A76, size: 0x8, addend: 0x0, symName: '__ZN4pyo33err5PyErr9set_cause28_$u7b$$u7b$closure$u7d$$u7d$17h784863623e2523faE', symObjAddr: 0x6448, symBinAddr: 0x1C990, symSize: 0x34 }
  - { offset: 0x6355B, size: 0x8, addend: 0x0, symName: __ZN4pyo33err17error_on_minusone17h25c276d8d0124d85E, symObjAddr: 0x1ADC, symBinAddr: 0x1AD7C, symSize: 0xB8 }
  - { offset: 0x635AD, size: 0x8, addend: 0x0, symName: __ZN4pyo33err17error_on_minusone17h2c2fba5336d8797bE, symObjAddr: 0x1B94, symBinAddr: 0x1AE34, symSize: 0xB8 }
  - { offset: 0x635FF, size: 0x8, addend: 0x0, symName: __ZN4pyo33err17error_on_minusone17h9295d8a9e9eb5afdE, symObjAddr: 0x1C4C, symBinAddr: 0x1AEEC, symSize: 0xB8 }
  - { offset: 0x63651, size: 0x8, addend: 0x0, symName: __ZN4pyo33err17panic_after_error17hf99e7e313c7b089cE, symObjAddr: 0x1D04, symBinAddr: 0x1AFA4, symSize: 0x30 }
  - { offset: 0x6368C, size: 0x8, addend: 0x0, symName: '__ZN53_$LT$pyo3..err..PyErr$u20$as$u20$core..fmt..Debug$GT$3fmt17h5843151eef891968E', symObjAddr: 0x6E4C, symBinAddr: 0x1CB44, symSize: 0x38 }
  - { offset: 0x636CE, size: 0x8, addend: 0x0, symName: '__ZN53_$LT$pyo3..err..PyErr$u20$as$u20$core..fmt..Debug$GT$3fmt28_$u7b$$u7b$closure$u7d$$u7d$17h5d78ef57df6a9742E', symObjAddr: 0x6E84, symBinAddr: 0x1CB7C, symSize: 0xE4 }
  - { offset: 0x63733, size: 0x8, addend: 0x0, symName: '__ZN90_$LT$pyo3..err..PyErr$u20$as$u20$core..convert..From$LT$pyo3..err..PyDowncastError$GT$$GT$4from17hb45da7e214813859E', symObjAddr: 0x7AE0, symBinAddr: 0x1CE58, symSize: 0xD8 }
  - { offset: 0x63786, size: 0x8, addend: 0x0, symName: '__ZN92_$LT$pyo3..err..PyDowncastErrorArguments$u20$as$u20$pyo3..err..err_state..PyErrArguments$GT$9arguments17h52b98ea3d2262069E', symObjAddr: 0x7BB8, symBinAddr: 0x1CF30, symSize: 0x174 }
  - { offset: 0x63C18, size: 0x8, addend: 0x0, symName: '__ZN4pyo310conversion13FromPyPointer21from_owned_ptr_or_err28_$u7b$$u7b$closure$u7d$$u7d$17h07c8be9d0b6b8a63E', symObjAddr: 0xD84, symBinAddr: 0x1AC08, symSize: 0x20 }
  - { offset: 0x63C5B, size: 0x8, addend: 0x0, symName: '__ZN4pyo310conversion13FromPyPointer21from_owned_ptr_or_err28_$u7b$$u7b$closure$u7d$$u7d$17h384b021a6a0b4f7cE', symObjAddr: 0xDE4, symBinAddr: 0x1AC28, symSize: 0x20 }
  - { offset: 0x63C9E, size: 0x8, addend: 0x0, symName: '__ZN4pyo310conversion13FromPyPointer21from_owned_ptr_or_err28_$u7b$$u7b$closure$u7d$$u7d$17h7d10a1a604f40ff0E', symObjAddr: 0xE44, symBinAddr: 0x1AC48, symSize: 0x20 }
  - { offset: 0x63D20, size: 0x8, addend: 0x0, symName: '__ZN4pyo310conversion13FromPyPointer23from_owned_ptr_or_panic28_$u7b$$u7b$closure$u7d$$u7d$17h048f7c007cecc051E', symObjAddr: 0xF38, symBinAddr: 0x1AC68, symSize: 0x14 }
  - { offset: 0x63D63, size: 0x8, addend: 0x0, symName: '__ZN4pyo310conversion13FromPyPointer23from_owned_ptr_or_panic28_$u7b$$u7b$closure$u7d$$u7d$17h341ec7de01f47221E', symObjAddr: 0xF60, symBinAddr: 0x1AC7C, symSize: 0x14 }
  - { offset: 0x63DA6, size: 0x8, addend: 0x0, symName: '__ZN4pyo310conversion13FromPyPointer23from_owned_ptr_or_panic28_$u7b$$u7b$closure$u7d$$u7d$17h656d4187499743e7E', symObjAddr: 0xF74, symBinAddr: 0x1AC90, symSize: 0x14 }
  - { offset: 0x63DE9, size: 0x8, addend: 0x0, symName: '__ZN4pyo310conversion13FromPyPointer23from_owned_ptr_or_panic28_$u7b$$u7b$closure$u7d$$u7d$17h8625568d9514c316E', symObjAddr: 0xF88, symBinAddr: 0x1ACA4, symSize: 0x14 }
  - { offset: 0x63E2C, size: 0x8, addend: 0x0, symName: '__ZN4pyo310conversion13FromPyPointer23from_owned_ptr_or_panic28_$u7b$$u7b$closure$u7d$$u7d$17hc615794f4a44a530E', symObjAddr: 0x1014, symBinAddr: 0x1ACB8, symSize: 0x14 }
  - { offset: 0x63ED4, size: 0x8, addend: 0x0, symName: '__ZN4pyo310conversion13FromPyPointer24from_borrowed_ptr_or_err28_$u7b$$u7b$closure$u7d$$u7d$17h94346b2ebf6bab60E', symObjAddr: 0x103C, symBinAddr: 0x1ACCC, symSize: 0x20 }
  - { offset: 0x63F30, size: 0x8, addend: 0x0, symName: '__ZN4pyo310conversion13FromPyPointer26from_borrowed_ptr_or_panic28_$u7b$$u7b$closure$u7d$$u7d$17hc662829a40ca7df2E', symObjAddr: 0x1070, symBinAddr: 0x1ACEC, symSize: 0x14 }
  - { offset: 0x63F73, size: 0x8, addend: 0x0, symName: '__ZN4pyo310conversion13FromPyPointer26from_borrowed_ptr_or_panic28_$u7b$$u7b$closure$u7d$$u7d$17hfb00c32574ef1767E', symObjAddr: 0x1084, symBinAddr: 0x1AD00, symSize: 0x14 }
  - { offset: 0x63FE8, size: 0x8, addend: 0x0, symName: '__ZN53_$LT$T$u20$as$u20$pyo3..conversion..FromPyPointer$GT$24from_borrowed_ptr_or_opt28_$u7b$$u7b$closure$u7d$$u7d$17h1e710079b5184421E', symObjAddr: 0x6D08, symBinAddr: 0x1CA00, symSize: 0x6C }
  - { offset: 0x6402A, size: 0x8, addend: 0x0, symName: '__ZN53_$LT$T$u20$as$u20$pyo3..conversion..FromPyPointer$GT$24from_borrowed_ptr_or_opt28_$u7b$$u7b$closure$u7d$$u7d$17h7057807fb2197f69E', symObjAddr: 0x6D74, symBinAddr: 0x1CA6C, symSize: 0x6C }
  - { offset: 0x6406C, size: 0x8, addend: 0x0, symName: '__ZN53_$LT$T$u20$as$u20$pyo3..conversion..FromPyPointer$GT$24from_borrowed_ptr_or_opt28_$u7b$$u7b$closure$u7d$$u7d$17h881d3597e2bd53cdE', symObjAddr: 0x6DE0, symBinAddr: 0x1CAD8, symSize: 0x6C }
  - { offset: 0x640CA, size: 0x8, addend: 0x0, symName: '__ZN54_$LT$$RF$T$u20$as$u20$pyo3..conversion..ToPyObject$GT$9to_object17hc138410f88369273E', symObjAddr: 0x6F68, symBinAddr: 0x1CC60, symSize: 0x30 }
  - { offset: 0x6468C, size: 0x8, addend: 0x0, symName: __ZN4pyo33err15PyDowncastError3new17hf5493bc1587cb1e2E, symObjAddr: 0x1A74, symBinAddr: 0x1AD14, symSize: 0x68 }
  - { offset: 0x646E1, size: 0x8, addend: 0x0, symName: __ZN4pyo33err5PyErr10from_state17hca229a1d28fdb216E, symObjAddr: 0x1D34, symBinAddr: 0x1AFD4, symSize: 0x44 }
  - { offset: 0x64722, size: 0x8, addend: 0x0, symName: __ZN4pyo33err5PyErr10from_value17h50aa297607ddaff4E, symObjAddr: 0x1D78, symBinAddr: 0x1B018, symSize: 0x120 }
  - { offset: 0x64776, size: 0x8, addend: 0x0, symName: __ZN4pyo33err5PyErr10into_value17hd217b0c492c355b8E, symObjAddr: 0x1E98, symBinAddr: 0x1B138, symSize: 0x118 }
  - { offset: 0x647FE, size: 0x8, addend: 0x0, symName: __ZN4pyo33err5PyErr10normalized17hc62ac6d9d1b6817cE, symObjAddr: 0x1FB0, symBinAddr: 0x1B250, symSize: 0xCC }
  - { offset: 0x64859, size: 0x8, addend: 0x0, symName: __ZN4pyo33err5PyErr11is_instance17h0815000ddf4c6083E, symObjAddr: 0x207C, symBinAddr: 0x1B31C, symSize: 0x58 }
  - { offset: 0x648A6, size: 0x8, addend: 0x0, symName: __ZN4pyo33err5PyErr14is_instance_of17h346c298a9ae28bb8E, symObjAddr: 0x25C0, symBinAddr: 0x1B374, symSize: 0x34 }
  - { offset: 0x64923, size: 0x8, addend: 0x0, symName: __ZN4pyo33err5PyErr15make_normalized17h252063f1f18db91dE, symObjAddr: 0x2760, symBinAddr: 0x5AAC0, symSize: 0x22C }
  - { offset: 0x649AB, size: 0x8, addend: 0x0, symName: __ZN4pyo33err5PyErr16write_unraisable17hdf3f3d9a2787a81aE, symObjAddr: 0x298C, symBinAddr: 0x1B3A8, symSize: 0x4C }
  - { offset: 0x64A06, size: 0x8, addend: 0x0, symName: __ZN4pyo33err5PyErr22print_panic_and_unwind17h17b3d69f2a436d87E, symObjAddr: 0x29FC, symBinAddr: 0x1B418, symSize: 0x1A0 }
  - { offset: 0x64A80, size: 0x8, addend: 0x0, symName: __ZN4pyo33err5PyErr3new17h037b6985f00cbf25E, symObjAddr: 0x2BD8, symBinAddr: 0x1B5B8, symSize: 0x9C }
  - { offset: 0x64ADF, size: 0x8, addend: 0x0, symName: __ZN4pyo33err5PyErr3new17h7b30d77acb4048b8E, symObjAddr: 0x331C, symBinAddr: 0x1B654, symSize: 0x98 }
  - { offset: 0x64B3D, size: 0x8, addend: 0x0, symName: __ZN4pyo33err5PyErr3new17h885ae2c31aa533a0E, symObjAddr: 0x3558, symBinAddr: 0x1B6EC, symSize: 0x9C }
  - { offset: 0x64B9C, size: 0x8, addend: 0x0, symName: __ZN4pyo33err5PyErr3new17h925fcdabd67ea0bbE, symObjAddr: 0x35F4, symBinAddr: 0x1B788, symSize: 0x98 }
  - { offset: 0x64BFA, size: 0x8, addend: 0x0, symName: __ZN4pyo33err5PyErr3new17hb61b6d810b890e95E, symObjAddr: 0x380C, symBinAddr: 0x1B820, symSize: 0x9C }
  - { offset: 0x64C59, size: 0x8, addend: 0x0, symName: __ZN4pyo33err5PyErr3new17hb862f969cf6c6909E, symObjAddr: 0x3924, symBinAddr: 0x1B8BC, symSize: 0x9C }
  - { offset: 0x64CB8, size: 0x8, addend: 0x0, symName: __ZN4pyo33err5PyErr3new17hdb1ef7bf09c93f77E, symObjAddr: 0x3AE8, symBinAddr: 0x1B958, symSize: 0x98 }
  - { offset: 0x64D16, size: 0x8, addend: 0x0, symName: __ZN4pyo33err5PyErr3new17hfcd9dba4cbdb4873E, symObjAddr: 0x3DB0, symBinAddr: 0x1B9F0, symSize: 0x98 }
  - { offset: 0x64D67, size: 0x8, addend: 0x0, symName: __ZN4pyo33err5PyErr4take17h7c74723feefcab75E, symObjAddr: 0x5984, symBinAddr: 0x1C0D8, symSize: 0x1C }
  - { offset: 0x64D96, size: 0x8, addend: 0x0, symName: __ZN4pyo33err5PyErr5_take17h70c571ca27f38924E, symObjAddr: 0x5AFC, symBinAddr: 0x1C0F4, symSize: 0x1E8 }
  - { offset: 0x64E6F, size: 0x8, addend: 0x0, symName: __ZN4pyo33err5PyErr5cause17h9300c368713e178aE, symObjAddr: 0x5D8C, symBinAddr: 0x1C384, symSize: 0x50 }
  - { offset: 0x64EE9, size: 0x8, addend: 0x0, symName: __ZN4pyo33err5PyErr5fetch17hac5af1903c7cecc9E, symObjAddr: 0x5DDC, symBinAddr: 0x1C3D4, symSize: 0x5C }
  - { offset: 0x64F25, size: 0x8, addend: 0x0, symName: __ZN4pyo33err5PyErr5value17he2058935dce7c663E, symObjAddr: 0x5E74, symBinAddr: 0x1C430, symSize: 0x28 }
  - { offset: 0x64F7C, size: 0x8, addend: 0x0, symName: __ZN4pyo33err5PyErr7restore17h976965c94a57959cE, symObjAddr: 0x5ECC, symBinAddr: 0x1C458, symSize: 0x68 }
  - { offset: 0x64FE6, size: 0x8, addend: 0x0, symName: __ZN4pyo33err5PyErr8get_type17h5231e5b1665746c0E, symObjAddr: 0x5F34, symBinAddr: 0x1C4C0, symSize: 0x28 }
  - { offset: 0x6502E, size: 0x8, addend: 0x0, symName: __ZN4pyo33err5PyErr8new_type17had9b46d4a0af07e9E, symObjAddr: 0x5F5C, symBinAddr: 0x1C4E8, symSize: 0x2E8 }
  - { offset: 0x651B1, size: 0x8, addend: 0x0, symName: __ZN4pyo33err5PyErr9set_cause17hbc0a60c7f389a52eE, symObjAddr: 0x62D8, symBinAddr: 0x1C820, symSize: 0x170 }
  - { offset: 0x65240, size: 0x8, addend: 0x0, symName: __ZN4pyo33err5PyErr9traceback17h1060f6608049c011E, symObjAddr: 0x647C, symBinAddr: 0x1C9C4, symSize: 0x28 }
  - { offset: 0x654C0, size: 0x8, addend: 0x0, symName: __ZN4core3ptr9alignment9Alignment13new_unchecked18precondition_check17hdaacc8f3715efd1fE, symObjAddr: 0x30, symBinAddr: 0x1D0A4, symSize: 0x70 }
  - { offset: 0x655D3, size: 0x8, addend: 0x0, symName: __ZN11parking_lot4util11unreachable17h799e22b455c98787E, symObjAddr: 0x0, symBinAddr: 0x1D114, symSize: 0x24 }
  - { offset: 0x6567E, size: 0x8, addend: 0x0, symName: '__ZN4core3num23_$LT$impl$u20$usize$GT$13unchecked_add18precondition_check17hdd0876fe32c55daeE', symObjAddr: 0x11A0, symBinAddr: 0x1D16C, symSize: 0x64 }
  - { offset: 0x65BE7, size: 0x8, addend: 0x0, symName: '__ZN4core3ptr8non_null16NonNull$LT$T$GT$13new_unchecked18precondition_check17h2d909577122e6e33E', symObjAddr: 0x1280, symBinAddr: 0x1D1F0, symSize: 0x58 }
  - { offset: 0x65E0F, size: 0x8, addend: 0x0, symName: __ZN4core9ub_checks23maybe_is_nonoverlapping7runtime17h414d58d23fc04ffdE, symObjAddr: 0x1A8C, symBinAddr: 0x1D3A8, symSize: 0xD8 }
  - { offset: 0x66028, size: 0x8, addend: 0x0, symName: __ZN8pyo3_ffi12methodobject17PyCFunction_NewEx17h531893d240dc6e25E, symObjAddr: 0x4AB4, symBinAddr: 0x1D56C, symSize: 0x38 }
  - { offset: 0x660F0, size: 0x8, addend: 0x0, symName: __ZN11parking_lot4util11unreachable17h799e22b455c98787E, symObjAddr: 0x0, symBinAddr: 0x1D114, symSize: 0x24 }
  - { offset: 0x66114, size: 0x8, addend: 0x0, symName: '__ZN78_$LT$parking_lot..raw_mutex..RawMutex$u20$as$u20$lock_api..mutex..RawMutex$GT$4lock17h21b5221872de27b7E', symObjAddr: 0x3FB8, symBinAddr: 0x1D480, symSize: 0x78 }
  - { offset: 0x6613C, size: 0x8, addend: 0x0, symName: '__ZN78_$LT$parking_lot..raw_mutex..RawMutex$u20$as$u20$lock_api..mutex..RawMutex$GT$6unlock17ha295ff8a15a69b9cE', symObjAddr: 0x4030, symBinAddr: 0x1D4F8, symSize: 0x74 }
  - { offset: 0x662AD, size: 0x8, addend: 0x0, symName: __ZN15portable_atomic9AtomicI6416compare_exchange17h3e7557c2d7c57cffE, symObjAddr: 0x134, symBinAddr: 0x1D138, symSize: 0x34 }
  - { offset: 0x663A9, size: 0x8, addend: 0x0, symName: '__ZN4core3ops5range25RangeInclusive$LT$Idx$GT$3new17h83f00fac2266ec7dE', symObjAddr: 0x124C, symBinAddr: 0x1D1D0, symSize: 0x20 }
  - { offset: 0x66440, size: 0x8, addend: 0x0, symName: '__ZN4core3ptr8non_null16NonNull$LT$T$GT$3new17h45487cdbabe8ca8cE', symObjAddr: 0x12D8, symBinAddr: 0x1D248, symSize: 0x58 }
  - { offset: 0x664B7, size: 0x8, addend: 0x0, symName: '__ZN4core3ptr8non_null16NonNull$LT$T$GT$3new17h5cf7bc124445d7adE', symObjAddr: 0x1330, symBinAddr: 0x1D2A0, symSize: 0x58 }
  - { offset: 0x6652E, size: 0x8, addend: 0x0, symName: '__ZN4core3ptr8non_null16NonNull$LT$T$GT$3new17h6148d20df6523790E', symObjAddr: 0x1388, symBinAddr: 0x1D2F8, symSize: 0x58 }
  - { offset: 0x665A5, size: 0x8, addend: 0x0, symName: '__ZN4core3ptr8non_null16NonNull$LT$T$GT$3new17hdd666f23bae1647dE', symObjAddr: 0x13E0, symBinAddr: 0x1D350, symSize: 0x58 }
  - { offset: 0x6678B, size: 0x8, addend: 0x0, symName: __ZN16parking_lot_core11parking_lot10unpark_all17h2ec4ef80508827d3E, symObjAddr: 0x1C, symBinAddr: 0x1D5A4, symSize: 0x458 }
  - { offset: 0x66939, size: 0x8, addend: 0x0, symName: __ZN16parking_lot_core11parking_lot10unpark_one17h12b81246443f7304E, symObjAddr: 0xA70, symBinAddr: 0x1D9FC, symSize: 0x60C }
  - { offset: 0x66A97, size: 0x8, addend: 0x0, symName: __ZN16parking_lot_core11parking_lot11lock_bucket17h72362738ea8fe7f7E, symObjAddr: 0x1128, symBinAddr: 0x1E0B4, symSize: 0x100 }
  - { offset: 0x66B17, size: 0x8, addend: 0x0, symName: __ZN16parking_lot_core11parking_lot13get_hashtable17h23491f9b7f13d23fE, symObjAddr: 0x1228, symBinAddr: 0x1E1B4, symSize: 0xA0 }
  - { offset: 0x66B5C, size: 0x8, addend: 0x0, symName: __ZN16parking_lot_core11parking_lot16with_thread_data11THREAD_DATA27__rust_std_internal_init_fn17h5c6a0cfd1ae76246E, symObjAddr: 0x511C, symBinAddr: 0x1E254, symSize: 0x14 }
  - { offset: 0x66B7E, size: 0x8, addend: 0x0, symName: '__ZN16parking_lot_core11parking_lot16with_thread_data11THREAD_DATA29_$u7b$$u7b$constant$u7d$$u7d$28_$u7b$$u7b$closure$u7d$$u7d$17h33b87f9e27022836E', symObjAddr: 0x5130, symBinAddr: 0x1E268, symSize: 0x34 }
  - { offset: 0x66BBD, size: 0x8, addend: 0x0, symName: '__ZN16parking_lot_core11parking_lot16with_thread_data28_$u7b$$u7b$closure$u7d$$u7d$17h196a2878e596fc25E', symObjAddr: 0x519C, symBinAddr: 0x1E29C, symSize: 0x14 }
  - { offset: 0x66C05, size: 0x8, addend: 0x0, symName: '__ZN16parking_lot_core11parking_lot16with_thread_data28_$u7b$$u7b$closure$u7d$$u7d$17h8d8c07b3751d4123E', symObjAddr: 0x5220, symBinAddr: 0x1E2B0, symSize: 0x14 }
  - { offset: 0x66C4D, size: 0x8, addend: 0x0, symName: '__ZN16parking_lot_core11parking_lot16with_thread_data28_$u7b$$u7b$closure$u7d$$u7d$17hc1506eefe0ab0371E', symObjAddr: 0x5248, symBinAddr: 0x1E2C4, symSize: 0x24 }
  - { offset: 0x66C97, size: 0x8, addend: 0x0, symName: '__ZN16parking_lot_core11parking_lot16with_thread_data28_$u7b$$u7b$closure$u7d$$u7d$17hc6e7ee7ffd871939E', symObjAddr: 0x526C, symBinAddr: 0x1E2E8, symSize: 0x24 }
  - { offset: 0x66CF0, size: 0x8, addend: 0x0, symName: __ZN16parking_lot_core11parking_lot19lock_bucket_checked17h295a48b635241823E, symObjAddr: 0x5340, symBinAddr: 0x1E30C, symSize: 0x134 }
  - { offset: 0x66D8E, size: 0x8, addend: 0x0, symName: __ZN16parking_lot_core11parking_lot4hash17hfb2d168514ec0739E, symObjAddr: 0x5474, symBinAddr: 0x1E440, symSize: 0x90 }
  - { offset: 0x66E8A, size: 0x8, addend: 0x0, symName: '__ZN16parking_lot_core11parking_lot4park28_$u7b$$u7b$closure$u7d$$u7d$17h1445384273c9912cE', symObjAddr: 0x6744, symBinAddr: 0x1E7B8, symSize: 0x7C4 }
  - { offset: 0x67076, size: 0x8, addend: 0x0, symName: '__ZN16parking_lot_core11parking_lot4park28_$u7b$$u7b$closure$u7d$$u7d$17h8c95eb9058fa06caE', symObjAddr: 0x76D0, symBinAddr: 0x1EF7C, symSize: 0x7BC }
  - { offset: 0x672AD, size: 0x8, addend: 0x0, symName: __ZN16parking_lot_core11parking_lot4park17h934e12e1cbbbc066E, symObjAddr: 0x599C, symBinAddr: 0x1E4D0, symSize: 0x178 }
  - { offset: 0x673DB, size: 0x8, addend: 0x0, symName: __ZN16parking_lot_core11parking_lot4park17ha095fe96861abd34E, symObjAddr: 0x5B14, symBinAddr: 0x1E648, symSize: 0x170 }
  - { offset: 0x674C5, size: 0x8, addend: 0x0, symName: '__ZN86_$LT$parking_lot_core..parking_lot..UnparkResult$u20$as$u20$core..default..Default$GT$7default17h64530a70b02bf0ccE', symObjAddr: 0x97B0, symBinAddr: 0x1F764, symSize: 0x14 }
  - { offset: 0x67651, size: 0x8, addend: 0x0, symName: '__ZN4core3ptr9const_ptr66_$LT$impl$u20$core..cmp..PartialEq$u20$for$u20$$BP$const$u20$T$GT$2eq17h54d9c4c5efccd70dE', symObjAddr: 0x963C, symBinAddr: 0x1F738, symSize: 0x2C }
  - { offset: 0x67C07, size: 0x8, addend: 0x0, symName: __ZN16parking_lot_core11parking_lot11FairTimeout14should_timeout17h77cedaaaa6d269dcE, symObjAddr: 0x107C, symBinAddr: 0x1E008, symSize: 0xAC }
  - { offset: 0x680B7, size: 0x8, addend: 0x0, symName: '__ZN8smallvec12layout_array28_$u7b$$u7b$closure$u7d$$u7d$17h5dabd485780c0f1cE', symObjAddr: 0x5650, symBinAddr: 0x22624, symSize: 0x10 }
  - { offset: 0x680FB, size: 0x8, addend: 0x0, symName: '__ZN58_$LT$$u5b$T$u3b$$u20$8$u5d$$u20$as$u20$smallvec..Array$GT$4size17h845f3f6d07579f6bE', symObjAddr: 0x436C, symBinAddr: 0x21BE8, symSize: 0xC }
  - { offset: 0x68129, size: 0x8, addend: 0x0, symName: '__ZN65_$LT$smallvec..CollectionAllocErr$u20$as$u20$core..fmt..Debug$GT$3fmt17h71823301b4cc0c43E', symObjAddr: 0x4808, symBinAddr: 0x21E0C, symSize: 0xAC }
  - { offset: 0x6818A, size: 0x8, addend: 0x0, symName: '__ZN69_$LT$smallvec..IntoIter$LT$A$GT$$u20$as$u20$core..ops..drop..Drop$GT$4drop17hbf43b3ec9f461cfdE', symObjAddr: 0x4944, symBinAddr: 0x21EB8, symSize: 0x44 }
  - { offset: 0x681E1, size: 0x8, addend: 0x0, symName: '__ZN69_$LT$smallvec..SmallVec$LT$A$GT$$u20$as$u20$core..ops..drop..Drop$GT$4drop17h74016b0bc06909fdE', symObjAddr: 0x4A0C, symBinAddr: 0x21EFC, symSize: 0x84 }
  - { offset: 0x68248, size: 0x8, addend: 0x0, symName: '__ZN74_$LT$smallvec..SmallVec$LT$A$GT$$u20$as$u20$core..ops..deref..DerefMut$GT$9deref_mut17hbe1aeb0489664588E', symObjAddr: 0x4B74, symBinAddr: 0x21FCC, symSize: 0x4C }
  - { offset: 0x682B3, size: 0x8, addend: 0x0, symName: '__ZN83_$LT$smallvec..SmallVec$LT$A$GT$$u20$as$u20$core..ops..index..IndexMut$LT$I$GT$$GT$9index_mut17h774a73dd6e9f8422E', symObjAddr: 0x4EA4, symBinAddr: 0x22228, symSize: 0xA0 }
  - { offset: 0x68326, size: 0x8, addend: 0x0, symName: '__ZN86_$LT$smallvec..IntoIter$LT$A$GT$$u20$as$u20$core..iter..traits..iterator..Iterator$GT$4next17h8126c7a2749ff410E', symObjAddr: 0x4FE4, symBinAddr: 0x222C8, symSize: 0xB8 }
  - { offset: 0x6839F, size: 0x8, addend: 0x0, symName: '__ZN89_$LT$smallvec..SmallVec$LT$A$GT$$u20$as$u20$core..iter..traits..collect..IntoIterator$GT$9into_iter17hc24916960bc348c1E', symObjAddr: 0x516C, symBinAddr: 0x22380, symSize: 0xA8 }
  - { offset: 0x683F6, size: 0x8, addend: 0x0, symName: __ZN8smallvec10deallocate17h2fbfe750b69fb209E, symObjAddr: 0x52C4, symBinAddr: 0x22428, symSize: 0xBC }
  - { offset: 0x6848E, size: 0x8, addend: 0x0, symName: __ZN8smallvec10infallible17h31e1c83421d8485cE, symObjAddr: 0x543C, symBinAddr: 0x224E4, symSize: 0x7C }
  - { offset: 0x684E4, size: 0x8, addend: 0x0, symName: __ZN8smallvec12ConstNonNull17h689c34819d2a0705E, symObjAddr: 0x54B8, symBinAddr: 0x22560, symSize: 0x14 }
  - { offset: 0x68518, size: 0x8, addend: 0x0, symName: __ZN8smallvec12layout_array17ha4bc707fe798e367E, symObjAddr: 0x54E0, symBinAddr: 0x22574, symSize: 0xB0 }
  - { offset: 0x68C38, size: 0x8, addend: 0x0, symName: __ZN4core3ptr9alignment9Alignment13new_unchecked18precondition_check17hccbc260a1e6c733cE, symObjAddr: 0x3464, symBinAddr: 0x210FC, symSize: 0x70 }
  - { offset: 0x68DD4, size: 0x8, addend: 0x0, symName: '__ZN4core3ptr8non_null16NonNull$LT$T$GT$13new_unchecked18precondition_check17hb164d18f2bfe967aE', symObjAddr: 0x3240, symBinAddr: 0x20F44, symSize: 0x58 }
  - { offset: 0x6906C, size: 0x8, addend: 0x0, symName: '__ZN4core3ptr101drop_in_place$LT$alloc..raw_vec..RawVec$LT$parking_lot_core..thread_parker..imp..UnparkHandle$GT$$GT$17h318c59619dabfc8fE', symObjAddr: 0x2D94, symBinAddr: 0x20BE4, symSize: 0x24 }
  - { offset: 0x6909B, size: 0x8, addend: 0x0, symName: '__ZN4core3ptr118drop_in_place$LT$smallvec..IntoIter$LT$$u5b$parking_lot_core..thread_parker..imp..UnparkHandle$u3b$$u20$8$u5d$$GT$$GT$17h0eafb6fb39be0e72E', symObjAddr: 0x2DB8, symBinAddr: 0x20C08, symSize: 0x5C }
  - { offset: 0x690CA, size: 0x8, addend: 0x0, symName: '__ZN4core3ptr118drop_in_place$LT$smallvec..SmallVec$LT$$u5b$parking_lot_core..thread_parker..imp..UnparkHandle$u3b$$u20$8$u5d$$GT$$GT$17h76605e4903531cffE', symObjAddr: 0x2E14, symBinAddr: 0x20C64, symSize: 0x24 }
  - { offset: 0x690FE, size: 0x8, addend: 0x0, symName: __ZN4core3ptr19copy_nonoverlapping18precondition_check17h01f0e957c5707d42E, symObjAddr: 0x2EB8, symBinAddr: 0x20C88, symSize: 0x168 }
  - { offset: 0x692B3, size: 0x8, addend: 0x0, symName: __ZN4core3ptr4read17h06e49dc1da622307E, symObjAddr: 0x30A0, symBinAddr: 0x20DF0, symSize: 0x18 }
  - { offset: 0x692EA, size: 0x8, addend: 0x0, symName: __ZN4core3ptr5write17h73129eb45da99f41E, symObjAddr: 0x3104, symBinAddr: 0x20E08, symSize: 0x20 }
  - { offset: 0x6932C, size: 0x8, addend: 0x0, symName: '__ZN4core3ptr62drop_in_place$LT$parking_lot_core..parking_lot..ThreadData$GT$17h126227ad07cb28fdE', symObjAddr: 0x3124, symBinAddr: 0x20E28, symSize: 0x5C }
  - { offset: 0x6935B, size: 0x8, addend: 0x0, symName: '__ZN4core3ptr72drop_in_place$LT$parking_lot..once..Once..call_once_slow..PanicGuard$GT$17hc62b31ecbfecb22bE', symObjAddr: 0x3180, symBinAddr: 0x20E84, symSize: 0x24 }
  - { offset: 0x6938F, size: 0x8, addend: 0x0, symName: __ZN4core3ptr7replace18precondition_check17h0e34e24bb3ff4427E, symObjAddr: 0x31A4, symBinAddr: 0x20EA8, symSize: 0x9C }
  - { offset: 0x69462, size: 0x8, addend: 0x0, symName: '__ZN4core3ptr90drop_in_place$LT$core..option..Option$LT$parking_lot_core..parking_lot..ThreadData$GT$$GT$17hfb588aea8c7d2a33E', symObjAddr: 0x33C8, symBinAddr: 0x21060, symSize: 0x40 }
  - { offset: 0x69491, size: 0x8, addend: 0x0, symName: '__ZN4core3ptr94drop_in_place$LT$alloc..vec..Vec$LT$parking_lot_core..thread_parker..imp..UnparkHandle$GT$$GT$17ha1a2e641176cee59E', symObjAddr: 0x3408, symBinAddr: 0x210A0, symSize: 0x5C }
  - { offset: 0x698EC, size: 0x8, addend: 0x0, symName: __ZN4core3mem4drop17h7e36726c12de3b10E, symObjAddr: 0x1F74, symBinAddr: 0x206BC, symSize: 0x14 }
  - { offset: 0x69920, size: 0x8, addend: 0x0, symName: __ZN4core3mem6forget17h53dc1eb2881ae186E, symObjAddr: 0x1F88, symBinAddr: 0x206D0, symSize: 0x10 }
  - { offset: 0x6A4AC, size: 0x8, addend: 0x0, symName: '__ZN4core3num21_$LT$impl$u20$i64$GT$11checked_add17h76a04cc0738f8732E', symObjAddr: 0x1F98, symBinAddr: 0x206E0, symSize: 0x6C }
  - { offset: 0x6A561, size: 0x8, addend: 0x0, symName: '__ZN4core3num23_$LT$impl$u20$usize$GT$11checked_add17hbdc01874dc7e701eE', symObjAddr: 0x2004, symBinAddr: 0x2074C, symSize: 0x7C }
  - { offset: 0x6A5E6, size: 0x8, addend: 0x0, symName: '__ZN4core3num23_$LT$impl$u20$usize$GT$11checked_mul17h46d94c070a30c39bE', symObjAddr: 0x2080, symBinAddr: 0x207C8, symSize: 0x74 }
  - { offset: 0x6A6FC, size: 0x8, addend: 0x0, symName: '__ZN4core3num23_$LT$impl$u20$usize$GT$25checked_next_power_of_two17h0b4bd6bac600a0ddE', symObjAddr: 0x20F4, symBinAddr: 0x2083C, symSize: 0xC0 }
  - { offset: 0x6A904, size: 0x8, addend: 0x0, symName: '__ZN153_$LT$core..result..Result$LT$T$C$F$GT$$u20$as$u20$core..ops..try_trait..FromResidual$LT$core..result..Result$LT$core..convert..Infallible$C$E$GT$$GT$$GT$13from_residual17h3bf468c4e4762d60E', symObjAddr: 0x129C, symBinAddr: 0x20044, symSize: 0x24 }
  - { offset: 0x6A94D, size: 0x8, addend: 0x0, symName: '__ZN153_$LT$core..result..Result$LT$T$C$F$GT$$u20$as$u20$core..ops..try_trait..FromResidual$LT$core..result..Result$LT$core..convert..Infallible$C$E$GT$$GT$$GT$13from_residual17h5b71402b2f6abf29E', symObjAddr: 0x12C0, symBinAddr: 0x20068, symSize: 0x38 }
  - { offset: 0x6ADF7, size: 0x8, addend: 0x0, symName: '__ZN79_$LT$core..result..Result$LT$T$C$E$GT$$u20$as$u20$core..ops..try_trait..Try$GT$6branch17h6f799fe9b52ea498E', symObjAddr: 0x4CA8, symBinAddr: 0x220CC, symSize: 0x70 }
  - { offset: 0x6AE74, size: 0x8, addend: 0x0, symName: '__ZN79_$LT$core..result..Result$LT$T$C$E$GT$$u20$as$u20$core..ops..try_trait..Try$GT$6branch17h7196a6b1b2dd4ebfE', symObjAddr: 0x4D18, symBinAddr: 0x2213C, symSize: 0x70 }
  - { offset: 0x6AEF1, size: 0x8, addend: 0x0, symName: '__ZN79_$LT$core..result..Result$LT$T$C$E$GT$$u20$as$u20$core..ops..try_trait..Try$GT$6branch17hb7becf3697932922E', symObjAddr: 0x4D88, symBinAddr: 0x221AC, symSize: 0x74 }
  - { offset: 0x6B578, size: 0x8, addend: 0x0, symName: __ZN4core4hint21unreachable_unchecked18precondition_check17h99345e0c31e09fc5E, symObjAddr: 0x3580, symBinAddr: 0x211BC, symSize: 0x3C }
  - { offset: 0x6B7ED, size: 0x8, addend: 0x0, symName: __ZN4core3ops8function6FnOnce9call_once17h04ea44da36d16fe6E, symObjAddr: 0x2230, symBinAddr: 0x208FC, symSize: 0x4C }
  - { offset: 0x6B831, size: 0x8, addend: 0x0, symName: __ZN4core3ops8function6FnOnce9call_once17h35776d5e3a1cf0c1E, symObjAddr: 0x25CC, symBinAddr: 0x20948, symSize: 0x64 }
  - { offset: 0x6B875, size: 0x8, addend: 0x0, symName: __ZN4core3ops8function6FnOnce9call_once17h44dd3455f8713acdE, symObjAddr: 0x2680, symBinAddr: 0x209AC, symSize: 0x4C }
  - { offset: 0x6B8B9, size: 0x8, addend: 0x0, symName: __ZN4core3ops8function6FnOnce9call_once17h4958a9cb44836a85E, symObjAddr: 0x26CC, symBinAddr: 0x209F8, symSize: 0x4C }
  - { offset: 0x6B8FD, size: 0x8, addend: 0x0, symName: __ZN4core3ops8function6FnOnce9call_once17h4b267a7781a568a9E, symObjAddr: 0x2718, symBinAddr: 0x20A44, symSize: 0x1C }
  - { offset: 0x6B941, size: 0x8, addend: 0x0, symName: __ZN4core3ops8function6FnOnce9call_once17h6e194cbd1b1fee23E, symObjAddr: 0x27BC, symBinAddr: 0x20A60, symSize: 0x58 }
  - { offset: 0x6B981, size: 0x8, addend: 0x0, symName: __ZN4core3ops8function6FnOnce9call_once17h8bd592e36e3b7241E, symObjAddr: 0x28CC, symBinAddr: 0x20AB8, symSize: 0x3C }
  - { offset: 0x6B9C1, size: 0x8, addend: 0x0, symName: __ZN4core3ops8function6FnOnce9call_once17h9124792e9a982b9eE, symObjAddr: 0x2908, symBinAddr: 0x20AF4, symSize: 0x50 }
  - { offset: 0x6BA01, size: 0x8, addend: 0x0, symName: __ZN4core3ops8function6FnOnce9call_once17hace5edf574a2018eE, symObjAddr: 0x2A44, symBinAddr: 0x20B44, symSize: 0x1C }
  - { offset: 0x6BA45, size: 0x8, addend: 0x0, symName: __ZN4core3ops8function6FnOnce9call_once17hba7b3b047f5d7446E, symObjAddr: 0x2A60, symBinAddr: 0x20B60, symSize: 0x24 }
  - { offset: 0x6BA89, size: 0x8, addend: 0x0, symName: __ZN4core3ops8function6FnOnce9call_once17he050a8f873a4244bE, symObjAddr: 0x2AF0, symBinAddr: 0x20B84, symSize: 0x24 }
  - { offset: 0x6BACD, size: 0x8, addend: 0x0, symName: __ZN4core3ops8function6FnOnce9call_once17hea1198f7d671eb6bE, symObjAddr: 0x2B80, symBinAddr: 0x20BA8, symSize: 0x3C }
  - { offset: 0x6BF2F, size: 0x8, addend: 0x0, symName: __ZN4core9ub_checks23maybe_is_nonoverlapping7runtime17hda8502046a14b556E, symObjAddr: 0x4294, symBinAddr: 0x21B10, symSize: 0xD8 }
  - { offset: 0x6C153, size: 0x8, addend: 0x0, symName: __ZN4core5slice3raw18from_raw_parts_mut17h4e761db389995dfeE, symObjAddr: 0x3848, symBinAddr: 0x21428, symSize: 0x58 }
  - { offset: 0x6C19B, size: 0x8, addend: 0x0, symName: __ZN4core5slice3raw18from_raw_parts_mut18precondition_check17h9378558d81b429ddE, symObjAddr: 0x38A0, symBinAddr: 0x21480, symSize: 0x10C }
  - { offset: 0x6C2FC, size: 0x8, addend: 0x0, symName: '__ZN97_$LT$core..ops..range..RangeFull$u20$as$u20$core..slice..index..SliceIndex$LT$$u5b$T$u5d$$GT$$GT$9index_mut17h28bcb45ef2f1f5b2E', symObjAddr: 0x7050, symBinAddr: 0x23224, symSize: 0x18 }
  - { offset: 0x6C355, size: 0x8, addend: 0x0, symName: '__ZN63_$LT$I$u20$as$u20$core..iter..traits..collect..IntoIterator$GT$9into_iter17h3129ae4bba2abae6E', symObjAddr: 0x46C8, symBinAddr: 0x21DC8, symSize: 0x30 }
  - { offset: 0x6C38D, size: 0x8, addend: 0x0, symName: '__ZN63_$LT$I$u20$as$u20$core..iter..traits..collect..IntoIterator$GT$9into_iter17heccc649e3bd386a1E', symObjAddr: 0x4728, symBinAddr: 0x21DF8, symSize: 0x14 }
  - { offset: 0x6C3D0, size: 0x8, addend: 0x0, symName: '__ZN72_$LT$$RF$mut$u20$I$u20$as$u20$core..iter..traits..iterator..Iterator$GT$4next17hb19dc19e4b829db7E', symObjAddr: 0x4B00, symBinAddr: 0x21FA4, symSize: 0x28 }
  - { offset: 0x6C489, size: 0x8, addend: 0x0, symName: '__ZN11parking_lot4once4Once14call_once_slow28_$u7b$$u7b$closure$u7d$$u7d$17h1b14b43f62de0cf5E', symObjAddr: 0xB2C, symBinAddr: 0x1FFC8, symSize: 0x10 }
  - { offset: 0x6C4AF, size: 0x8, addend: 0x0, symName: '__ZN11parking_lot4once4Once14call_once_slow28_$u7b$$u7b$closure$u7d$$u7d$17h2ba1c39a7d365f6fE', symObjAddr: 0xB3C, symBinAddr: 0x1FFD8, symSize: 0x34 }
  - { offset: 0x6C4EB, size: 0x8, addend: 0x0, symName: '__ZN11parking_lot4once4Once14call_once_slow28_$u7b$$u7b$closure$u7d$$u7d$17h318170b7428b7be8E', symObjAddr: 0xB70, symBinAddr: 0x2000C, symSize: 0x38 }
  - { offset: 0x6C520, size: 0x8, addend: 0x0, symName: '__ZN93_$LT$parking_lot..once..Once..call_once_slow..PanicGuard$u20$as$u20$core..ops..drop..Drop$GT$4drop17hc8c5c0a3e80a6ba9E', symObjAddr: 0x6F74, symBinAddr: 0x231CC, symSize: 0x58 }
  - { offset: 0x6C68F, size: 0x8, addend: 0x0, symName: __ZN3std3sys12thread_local20abort_on_dtor_unwind17hb848fcb263ca0edeE, symObjAddr: 0x17E4, symBinAddr: 0x2049C, symSize: 0x50 }
  - { offset: 0x6C736, size: 0x8, addend: 0x0, symName: '__ZN77_$LT$std..sys..pal..unix..time..Timespec$u20$as$u20$core..cmp..PartialOrd$GT$11partial_cmp17h9533ad97b3ff6e5bE', symObjAddr: 0x4C24, symBinAddr: 0x22048, symSize: 0x84 }
  - { offset: 0x6C9EC, size: 0x8, addend: 0x0, symName: __ZN16parking_lot_core11parking_lot8deadlock9on_unpark17h34925b3220b9a2b2E, symObjAddr: 0x1318, symBinAddr: 0x200A0, symSize: 0x10 }
  - { offset: 0x6CBB6, size: 0x8, addend: 0x0, symName: '__ZN117_$LT$parking_lot_core..thread_parker..imp..ThreadParker$u20$as$u20$parking_lot_core..thread_parker..ThreadParkerT$GT$10park_until17hbb2db75e96a30adaE', symObjAddr: 0x38, symBinAddr: 0x1F778, symSize: 0x314 }
  - { offset: 0x6CD99, size: 0x8, addend: 0x0, symName: '__ZN117_$LT$parking_lot_core..thread_parker..imp..ThreadParker$u20$as$u20$parking_lot_core..thread_parker..ThreadParkerT$GT$11unpark_lock17hb20e9755bcdf4e47E', symObjAddr: 0x34C, symBinAddr: 0x1FA8C, symSize: 0x8C }
  - { offset: 0x6CE2B, size: 0x8, addend: 0x0, symName: '__ZN117_$LT$parking_lot_core..thread_parker..imp..ThreadParker$u20$as$u20$parking_lot_core..thread_parker..ThreadParkerT$GT$12prepare_park17hc323da7b84bac85cE', symObjAddr: 0x3D8, symBinAddr: 0x1FB18, symSize: 0x64 }
  - { offset: 0x6CE53, size: 0x8, addend: 0x0, symName: '__ZN117_$LT$parking_lot_core..thread_parker..imp..ThreadParker$u20$as$u20$parking_lot_core..thread_parker..ThreadParkerT$GT$4park17h8e120f39282fca9bE', symObjAddr: 0x43C, symBinAddr: 0x1FB7C, symSize: 0x170 }
  - { offset: 0x6CF7F, size: 0x8, addend: 0x0, symName: '__ZN117_$LT$parking_lot_core..thread_parker..imp..ThreadParker$u20$as$u20$parking_lot_core..thread_parker..ThreadParkerT$GT$9timed_out17he24c13e7c1ede220E', symObjAddr: 0x5AC, symBinAddr: 0x1FCEC, symSize: 0x100 }
  - { offset: 0x6D09A, size: 0x8, addend: 0x0, symName: '__ZN117_$LT$parking_lot_core..thread_parker..imp..UnparkHandle$u20$as$u20$parking_lot_core..thread_parker..UnparkHandleT$GT$6unpark17h25fee6ed0ddd44f6E', symObjAddr: 0x6AC, symBinAddr: 0x1FDEC, symSize: 0x1DC }
  - { offset: 0x6D1B9, size: 0x8, addend: 0x0, symName: __ZN16parking_lot_core13thread_parker3imp12thread_yield17h6166126d00b6b2c0E, symObjAddr: 0x1338, symBinAddr: 0x200C0, symSize: 0x14 }
  - { offset: 0x6D1D2, size: 0x8, addend: 0x0, symName: __ZN16parking_lot_core13thread_parker3imp12timespec_now17hdad414a0079517dbE, symObjAddr: 0x134C, symBinAddr: 0x200D4, symSize: 0xF8 }
  - { offset: 0x6D2EF, size: 0x8, addend: 0x0, symName: __ZN16parking_lot_core13thread_parker3imp19timeout_to_timespec17h82427820dcd80e5aE, symObjAddr: 0x1444, symBinAddr: 0x201CC, symSize: 0x12C }
  - { offset: 0x6D35F, size: 0x8, addend: 0x0, symName: '__ZN16parking_lot_core13thread_parker3imp19timeout_to_timespec28_$u7b$$u7b$closure$u7d$$u7d$17h401072f57b039de2E', symObjAddr: 0x1570, symBinAddr: 0x202F8, symSize: 0x24 }
  - { offset: 0x6D39B, size: 0x8, addend: 0x0, symName: '__ZN16parking_lot_core13thread_parker3imp19timeout_to_timespec28_$u7b$$u7b$closure$u7d$$u7d$17hbd3a63f12172ac00E', symObjAddr: 0x1594, symBinAddr: 0x2031C, symSize: 0x28 }
  - { offset: 0x6D463, size: 0x8, addend: 0x0, symName: __ZN16parking_lot_core8spinwait9cpu_relax17h3d7605b1cea21e5eE, symObjAddr: 0x1790, symBinAddr: 0x20448, symSize: 0x54 }
  - { offset: 0x6D4FD, size: 0x8, addend: 0x0, symName: '__ZN79_$LT$parking_lot_core..spinwait..SpinWait$u20$as$u20$core..default..Default$GT$7default17h45e1804ebdc3dcbfE', symObjAddr: 0x4DFC, symBinAddr: 0x22220, symSize: 0x8 }
  - { offset: 0x6D587, size: 0x8, addend: 0x0, symName: __ZN11parking_lot4once4Once14call_once_slow17h7077594eb20aa31eE, symObjAddr: 0x888, symBinAddr: 0x5ACEC, symSize: 0x2A4 }
  - { offset: 0x6D7FB, size: 0x8, addend: 0x0, symName: __ZN16parking_lot_core13thread_parker3imp12ThreadParker4init17hc9ad6a3689846609E, symObjAddr: 0x1328, symBinAddr: 0x200B0, symSize: 0x10 }
  - { offset: 0x6D8B9, size: 0x8, addend: 0x0, symName: __ZN16parking_lot_core8spinwait8SpinWait3new17h439a7bc4e6338272E, symObjAddr: 0x168C, symBinAddr: 0x20344, symSize: 0x14 }
  - { offset: 0x6D8CC, size: 0x8, addend: 0x0, symName: __ZN16parking_lot_core8spinwait8SpinWait4spin17hd2c15b202e0588c0E, symObjAddr: 0x16A0, symBinAddr: 0x20358, symSize: 0xD8 }
  - { offset: 0x6D8EE, size: 0x8, addend: 0x0, symName: __ZN16parking_lot_core8spinwait8SpinWait5reset17hdcd8aed5cfadd248E, symObjAddr: 0x1778, symBinAddr: 0x20430, symSize: 0x18 }
  - { offset: 0x6D9B7, size: 0x8, addend: 0x0, symName: '__ZN3std6thread5local17LocalKey$LT$T$GT$8try_with17h74e5d1670ea5304cE', symObjAddr: 0x1B10, symBinAddr: 0x204EC, symSize: 0xD8 }
  - { offset: 0x6DB39, size: 0x8, addend: 0x0, symName: '__ZN3std6thread5local17LocalKey$LT$T$GT$8try_with17h957d4da5e97f67fcE', symObjAddr: 0x1CC0, symBinAddr: 0x205C4, symSize: 0xD8 }
  - { offset: 0x6DD0D, size: 0x8, addend: 0x0, symName: __ZN4core3fmt9Arguments8from_str17hdcbef1010e74e6d0E, symObjAddr: 0x1F40, symBinAddr: 0x2069C, symSize: 0x20 }
  - { offset: 0x6DDD9, size: 0x8, addend: 0x0, symName: '__ZN4core3ptr8non_null16NonNull$LT$T$GT$3new17h76cd91a47eacaeb5E', symObjAddr: 0x32F0, symBinAddr: 0x20F9C, symSize: 0x58 }
  - { offset: 0x6DE50, size: 0x8, addend: 0x0, symName: '__ZN4core3ptr8non_null16NonNull$LT$T$GT$3new17hbaabe9df68faf0cbE', symObjAddr: 0x3348, symBinAddr: 0x20FF4, symSize: 0x58 }
  - { offset: 0x6DE92, size: 0x8, addend: 0x0, symName: '__ZN4core3ptr8non_null16NonNull$LT$T$GT$4cast17hb6571ac2cf78345dE', symObjAddr: 0x33A0, symBinAddr: 0x2104C, symSize: 0x14 }
  - { offset: 0x6DED4, size: 0x8, addend: 0x0, symName: '__ZN4core4cell13Cell$LT$T$GT$3get17h09052790ad7072d4E', symObjAddr: 0x34D4, symBinAddr: 0x2116C, symSize: 0x18 }
  - { offset: 0x6DF35, size: 0x8, addend: 0x0, symName: '__ZN4core4cell13Cell$LT$T$GT$3set17h1e9ddfe234256772E', symObjAddr: 0x352C, symBinAddr: 0x21184, symSize: 0x1C }
  - { offset: 0x6DFD3, size: 0x8, addend: 0x0, symName: '__ZN4core4cell13Cell$LT$T$GT$3set17he1ae281f5d1aaad3E', symObjAddr: 0x3564, symBinAddr: 0x211A0, symSize: 0x1C }
  - { offset: 0x6E056, size: 0x8, addend: 0x0, symName: __ZN4core4time8Duration12subsec_nanos17h9d66877a852c437fE, symObjAddr: 0x35BC, symBinAddr: 0x211F8, symSize: 0x18 }
  - { offset: 0x6E0B1, size: 0x8, addend: 0x0, symName: __ZN4core4time8Duration3new17he384691241d869d6E, symObjAddr: 0x35D4, symBinAddr: 0x21210, symSize: 0x124 }
  - { offset: 0x6E175, size: 0x8, addend: 0x0, symName: __ZN4core4time8Duration7as_secs17h6c3a8ab3095f282cE, symObjAddr: 0x36F8, symBinAddr: 0x21334, symSize: 0x18 }
  - { offset: 0x6E1FA, size: 0x8, addend: 0x0, symName: __ZN4core5alloc6layout6Layout15from_size_align17heae01513a4a2ddf0E, symObjAddr: 0x3710, symBinAddr: 0x2134C, symSize: 0xC4 }
  - { offset: 0x6E2E3, size: 0x8, addend: 0x0, symName: __ZN4core5alloc6layout6Layout4size17h696802e50499f5b4E, symObjAddr: 0x37D4, symBinAddr: 0x21410, symSize: 0x18 }
  - { offset: 0x6E37A, size: 0x8, addend: 0x0, symName: '__ZN4core6option15Option$LT$T$GT$18get_or_insert_with17h095d11da7a24f11aE', symObjAddr: 0x3A04, symBinAddr: 0x2158C, symSize: 0x160 }
  - { offset: 0x6E41F, size: 0x8, addend: 0x0, symName: '__ZN4core6option15Option$LT$T$GT$3map17h2145058ab6a61e00E', symObjAddr: 0x3B64, symBinAddr: 0x216EC, symSize: 0x6C }
  - { offset: 0x6E4A2, size: 0x8, addend: 0x0, symName: '__ZN4core6option15Option$LT$T$GT$3map17h30f8ba835fe661dfE', symObjAddr: 0x3BD0, symBinAddr: 0x21758, symSize: 0x50 }
  - { offset: 0x6E525, size: 0x8, addend: 0x0, symName: '__ZN4core6option15Option$LT$T$GT$5ok_or17h1d42c12cc65b098aE', symObjAddr: 0x3C70, symBinAddr: 0x217A8, symSize: 0x68 }
  - { offset: 0x6E587, size: 0x8, addend: 0x0, symName: '__ZN4core6option15Option$LT$T$GT$5ok_or17haca65c9fa0c762afE', symObjAddr: 0x3CD8, symBinAddr: 0x21810, symSize: 0x6C }
  - { offset: 0x6E5E9, size: 0x8, addend: 0x0, symName: '__ZN4core6option15Option$LT$T$GT$6expect17h486e900360429b7eE', symObjAddr: 0x3D44, symBinAddr: 0x2187C, symSize: 0x58 }
  - { offset: 0x6E631, size: 0x8, addend: 0x0, symName: '__ZN4core6option15Option$LT$T$GT$7is_some17hd7508b796eb78f26E', symObjAddr: 0x3E18, symBinAddr: 0x218D4, symSize: 0x30 }
  - { offset: 0x6E675, size: 0x8, addend: 0x0, symName: '__ZN4core6option15Option$LT$T$GT$8and_then17h4a041a3e2290270cE', symObjAddr: 0x3E48, symBinAddr: 0x21904, symSize: 0x54 }
  - { offset: 0x6E6E0, size: 0x8, addend: 0x0, symName: '__ZN4core6option15Option$LT$T$GT$8and_then17hbe79411ff2d675ceE', symObjAddr: 0x3E9C, symBinAddr: 0x21958, symSize: 0x54 }
  - { offset: 0x6E74B, size: 0x8, addend: 0x0, symName: '__ZN4core6result19Result$LT$T$C$E$GT$14unwrap_or_else17hd6b902f24414a360E', symObjAddr: 0x4094, symBinAddr: 0x219AC, symSize: 0x54 }
  - { offset: 0x6E7B6, size: 0x8, addend: 0x0, symName: '__ZN4core6result19Result$LT$T$C$E$GT$14unwrap_or_else17hef616c37f9d82e52E', symObjAddr: 0x40E8, symBinAddr: 0x21A00, symSize: 0x54 }
  - { offset: 0x6E82E, size: 0x8, addend: 0x0, symName: '__ZN4core6result19Result$LT$T$C$E$GT$5is_ok17h5237b21e2c26a865E', symObjAddr: 0x413C, symBinAddr: 0x21A54, symSize: 0x20 }
  - { offset: 0x6E888, size: 0x8, addend: 0x0, symName: '__ZN4core6result19Result$LT$T$C$E$GT$6is_err17h72cde54d34ec0681E', symObjAddr: 0x417C, symBinAddr: 0x21A74, symSize: 0x20 }
  - { offset: 0x6E8DB, size: 0x8, addend: 0x0, symName: '__ZN4core6result19Result$LT$T$C$E$GT$7map_err17h3eb76701efb0d19cE', symObjAddr: 0x419C, symBinAddr: 0x21A94, symSize: 0x7C }
  - { offset: 0x6EA3C, size: 0x8, addend: 0x0, symName: '__ZN5alloc3vec16Vec$LT$T$C$A$GT$17from_raw_parts_in18precondition_check17hf1bd75498e747407E', symObjAddr: 0x4508, symBinAddr: 0x21CBC, symSize: 0x60 }
  - { offset: 0x6EA96, size: 0x8, addend: 0x0, symName: '__ZN70_$LT$alloc..vec..Vec$LT$T$C$A$GT$$u20$as$u20$core..ops..drop..Drop$GT$4drop17h363eff0b49ea4588E', symObjAddr: 0x4A90, symBinAddr: 0x21F80, symSize: 0x24 }
  - { offset: 0x6EB55, size: 0x8, addend: 0x0, symName: __ZN5alloc5alloc5alloc17hbcfebd813e1b8f68E, symObjAddr: 0x4568, symBinAddr: 0x21D1C, symSize: 0x38 }
  - { offset: 0x6EB81, size: 0x8, addend: 0x0, symName: __ZN5alloc5alloc7dealloc17he8365f08bbe17660E, symObjAddr: 0x45A0, symBinAddr: 0x21D54, symSize: 0x38 }
  - { offset: 0x6EBB7, size: 0x8, addend: 0x0, symName: __ZN5alloc5alloc7realloc17heb0869d1aff04c5dE, symObjAddr: 0x45D8, symBinAddr: 0x21D8C, symSize: 0x3C }
  - { offset: 0x6EDBB, size: 0x8, addend: 0x0, symName: '__ZN77_$LT$alloc..raw_vec..RawVec$LT$T$C$A$GT$$u20$as$u20$core..ops..drop..Drop$GT$4drop17he5596bd525826f34E', symObjAddr: 0x4BF4, symBinAddr: 0x22018, symSize: 0x30 }
  - { offset: 0x6EDFA, size: 0x8, addend: 0x0, symName: '__ZN5alloc3vec12Vec$LT$T$GT$14from_raw_parts17h3efb6d4fa2ace34fE', symObjAddr: 0x4378, symBinAddr: 0x21BF4, symSize: 0x2C }
  - { offset: 0x6EF1B, size: 0x8, addend: 0x0, symName: '__ZN5alloc3vec16Vec$LT$T$C$A$GT$17from_raw_parts_in17hba235b206b7dc54bE', symObjAddr: 0x446C, symBinAddr: 0x21C20, symSize: 0x9C }
  - { offset: 0x6F20F, size: 0x8, addend: 0x0, symName: '__ZN8smallvec17SmallVec$LT$A$GT$10triple_mut17h60301cdc722c74cfE', symObjAddr: 0x5700, symBinAddr: 0x22634, symSize: 0xA0 }
  - { offset: 0x6F269, size: 0x8, addend: 0x0, symName: '__ZN8smallvec17SmallVec$LT$A$GT$15inline_capacity17hc9b9578c0f995087E', symObjAddr: 0x57E0, symBinAddr: 0x226D4, symSize: 0x40 }
  - { offset: 0x6F286, size: 0x8, addend: 0x0, symName: '__ZN8smallvec17SmallVec$LT$A$GT$21reserve_one_unchecked17hf794777bbb25bb5dE', symObjAddr: 0x58F4, symBinAddr: 0x5AF90, symSize: 0xD4 }
  - { offset: 0x6F329, size: 0x8, addend: 0x0, symName: '__ZN8smallvec17SmallVec$LT$A$GT$3len17hfb6d3b266cf12588E', symObjAddr: 0x59F4, symBinAddr: 0x22714, symSize: 0x2C }
  - { offset: 0x6F355, size: 0x8, addend: 0x0, symName: '__ZN8smallvec17SmallVec$LT$A$GT$3new17ha84e1c4b54ec1256E', symObjAddr: 0x5AD4, symBinAddr: 0x22740, symSize: 0xAC }
  - { offset: 0x6F38E, size: 0x8, addend: 0x0, symName: '__ZN8smallvec17SmallVec$LT$A$GT$4push17h00d2fcfdb51fd8ffE', symObjAddr: 0x5B80, symBinAddr: 0x227EC, symSize: 0x164 }
  - { offset: 0x6F475, size: 0x8, addend: 0x0, symName: '__ZN8smallvec17SmallVec$LT$A$GT$6as_ptr17h17b7583efe1e0b14E', symObjAddr: 0x5E60, symBinAddr: 0x22950, symSize: 0x30 }
  - { offset: 0x6F4CA, size: 0x8, addend: 0x0, symName: '__ZN8smallvec17SmallVec$LT$A$GT$6triple17hc75a8a877638d0eaE', symObjAddr: 0x5F5C, symBinAddr: 0x22980, symSize: 0x9C }
  - { offset: 0x6F524, size: 0x8, addend: 0x0, symName: '__ZN8smallvec17SmallVec$LT$A$GT$7set_len17ha0914adac9400a56E', symObjAddr: 0x603C, symBinAddr: 0x22A1C, symSize: 0x44 }
  - { offset: 0x6F57D, size: 0x8, addend: 0x0, symName: '__ZN8smallvec17SmallVec$LT$A$GT$7spilled17h48e9bc9b8c36d125E', symObjAddr: 0x6080, symBinAddr: 0x22A60, symSize: 0x38 }
  - { offset: 0x6F5A9, size: 0x8, addend: 0x0, symName: '__ZN8smallvec17SmallVec$LT$A$GT$8capacity17heceea06b92ae7215E', symObjAddr: 0x611C, symBinAddr: 0x22A98, symSize: 0x2C }
  - { offset: 0x6F5D5, size: 0x8, addend: 0x0, symName: '__ZN8smallvec17SmallVec$LT$A$GT$8try_grow17h0c92216099496f6dE', symObjAddr: 0x6148, symBinAddr: 0x22AC4, symSize: 0x468 }
  - { offset: 0x6F7CA, size: 0x8, addend: 0x0, symName: '__ZN8smallvec21ConstNonNull$LT$T$GT$3new17h68dc02c9582d31d0E', symObjAddr: 0x6A34, symBinAddr: 0x22F2C, symSize: 0x28 }
  - { offset: 0x6F7F6, size: 0x8, addend: 0x0, symName: '__ZN8smallvec21ConstNonNull$LT$T$GT$6as_ptr17ha02ded2680ee3e84E', symObjAddr: 0x6A84, symBinAddr: 0x22F54, symSize: 0x1C }
  - { offset: 0x6F85A, size: 0x8, addend: 0x0, symName: '__ZN8smallvec21SmallVecData$LT$A$GT$10inline_mut17h4c3b50bbf2ea5cd3E', symObjAddr: 0x6ABC, symBinAddr: 0x22F70, symSize: 0x94 }
  - { offset: 0x6F8C2, size: 0x8, addend: 0x0, symName: '__ZN8smallvec21SmallVecData$LT$A$GT$11from_inline17h92da5b5f04da5eabE', symObjAddr: 0x6C1C, symBinAddr: 0x23004, symSize: 0x38 }
  - { offset: 0x6F91A, size: 0x8, addend: 0x0, symName: '__ZN8smallvec21SmallVecData$LT$A$GT$4heap17he3625d3af390b054E', symObjAddr: 0x6CBC, symBinAddr: 0x2303C, symSize: 0x68 }
  - { offset: 0x6F99F, size: 0x8, addend: 0x0, symName: '__ZN8smallvec21SmallVecData$LT$A$GT$6inline17h425e9c50d5590eb6E', symObjAddr: 0x6D24, symBinAddr: 0x230A4, symSize: 0x94 }
  - { offset: 0x6FA25, size: 0x8, addend: 0x0, symName: '__ZN8smallvec21SmallVecData$LT$A$GT$8heap_mut17h87ec5553d4a13e1bE', symObjAddr: 0x6E4C, symBinAddr: 0x23138, symSize: 0x68 }
  - { offset: 0x6FA7F, size: 0x8, addend: 0x0, symName: '__ZN8smallvec21SmallVecData$LT$A$GT$9from_heap17ha8f0f250f0a0af8fE', symObjAddr: 0x6F48, symBinAddr: 0x231A0, symSize: 0x2C }
  - { offset: 0x6FD75, size: 0x8, addend: 0x0, symName: '__ZN64_$LT$usize$u20$as$u20$parking_lot_core..word_lock..LockState$GT$10queue_head17hfcc4bc123a728c75E', symObjAddr: 0x48FC, symBinAddr: 0x247C8, symSize: 0x14 }
  - { offset: 0x6FDA3, size: 0x8, addend: 0x0, symName: '__ZN64_$LT$usize$u20$as$u20$parking_lot_core..word_lock..LockState$GT$15is_queue_locked17hd441910400259412E', symObjAddr: 0x4910, symBinAddr: 0x247DC, symSize: 0x18 }
  - { offset: 0x6FECD, size: 0x8, addend: 0x0, symName: __ZN4core3cmp10PartialOrd2gt17h717cb20d9668c29bE, symObjAddr: 0x3198, symBinAddr: 0x23590, symSize: 0x70 }
  - { offset: 0x6FF8F, size: 0x8, addend: 0x0, symName: __ZN4core3cmp10PartialOrd2le17h4d396e68a7831d3eE, symObjAddr: 0x3208, symBinAddr: 0x23600, symSize: 0x70 }
  - { offset: 0x702A5, size: 0x8, addend: 0x0, symName: __ZN4core4sync6atomic11atomic_load17h8512edd813a69e5aE, symObjAddr: 0x35BC, symBinAddr: 0x237D8, symSize: 0xF8 }
  - { offset: 0x702EB, size: 0x8, addend: 0x0, symName: __ZN4core4sync6atomic12atomic_store17h75fcb7b2a20ccb77E, symObjAddr: 0x38A8, symBinAddr: 0x238D0, symSize: 0xFC }
  - { offset: 0x7033C, size: 0x8, addend: 0x0, symName: __ZN4core4sync6atomic12atomic_store17h9abeab2b5e84c515E, symObjAddr: 0x39A4, symBinAddr: 0x239CC, symSize: 0xFC }
  - { offset: 0x7038D, size: 0x8, addend: 0x0, symName: __ZN4core4sync6atomic23atomic_compare_exchange17h59a331d201f411dfE, symObjAddr: 0x3AF0, symBinAddr: 0x23AC8, symSize: 0x4F4 }
  - { offset: 0x70426, size: 0x8, addend: 0x0, symName: __ZN4core4sync6atomic28atomic_compare_exchange_weak17hce97a2008a19a8a8E, symObjAddr: 0x3FE4, symBinAddr: 0x23FBC, symSize: 0x4F4 }
  - { offset: 0x704BF, size: 0x8, addend: 0x0, symName: __ZN4core4sync6atomic5fence17h4e4898b16a4103abE, symObjAddr: 0x44D8, symBinAddr: 0x244B0, symSize: 0xB0 }
  - { offset: 0x70FB0, size: 0x8, addend: 0x0, symName: '__ZN11parking_lot9raw_mutex8RawMutex11unlock_slow28_$u7b$$u7b$closure$u7d$$u7d$17hc082fcdf6d0551f7E', symObjAddr: 0x2730, symBinAddr: 0x2323C, symSize: 0xD4 }
  - { offset: 0x71029, size: 0x8, addend: 0x0, symName: '__ZN11parking_lot9raw_mutex8RawMutex9lock_slow28_$u7b$$u7b$closure$u7d$$u7d$17h41f26781377294f5E', symObjAddr: 0x2ABC, symBinAddr: 0x23310, symSize: 0x10 }
  - { offset: 0x7104D, size: 0x8, addend: 0x0, symName: '__ZN11parking_lot9raw_mutex8RawMutex9lock_slow28_$u7b$$u7b$closure$u7d$$u7d$17h5c74ac67061066d7E', symObjAddr: 0x2ACC, symBinAddr: 0x23320, symSize: 0x38 }
  - { offset: 0x7107C, size: 0x8, addend: 0x0, symName: '__ZN11parking_lot9raw_mutex8RawMutex9lock_slow28_$u7b$$u7b$closure$u7d$$u7d$17ha7aeb13a90011912E', symObjAddr: 0x2B04, symBinAddr: 0x23358, symSize: 0x48 }
  - { offset: 0x71136, size: 0x8, addend: 0x0, symName: '__ZN60_$LT$std..time..Instant$u20$as$u20$core..cmp..PartialOrd$GT$11partial_cmp17h23195f326d4e64fcE', symObjAddr: 0x48D8, symBinAddr: 0x247A4, symSize: 0x24 }
  - { offset: 0x7134A, size: 0x8, addend: 0x0, symName: __ZN3std3sys12thread_local6native4lazy7destroy17h92bc652813eb4fa2E, symObjAddr: 0x3104, symBinAddr: 0x234FC, symSize: 0x30 }
  - { offset: 0x71380, size: 0x8, addend: 0x0, symName: '__ZN3std3sys12thread_local6native4lazy7destroy28_$u7b$$u7b$closure$u7d$$u7d$17h59a4757b2245c39dE', symObjAddr: 0x3134, symBinAddr: 0x2352C, symSize: 0x64 }
  - { offset: 0x7143B, size: 0x8, addend: 0x0, symName: '__ZN81_$LT$$LP$$RP$$u20$as$u20$std..sys..thread_local..native..lazy..DestroyedState$GT$13register_dtor17ha6287f469c0424e7E', symObjAddr: 0x4A24, symBinAddr: 0x247F4, symSize: 0x34 }
  - { offset: 0x714A3, size: 0x8, addend: 0x0, symName: __ZN11parking_lot9raw_mutex8RawMutex11unlock_slow17h565777bfbd1ff70dE, symObjAddr: 0x26E8, symBinAddr: 0x5B064, symSize: 0x48 }
  - { offset: 0x71511, size: 0x8, addend: 0x0, symName: __ZN11parking_lot9raw_mutex8RawMutex9lock_slow17hefba47a905d3ea96E, symObjAddr: 0x28E0, symBinAddr: 0x5B0AC, symSize: 0x1DC }
  - { offset: 0x71606, size: 0x8, addend: 0x0, symName: __ZN16parking_lot_core9word_lock8WordLock4lock17h348a5c6c3056dcf4E, symObjAddr: 0x2B4C, symBinAddr: 0x233A0, symSize: 0x64 }
  - { offset: 0x71628, size: 0x8, addend: 0x0, symName: __ZN16parking_lot_core9word_lock8WordLock6unlock17h5255b9242eb9be9dE, symObjAddr: 0x2BB0, symBinAddr: 0x23404, symSize: 0x68 }
  - { offset: 0x717A6, size: 0x8, addend: 0x0, symName: '__ZN3std3sys12thread_local6native4lazy20Storage$LT$T$C$D$GT$11get_or_init17h4d010574e9e3daabE', symObjAddr: 0x2CAC, symBinAddr: 0x2346C, symSize: 0x90 }
  - { offset: 0x71A22, size: 0x8, addend: 0x0, symName: '__ZN3std3sys12thread_local6native4lazy20Storage$LT$T$C$D$GT$16get_or_init_slow17hf86a9273dd094784E', symObjAddr: 0x2EE8, symBinAddr: 0x5B288, symSize: 0x21C }
  - { offset: 0x71E54, size: 0x8, addend: 0x0, symName: __ZN4core4sync6atomic11AtomicUsize21compare_exchange_weak17h2f04ba12b1ccd97bE, symObjAddr: 0x3290, symBinAddr: 0x23670, symSize: 0x30 }
  - { offset: 0x71EB3, size: 0x8, addend: 0x0, symName: __ZN4core4sync6atomic11AtomicUsize4load17h85ad22ee09b4279fE, symObjAddr: 0x32C0, symBinAddr: 0x236A0, symSize: 0x24 }
  - { offset: 0x71EE5, size: 0x8, addend: 0x0, symName: __ZN4core4sync6atomic11AtomicUsize5store17h24c8a1f86abb5639E, symObjAddr: 0x32E4, symBinAddr: 0x236C4, symSize: 0x28 }
  - { offset: 0x71F5C, size: 0x8, addend: 0x0, symName: __ZN4core4sync6atomic11AtomicUsize9fetch_sub17hb7147f2aabc5968cE, symObjAddr: 0x34D0, symBinAddr: 0x236EC, symSize: 0xEC }
  - { offset: 0x71FF7, size: 0x8, addend: 0x0, symName: __ZN4core4sync6atomic8AtomicU821compare_exchange_weak17h383d6909249adf05E, symObjAddr: 0x45BC, symBinAddr: 0x24560, symSize: 0x34 }
  - { offset: 0x72056, size: 0x8, addend: 0x0, symName: __ZN4core4sync6atomic8AtomicU84load17hc480d299ca9a9e8fE, symObjAddr: 0x45F0, symBinAddr: 0x24594, symSize: 0x24 }
  - { offset: 0x720BE, size: 0x8, addend: 0x0, symName: __ZN4core4sync6atomic8AtomicU84swap17h594f6317ec22b45eE, symObjAddr: 0x4614, symBinAddr: 0x245B8, symSize: 0xD8 }
  - { offset: 0x7214C, size: 0x8, addend: 0x0, symName: __ZN4core4sync6atomic8AtomicU85store17h6b1c8a8bba8bff3cE, symObjAddr: 0x46EC, symBinAddr: 0x24690, symSize: 0x28 }
  - { offset: 0x721A9, size: 0x8, addend: 0x0, symName: __ZN4core4sync6atomic8AtomicU89fetch_and17h1104463cdcd2b73cE, symObjAddr: 0x47EC, symBinAddr: 0x246B8, symSize: 0xEC }
  - { offset: 0x722A3, size: 0x8, addend: 0x0, symName: '__ZN103_$LT$std..sys..thread_local..abort_on_dtor_unwind..DtorUnwindGuard$u20$as$u20$core..ops..drop..Drop$GT$4drop17h6f3f0a269f34d56dE', symObjAddr: 0x0, symBinAddr: 0x24828, symSize: 0x4C }
  - { offset: 0x722DB, size: 0x8, addend: 0x0, symName: '__ZN16parking_lot_core9word_lock16with_thread_data11THREAD_DATA29_$u7b$$u7b$constant$u7d$$u7d$28_$u7b$$u7b$closure$u7d$$u7d$23__RUST_STD_INTERNAL_VAL17h21bbf42eb925f6a1E', symObjAddr: 0x4E70, symBinAddr: 0x94E50, symSize: 0x0 }
  - { offset: 0x722EA, size: 0x8, addend: 0x0, symName: '__ZN16parking_lot_core9word_lock16with_thread_data11THREAD_DATA29_$u7b$$u7b$constant$u7d$$u7d$28_$u7b$$u7b$closure$u7d$$u7d$17h8e3ad04b40a41259E', symObjAddr: 0x164, symBinAddr: 0x2498C, symSize: 0x34 }
  - { offset: 0x72328, size: 0x8, addend: 0x0, symName: __ZN16parking_lot_core9word_lock16with_thread_data11THREAD_DATA27__rust_std_internal_init_fn17hfb62052f8f80207dE, symObjAddr: 0x150, symBinAddr: 0x24978, symSize: 0x14 }
  - { offset: 0x72346, size: 0x8, addend: 0x0, symName: '__ZN16parking_lot_core9word_lock16with_thread_data28_$u7b$$u7b$closure$u7d$$u7d$17h883ee692912a127bE', symObjAddr: 0x320, symBinAddr: 0x24B48, symSize: 0x14 }
  - { offset: 0x723DE, size: 0x8, addend: 0x0, symName: __ZN16parking_lot_core9word_lock13fence_acquire17ha6e1d205b621dd0aE, symObjAddr: 0x12C, symBinAddr: 0x24954, symSize: 0x24 }
  - { offset: 0x72408, size: 0x8, addend: 0x0, symName: __ZN16parking_lot_core9word_lock16with_thread_data17hce00d57c8ddb82dbE, symObjAddr: 0x198, symBinAddr: 0x249C0, symSize: 0x188 }
  - { offset: 0x72516, size: 0x8, addend: 0x0, symName: '__ZN16parking_lot_core9word_lock8WordLock9lock_slow28_$u7b$$u7b$closure$u7d$$u7d$17h8f1f3a27edbcc705E', symObjAddr: 0x9CC, symBinAddr: 0x24C60, symSize: 0x144 }
  - { offset: 0x725D4, size: 0x8, addend: 0x0, symName: '__ZN64_$LT$usize$u20$as$u20$parking_lot_core..word_lock..LockState$GT$10queue_head17h4fff4f0c49b2c5e7E', symObjAddr: 0x3E7C, symBinAddr: 0x2810C, symSize: 0x14 }
  - { offset: 0x72602, size: 0x8, addend: 0x0, symName: '__ZN64_$LT$usize$u20$as$u20$parking_lot_core..word_lock..LockState$GT$15is_queue_locked17h7afc7790ec72b64dE', symObjAddr: 0x3E90, symBinAddr: 0x28120, symSize: 0x18 }
  - { offset: 0x72630, size: 0x8, addend: 0x0, symName: '__ZN64_$LT$usize$u20$as$u20$parking_lot_core..word_lock..LockState$GT$15with_queue_head17hdbe170d66a29dbe1E', symObjAddr: 0x3EA8, symBinAddr: 0x28138, symSize: 0x1C }
  - { offset: 0x7266D, size: 0x8, addend: 0x0, symName: '__ZN64_$LT$usize$u20$as$u20$parking_lot_core..word_lock..LockState$GT$9is_locked17h64e40cf919f45c32E', symObjAddr: 0x3EC4, symBinAddr: 0x28154, symSize: 0x18 }
  - { offset: 0x728F9, size: 0x8, addend: 0x0, symName: '__ZN103_$LT$std..sys..thread_local..abort_on_dtor_unwind..DtorUnwindGuard$u20$as$u20$core..ops..drop..Drop$GT$4drop17h6f3f0a269f34d56dE', symObjAddr: 0x0, symBinAddr: 0x24828, symSize: 0x4C }
  - { offset: 0x72948, size: 0x8, addend: 0x0, symName: __ZN3std3sys12thread_local20abort_on_dtor_unwind17had8020ccae661f0eE, symObjAddr: 0x148C, symBinAddr: 0x25720, symSize: 0x50 }
  - { offset: 0x72A2D, size: 0x8, addend: 0x0, symName: '__ZN81_$LT$std..io..default_write_fmt..Adapter$LT$T$GT$$u20$as$u20$core..fmt..Write$GT$9write_str17h0b907639689ea0d8E', symObjAddr: 0x403C, symBinAddr: 0x282CC, symSize: 0xB4 }
  - { offset: 0x72BA4, size: 0x8, addend: 0x0, symName: '__ZN78_$LT$std..io..error..repr_bitpacked..Repr$u20$as$u20$core..ops..drop..Drop$GT$4drop28_$u7b$$u7b$closure$u7d$$u7d$17h56fb48808bbdfdc0E', symObjAddr: 0x4000, symBinAddr: 0x28290, symSize: 0x3C }
  - { offset: 0x72C59, size: 0x8, addend: 0x0, symName: '__ZN78_$LT$std..io..error..repr_bitpacked..Repr$u20$as$u20$core..ops..drop..Drop$GT$4drop17hccbafd637c7b2128E', symObjAddr: 0x3FC8, symBinAddr: 0x28258, symSize: 0x38 }
  - { offset: 0x72C82, size: 0x8, addend: 0x0, symName: __ZN3std2io5error14repr_bitpacked11decode_repr17hd674d6ac25f3571fE, symObjAddr: 0xC10, symBinAddr: 0x24EA4, symSize: 0x1DC }
  - { offset: 0x72ED8, size: 0x8, addend: 0x0, symName: '__ZN3std2io5error14repr_bitpacked4Repr4data28_$u7b$$u7b$closure$u7d$$u7d$17h3eeceab5f67ced20E', symObjAddr: 0x1478, symBinAddr: 0x2570C, symSize: 0x14 }
  - { offset: 0x72F10, size: 0x8, addend: 0x0, symName: __ZN3std2io5error14repr_bitpacked11decode_repr17hfda85371dcb4ce8cE, symObjAddr: 0xDEC, symBinAddr: 0x25080, symSize: 0x1DC }
  - { offset: 0x73155, size: 0x8, addend: 0x0, symName: __ZN3std2io5error14repr_bitpacked14kind_from_prim17h66e55c76b4076216E, symObjAddr: 0xFC8, symBinAddr: 0x2525C, symSize: 0x4B0 }
  - { offset: 0x73B69, size: 0x8, addend: 0x0, symName: __ZN3std2io17default_write_fmt17ha40db2d94de1a0d1E, symObjAddr: 0xB10, symBinAddr: 0x24DA4, symSize: 0x100 }
  - { offset: 0x755C0, size: 0x8, addend: 0x0, symName: '__ZN4core3ptr9const_ptr33_$LT$impl$u20$$BP$const$u20$T$GT$7is_null17h3bfd9152c97dfc98E', symObjAddr: 0x190C, symBinAddr: 0x25B9C, symSize: 0x18 }
  - { offset: 0x75645, size: 0x8, addend: 0x0, symName: __ZN4core3ptr19copy_nonoverlapping18precondition_check17h06d419c732f70851E, symObjAddr: 0x1708, symBinAddr: 0x25998, symSize: 0x168 }
  - { offset: 0x757FF, size: 0x8, addend: 0x0, symName: __ZN4core3ptr7replace18precondition_check17h5ff76c4b47900879E, symObjAddr: 0x1870, symBinAddr: 0x25B00, symSize: 0x9C }
  - { offset: 0x75ED1, size: 0x8, addend: 0x0, symName: __ZN4core4sync6atomic11atomic_load17h74b50e182743afd4E, symObjAddr: 0x208C, symBinAddr: 0x2631C, symSize: 0xF8 }
  - { offset: 0x75F17, size: 0x8, addend: 0x0, symName: __ZN4core4sync6atomic11atomic_load17hdecda685720c250eE, symObjAddr: 0x2184, symBinAddr: 0x26414, symSize: 0xF8 }
  - { offset: 0x75F5D, size: 0x8, addend: 0x0, symName: __ZN4core4sync6atomic12atomic_store17h7c642af790e3a7abE, symObjAddr: 0x227C, symBinAddr: 0x2650C, symSize: 0xFC }
  - { offset: 0x76048, size: 0x8, addend: 0x0, symName: __ZN4core4sync6atomic23atomic_compare_exchange17hab59d20843179f03E, symObjAddr: 0x2400, symBinAddr: 0x26690, symSize: 0x4B4 }
  - { offset: 0x760E3, size: 0x8, addend: 0x0, symName: __ZN4core4sync6atomic28atomic_compare_exchange_weak17h153e5a4fd480c74eE, symObjAddr: 0x28B4, symBinAddr: 0x26B44, symSize: 0x4B4 }
  - { offset: 0x7617E, size: 0x8, addend: 0x0, symName: __ZN4core4sync6atomic5fence17h4050b37bbaadf2a9E, symObjAddr: 0x2D68, symBinAddr: 0x26FF8, symSize: 0xB0 }
  - { offset: 0x768F6, size: 0x8, addend: 0x0, symName: __ZN4core3fmt5Write10write_char17he2340302dfb6e1a7E, symObjAddr: 0x1664, symBinAddr: 0x258F4, symSize: 0x70 }
  - { offset: 0x7695E, size: 0x8, addend: 0x0, symName: __ZN4core3fmt5Write9write_fmt17h328296ea325bbca5E, symObjAddr: 0x16D4, symBinAddr: 0x25964, symSize: 0x34 }
  - { offset: 0x769AB, size: 0x8, addend: 0x0, symName: '__ZN75_$LT$$RF$mut$u20$W$u20$as$u20$core..fmt..Write..write_fmt..SpecWriteFmt$GT$14spec_write_fmt17he9ad391866096d32E', symObjAddr: 0x3F00, symBinAddr: 0x28190, symSize: 0x98 }
  - { offset: 0x76C73, size: 0x8, addend: 0x0, symName: '__ZN47_$LT$u32$u20$as$u20$core..iter..range..Step$GT$17forward_unchecked17h8a2fb0df26b90eb6E', symObjAddr: 0x15B4, symBinAddr: 0x25848, symSize: 0x5C }
  - { offset: 0x76CD8, size: 0x8, addend: 0x0, symName: '__ZN49_$LT$usize$u20$as$u20$core..iter..range..Step$GT$17forward_unchecked17h7a13f14a6fb4d8dfE', symObjAddr: 0x1610, symBinAddr: 0x258A4, symSize: 0x50 }
  - { offset: 0x76DCA, size: 0x8, addend: 0x0, symName: __ZN4core4char7methods15encode_utf8_raw8do_panic7runtime17hc2551f11fe392e2aE, symObjAddr: 0x1B24, symBinAddr: 0x25DB4, symSize: 0xC4 }
  - { offset: 0x76EC7, size: 0x8, addend: 0x0, symName: __ZN4core4char7methods15encode_utf8_raw17he811f0f93b58616aE, symObjAddr: 0x1A24, symBinAddr: 0x25CB4, symSize: 0x100 }
  - { offset: 0x77001, size: 0x8, addend: 0x0, symName: __ZN4core4char7methods25encode_utf8_raw_unchecked17h27ab6bc5f8b15f14E, symObjAddr: 0x1BE8, symBinAddr: 0x25E78, symSize: 0x188 }
  - { offset: 0x7756E, size: 0x8, addend: 0x0, symName: __ZN16parking_lot_core9word_lock10ThreadData3new17h2da00326f6701149E, symObjAddr: 0x4C, symBinAddr: 0x24874, symSize: 0xE0 }
  - { offset: 0x775CB, size: 0x8, addend: 0x0, symName: __ZN16parking_lot_core9word_lock8WordLock11unlock_slow17h46568b13a3e07dd1E, symObjAddr: 0x334, symBinAddr: 0x5B4A4, symSize: 0x4A0 }
  - { offset: 0x776C7, size: 0x8, addend: 0x0, symName: __ZN16parking_lot_core9word_lock8WordLock3new17h1a58b226865037f0E, symObjAddr: 0x7D4, symBinAddr: 0x24B5C, symSize: 0x38 }
  - { offset: 0x776DA, size: 0x8, addend: 0x0, symName: __ZN16parking_lot_core9word_lock8WordLock4lock17h0046415fb5a180f1E, symObjAddr: 0x80C, symBinAddr: 0x24B94, symSize: 0x64 }
  - { offset: 0x776FC, size: 0x8, addend: 0x0, symName: __ZN16parking_lot_core9word_lock8WordLock6unlock17h05f41fc44b7da3d0E, symObjAddr: 0x870, symBinAddr: 0x24BF8, symSize: 0x68 }
  - { offset: 0x77733, size: 0x8, addend: 0x0, symName: __ZN16parking_lot_core9word_lock8WordLock9lock_slow17h8c446c748efc1f0dE, symObjAddr: 0x8D8, symBinAddr: 0x5B944, symSize: 0xF4 }
  - { offset: 0x77AA4, size: 0x8, addend: 0x0, symName: '__ZN3std6thread5local17LocalKey$LT$T$GT$8try_with17h449d9a3175b431acE', symObjAddr: 0x14DC, symBinAddr: 0x25770, symSize: 0xD8 }
  - { offset: 0x77C35, size: 0x8, addend: 0x0, symName: '__ZN4core4cell13Cell$LT$T$GT$3get17h2c49dcccbaf3a8f6E', symObjAddr: 0x1924, symBinAddr: 0x25BB4, symSize: 0x1C }
  - { offset: 0x77C7B, size: 0x8, addend: 0x0, symName: '__ZN4core4cell13Cell$LT$T$GT$3get17h4919b209e39f7fa5E', symObjAddr: 0x1940, symBinAddr: 0x25BD0, symSize: 0x18 }
  - { offset: 0x77CB4, size: 0x8, addend: 0x0, symName: '__ZN4core4cell13Cell$LT$T$GT$3get17heb77aff5ef465241E', symObjAddr: 0x1958, symBinAddr: 0x25BE8, symSize: 0x18 }
  - { offset: 0x77CE0, size: 0x8, addend: 0x0, symName: '__ZN4core4cell13Cell$LT$T$GT$3new17h0b7201dcffbc43a8E', symObjAddr: 0x1970, symBinAddr: 0x25C00, symSize: 0x14 }
  - { offset: 0x77D0C, size: 0x8, addend: 0x0, symName: '__ZN4core4cell13Cell$LT$T$GT$3new17h3a5141a0324f86eaE', symObjAddr: 0x1984, symBinAddr: 0x25C14, symSize: 0x14 }
  - { offset: 0x77D38, size: 0x8, addend: 0x0, symName: '__ZN4core4cell13Cell$LT$T$GT$3new17hc0b052aa936393efE', symObjAddr: 0x1998, symBinAddr: 0x25C28, symSize: 0x10 }
  - { offset: 0x77D64, size: 0x8, addend: 0x0, symName: '__ZN4core4cell13Cell$LT$T$GT$3new17hc572ad98b262fc7bE', symObjAddr: 0x19A8, symBinAddr: 0x25C38, symSize: 0x10 }
  - { offset: 0x77D90, size: 0x8, addend: 0x0, symName: '__ZN4core4cell13Cell$LT$T$GT$3new17hfc69e8cac4dcfcb8E', symObjAddr: 0x19B8, symBinAddr: 0x25C48, symSize: 0x10 }
  - { offset: 0x77DE4, size: 0x8, addend: 0x0, symName: '__ZN4core4cell13Cell$LT$T$GT$3set17h15a658a371134926E', symObjAddr: 0x19C8, symBinAddr: 0x25C58, symSize: 0x20 }
  - { offset: 0x77E82, size: 0x8, addend: 0x0, symName: '__ZN4core4cell13Cell$LT$T$GT$3set17h511aa8358f1f172aE', symObjAddr: 0x19E8, symBinAddr: 0x25C78, symSize: 0x20 }
  - { offset: 0x77F20, size: 0x8, addend: 0x0, symName: '__ZN4core4cell13Cell$LT$T$GT$3set17h749ebc6c0228d2abE', symObjAddr: 0x1A08, symBinAddr: 0x25C98, symSize: 0x1C }
  - { offset: 0x78072, size: 0x8, addend: 0x0, symName: __ZN4core4sync6atomic11AtomicUsize21compare_exchange_weak17hb0749721eb071bc5E, symObjAddr: 0x1D70, symBinAddr: 0x26000, symSize: 0x30 }
  - { offset: 0x780D1, size: 0x8, addend: 0x0, symName: __ZN4core4sync6atomic11AtomicUsize3new17h9bd8420c0688018fE, symObjAddr: 0x1DA0, symBinAddr: 0x26030, symSize: 0x18 }
  - { offset: 0x780F4, size: 0x8, addend: 0x0, symName: __ZN4core4sync6atomic11AtomicUsize4load17h1d2f8407c8353da2E, symObjAddr: 0x1DB8, symBinAddr: 0x26048, symSize: 0x24 }
  - { offset: 0x7815C, size: 0x8, addend: 0x0, symName: __ZN4core4sync6atomic11AtomicUsize9fetch_add17h01128ba797bf5e05E, symObjAddr: 0x1DDC, symBinAddr: 0x2606C, symSize: 0xD8 }
  - { offset: 0x78206, size: 0x8, addend: 0x0, symName: __ZN4core4sync6atomic11AtomicUsize9fetch_and17hfbc5a3705ddcb2c8E, symObjAddr: 0x1EB4, symBinAddr: 0x26144, symSize: 0xEC }
  - { offset: 0x782B0, size: 0x8, addend: 0x0, symName: __ZN4core4sync6atomic11AtomicUsize9fetch_sub17h03145ee15c7a6093E, symObjAddr: 0x1FA0, symBinAddr: 0x26230, symSize: 0xEC }
  - { offset: 0x7838C, size: 0x8, addend: 0x0, symName: '__ZN4core4sync6atomic18AtomicPtr$LT$T$GT$16compare_exchange17h5b86de41d10f4053E', symObjAddr: 0x2378, symBinAddr: 0x26608, symSize: 0x38 }
  - { offset: 0x783F4, size: 0x8, addend: 0x0, symName: '__ZN4core4sync6atomic18AtomicPtr$LT$T$GT$4load17h970eadead19a8217E', symObjAddr: 0x23B0, symBinAddr: 0x26640, symSize: 0x24 }
  - { offset: 0x7842F, size: 0x8, addend: 0x0, symName: '__ZN4core4sync6atomic18AtomicPtr$LT$T$GT$5store17h8461a6de72f9398dE', symObjAddr: 0x23D4, symBinAddr: 0x26664, symSize: 0x2C }
  - { offset: 0x784EE, size: 0x8, addend: 0x0, symName: '__ZN4core6option15Option$LT$T$GT$18get_or_insert_with17h2ac6035e7444c520E', symObjAddr: 0x2E18, symBinAddr: 0x270A8, symSize: 0x160 }
  - { offset: 0x78593, size: 0x8, addend: 0x0, symName: '__ZN4core6result19Result$LT$T$C$E$GT$5is_ok17h37b2f59969a52899E', symObjAddr: 0x2F78, symBinAddr: 0x27208, symSize: 0x20 }
  - { offset: 0x788FE, size: 0x8, addend: 0x0, symName: '__ZN77_$LT$alloc..raw_vec..RawVec$LT$T$C$A$GT$$u20$as$u20$core..ops..drop..Drop$GT$4drop17hed7f2a77353a4a26E', symObjAddr: 0x3F98, symBinAddr: 0x28228, symSize: 0x30 }
  - { offset: 0x78A91, size: 0x8, addend: 0x0, symName: '__ZN63_$LT$alloc..alloc..Global$u20$as$u20$core..alloc..Allocator$GT$10deallocate17h154ebe32dffbb324E', symObjAddr: 0x3DE0, symBinAddr: 0x28070, symSize: 0x58 }
  - { offset: 0x78B5F, size: 0x8, addend: 0x0, symName: '__ZN63_$LT$alloc..alloc..Global$u20$as$u20$core..alloc..Allocator$GT$6shrink17h4546dcae8a7ed9c6E', symObjAddr: 0x3E38, symBinAddr: 0x280C8, symSize: 0x44 }
  - { offset: 0x78BF1, size: 0x8, addend: 0x0, symName: __ZN5alloc5alloc15exchange_malloc17haba64e74cf9bd7c5E, symObjAddr: 0x32D4, symBinAddr: 0x27564, symSize: 0xB0 }
  - { offset: 0x78F02, size: 0x8, addend: 0x0, symName: '__ZN70_$LT$alloc..vec..Vec$LT$T$C$A$GT$$u20$as$u20$core..ops..drop..Drop$GT$4drop17hf51dc9be96f3a869E', symObjAddr: 0x3EDC, symBinAddr: 0x2816C, symSize: 0x24 }
  - { offset: 0x791FE, size: 0x8, addend: 0x0, symName: '__ZN5alloc3vec12Vec$LT$T$GT$13with_capacity17h95b7f46bd7e3e30bE', symObjAddr: 0x2F98, symBinAddr: 0x27228, symSize: 0x40 }
  - { offset: 0x79659, size: 0x8, addend: 0x0, symName: '__ZN5alloc3vec16Vec$LT$T$C$A$GT$16into_boxed_slice17h06803474cf1c8098E', symObjAddr: 0x2FD8, symBinAddr: 0x27268, symSize: 0x1E4 }
  - { offset: 0x79A3A, size: 0x8, addend: 0x0, symName: '__ZN5alloc3vec16Vec$LT$T$C$A$GT$4push17he556a7cd7c13a45eE', symObjAddr: 0x31BC, symBinAddr: 0x2744C, symSize: 0x24 }
  - { offset: 0x79B6C, size: 0x8, addend: 0x0, symName: '__ZN5alloc3vec16Vec$LT$T$C$A$GT$8push_mut17hf690ac5bdda73f86E', symObjAddr: 0x31E0, symBinAddr: 0x27470, symSize: 0xF4 }
  - { offset: 0x79E93, size: 0x8, addend: 0x0, symName: __ZN5alloc5alloc6Global18alloc_impl_runtime17h92f3711403f2d348E, symObjAddr: 0x3384, symBinAddr: 0x27614, symSize: 0x194 }
  - { offset: 0x7A3CE, size: 0x8, addend: 0x0, symName: __ZN5alloc5alloc6Global19shrink_impl_runtime17hf793471f6046080aE, symObjAddr: 0x3518, symBinAddr: 0x277A8, symSize: 0x304 }
  - { offset: 0x7AA8A, size: 0x8, addend: 0x0, symName: '__ZN5alloc7raw_vec19RawVec$LT$T$C$A$GT$8grow_one17hc97ac70880881e01E', symObjAddr: 0x381C, symBinAddr: 0x27AAC, symSize: 0x84 }
  - { offset: 0x7AB6C, size: 0x8, addend: 0x0, symName: '__ZN5alloc7raw_vec20RawVecInner$LT$A$GT$14current_memory17h66cd07754bf5dad1E', symObjAddr: 0x38A0, symBinAddr: 0x27B30, symSize: 0x10C }
  - { offset: 0x7AD9A, size: 0x8, addend: 0x0, symName: '__ZN5alloc7raw_vec20RawVecInner$LT$A$GT$16shrink_unchecked17he8d21a9c99f974eaE', symObjAddr: 0x39AC, symBinAddr: 0x27C3C, symSize: 0x28C }
  - { offset: 0x7B108, size: 0x8, addend: 0x0, symName: '__ZN5alloc7raw_vec20RawVecInner$LT$A$GT$16with_capacity_in17hebe16d4706b8ec99E', symObjAddr: 0x3C38, symBinAddr: 0x27EC8, symSize: 0xF0 }
  - { offset: 0x7B28C, size: 0x8, addend: 0x0, symName: '__ZN5alloc7raw_vec20RawVecInner$LT$A$GT$6shrink17hb808334321f6c116E', symObjAddr: 0x3D28, symBinAddr: 0x27FB8, symSize: 0xB8 }
  - { offset: 0x7B549, size: 0x8, addend: 0x0, symName: '__ZN117_$LT$parking_lot_core..thread_parker..imp..ThreadParker$u20$as$u20$parking_lot_core..thread_parker..ThreadParkerT$GT$11unpark_lock17h8086528abf90f625E', symObjAddr: 0x0, symBinAddr: 0x28380, symSize: 0x8C }
  - { offset: 0x7B56D, size: 0x8, addend: 0x0, symName: __ZN16parking_lot_core11parking_lot11NUM_THREADS17h1d0c9beb4b56e079E, symObjAddr: 0x1B828, symBinAddr: 0x950E8, symSize: 0x0 }
  - { offset: 0x7B59B, size: 0x8, addend: 0x0, symName: '__ZN16parking_lot_core11parking_lot16with_thread_data11THREAD_DATA29_$u7b$$u7b$constant$u7d$$u7d$28_$u7b$$u7b$closure$u7d$$u7d$23__RUST_STD_INTERNAL_VAL17h92c8e052b01241a1E', symObjAddr: 0x4382, symBinAddr: 0x94E68, symSize: 0x0 }
  - { offset: 0x7B644, size: 0x8, addend: 0x0, symName: __ZN16parking_lot_core11parking_lot9HASHTABLE17h964cccbf329e6611E, symObjAddr: 0x1B980, symBinAddr: 0x95178, symSize: 0x0 }
  - { offset: 0x7B73B, size: 0x8, addend: 0x0, symName: __ZN16parking_lot_core11parking_lot13get_hashtable17h6229e4527935d9c8E, symObjAddr: 0x6CC, symBinAddr: 0x28A4C, symSize: 0xA0 }
  - { offset: 0x7B776, size: 0x8, addend: 0x0, symName: __ZN16parking_lot_core11parking_lot14grow_hashtable17h28a1e9a45dd414daE, symObjAddr: 0x76C, symBinAddr: 0x28AEC, symSize: 0x3D4 }
  - { offset: 0x7B927, size: 0x8, addend: 0x0, symName: __ZN16parking_lot_core11parking_lot16create_hashtable17hb7ba6e619a7eae42E, symObjAddr: 0xB40, symBinAddr: 0x5BA38, symSize: 0xF8 }
  - { offset: 0x7B98C, size: 0x8, addend: 0x0, symName: __ZN16parking_lot_core11parking_lot18rehash_bucket_into17h940910de5f7b3550E, symObjAddr: 0xC38, symBinAddr: 0x28EC0, symSize: 0x3E8 }
  - { offset: 0x7BA07, size: 0x8, addend: 0x0, symName: __ZN16parking_lot_core11parking_lot4hash17hc1e6f99080600687E, symObjAddr: 0x1020, symBinAddr: 0x292A8, symSize: 0x90 }
  - { offset: 0x7BA6F, size: 0x8, addend: 0x0, symName: '__ZN83_$LT$parking_lot_core..parking_lot..ThreadData$u20$as$u20$core..ops..drop..Drop$GT$4drop17hde0c40a8cc747c22E', symObjAddr: 0x2CDC, symBinAddr: 0x2AD00, symSize: 0x34 }
  - { offset: 0x7BAF2, size: 0x8, addend: 0x0, symName: '__ZN117_$LT$parking_lot_core..thread_parker..imp..ThreadParker$u20$as$u20$parking_lot_core..thread_parker..ThreadParkerT$GT$11unpark_lock17h8086528abf90f625E', symObjAddr: 0x0, symBinAddr: 0x28380, symSize: 0x8C }
  - { offset: 0x7BB84, size: 0x8, addend: 0x0, symName: '__ZN117_$LT$parking_lot_core..thread_parker..imp..ThreadParker$u20$as$u20$parking_lot_core..thread_parker..ThreadParkerT$GT$12prepare_park17hba1bf51b3ca2e77aE', symObjAddr: 0x8C, symBinAddr: 0x2840C, symSize: 0x64 }
  - { offset: 0x7BBAC, size: 0x8, addend: 0x0, symName: '__ZN117_$LT$parking_lot_core..thread_parker..imp..ThreadParker$u20$as$u20$parking_lot_core..thread_parker..ThreadParkerT$GT$3new17h196af6e5086dd2deE', symObjAddr: 0xF0, symBinAddr: 0x28470, symSize: 0xEC }
  - { offset: 0x7BC05, size: 0x8, addend: 0x0, symName: '__ZN117_$LT$parking_lot_core..thread_parker..imp..ThreadParker$u20$as$u20$parking_lot_core..thread_parker..ThreadParkerT$GT$4park17hd2a8be2e1c0ab4d2E', symObjAddr: 0x1DC, symBinAddr: 0x2855C, symSize: 0x170 }
  - { offset: 0x7BD37, size: 0x8, addend: 0x0, symName: '__ZN117_$LT$parking_lot_core..thread_parker..imp..UnparkHandle$u20$as$u20$parking_lot_core..thread_parker..UnparkHandleT$GT$6unpark17hfd4919f56dda6339E', symObjAddr: 0x34C, symBinAddr: 0x286CC, symSize: 0x1DC }
  - { offset: 0x7BE0C, size: 0x8, addend: 0x0, symName: __ZN16parking_lot_core13thread_parker3imp12thread_yield17he7af0e68ca72b5cfE, symObjAddr: 0x1468, symBinAddr: 0x296F0, symSize: 0x14 }
  - { offset: 0x7BE2A, size: 0x8, addend: 0x0, symName: '__ZN92_$LT$parking_lot_core..thread_parker..imp..ThreadParker$u20$as$u20$core..ops..drop..Drop$GT$4drop17hc261c75438bd22a2E', symObjAddr: 0x2EB8, symBinAddr: 0x2AEDC, symSize: 0xB4 }
  - { offset: 0x7BF50, size: 0x8, addend: 0x0, symName: __ZN16parking_lot_core8spinwait9cpu_relax17h72c0f96171a57cd7E, symObjAddr: 0x1580, symBinAddr: 0x29808, symSize: 0x54 }
  - { offset: 0x7BFEA, size: 0x8, addend: 0x0, symName: '__ZN79_$LT$parking_lot_core..spinwait..SpinWait$u20$as$u20$core..default..Default$GT$7default17h28da5e773eddf149E', symObjAddr: 0x2CA0, symBinAddr: 0x2ACC4, symSize: 0x8 }
  - { offset: 0x7C718, size: 0x8, addend: 0x0, symName: '__ZN4core3num23_$LT$impl$u20$usize$GT$13unchecked_add18precondition_check17h9e9cbc6a4f5c7c35E', symObjAddr: 0x1D84, symBinAddr: 0x29DF0, symSize: 0x64 }
  - { offset: 0x7C7C1, size: 0x8, addend: 0x0, symName: '__ZN4core3num23_$LT$impl$u20$usize$GT$13unchecked_mul18precondition_check17h4d7ffd240ccfe53eE', symObjAddr: 0x1DE8, symBinAddr: 0x29E54, symSize: 0x60 }
  - { offset: 0x7C877, size: 0x8, addend: 0x0, symName: '__ZN4core3num23_$LT$impl$u20$usize$GT$17next_power_of_two17had8c14512123edd7E', symObjAddr: 0x1E48, symBinAddr: 0x29EB4, symSize: 0x8C }
  - { offset: 0x7CA65, size: 0x8, addend: 0x0, symName: '__ZN4core3num21_$LT$impl$u20$u32$GT$13unchecked_add18precondition_check17h6f0ec6e34f5c70cbE', symObjAddr: 0x1D20, symBinAddr: 0x29D8C, symSize: 0x64 }
  - { offset: 0x7CDAA, size: 0x8, addend: 0x0, symName: __ZN4core3ptr9alignment9Alignment13new_unchecked18precondition_check17hb02d4edb8756075cE, symObjAddr: 0x23E8, symBinAddr: 0x2A40C, symSize: 0x70 }
  - { offset: 0x7CF13, size: 0x8, addend: 0x0, symName: '__ZN4core3ptr8non_null16NonNull$LT$T$GT$13new_unchecked18precondition_check17hcc4fba1c7c80e18cE', symObjAddr: 0x22F8, symBinAddr: 0x2A364, symSize: 0x58 }
  - { offset: 0x7D220, size: 0x8, addend: 0x0, symName: '__ZN4core3ptr7mut_ptr31_$LT$impl$u20$$BP$mut$u20$T$GT$7is_null17hb6a163b981117189E', symObjAddr: 0x2158, symBinAddr: 0x2A1C4, symSize: 0x18 }
  - { offset: 0x7D2E7, size: 0x8, addend: 0x0, symName: '__ZN4core3ptr101drop_in_place$LT$std..io..error..ErrorData$LT$alloc..boxed..Box$LT$std..io..error..Custom$GT$$GT$$GT$17h3084e5ad8d7e589eE', symObjAddr: 0x1F58, symBinAddr: 0x29FC4, symSize: 0x48 }
  - { offset: 0x7D316, size: 0x8, addend: 0x0, symName: '__ZN4core3ptr118drop_in_place$LT$alloc..boxed..Box$LT$dyn$u20$core..error..Error$u2b$core..marker..Sync$u2b$core..marker..Send$GT$$GT$17h625c85582108cd73E', symObjAddr: 0x1FA0, symBinAddr: 0x2A00C, symSize: 0x80 }
  - { offset: 0x7D345, size: 0x8, addend: 0x0, symName: '__ZN4core3ptr42drop_in_place$LT$std..io..error..Error$GT$17h2acff6d9e86be5dcE', symObjAddr: 0x2020, symBinAddr: 0x2A08C, symSize: 0x24 }
  - { offset: 0x7D374, size: 0x8, addend: 0x0, symName: '__ZN4core3ptr43drop_in_place$LT$std..io..error..Custom$GT$17h6fbdd1c9d12a834cE', symObjAddr: 0x2044, symBinAddr: 0x2A0B0, symSize: 0x24 }
  - { offset: 0x7D3A3, size: 0x8, addend: 0x0, symName: '__ZN4core3ptr57drop_in_place$LT$std..io..error..repr_bitpacked..Repr$GT$17h71ecb3e75e6c46deE', symObjAddr: 0x2068, symBinAddr: 0x2A0D4, symSize: 0x24 }
  - { offset: 0x7D3D2, size: 0x8, addend: 0x0, symName: '__ZN4core3ptr60drop_in_place$LT$parking_lot_core..word_lock..ThreadData$GT$17h1c1e229f402adec7E', symObjAddr: 0x208C, symBinAddr: 0x2A0F8, symSize: 0x24 }
  - { offset: 0x7D401, size: 0x8, addend: 0x0, symName: '__ZN4core3ptr61drop_in_place$LT$parking_lot_core..parking_lot..HashTable$GT$17h6709ef98b1bf1cefE', symObjAddr: 0x20B0, symBinAddr: 0x2A11C, symSize: 0x24 }
  - { offset: 0x7D430, size: 0x8, addend: 0x0, symName: '__ZN4core3ptr68drop_in_place$LT$alloc..boxed..Box$LT$std..io..error..Custom$GT$$GT$17h5e29d8f5b549c5ffE', symObjAddr: 0x20D4, symBinAddr: 0x2A140, symSize: 0x60 }
  - { offset: 0x7D45F, size: 0x8, addend: 0x0, symName: '__ZN4core3ptr71drop_in_place$LT$parking_lot_core..thread_parker..imp..ThreadParker$GT$17hb3ac6aa0bd0feaddE', symObjAddr: 0x2134, symBinAddr: 0x2A1A0, symSize: 0x24 }
  - { offset: 0x7D4DA, size: 0x8, addend: 0x0, symName: '__ZN4core3ptr9const_ptr33_$LT$impl$u20$$BP$const$u20$T$GT$7is_null17h7690879178cbf0c5E', symObjAddr: 0x2458, symBinAddr: 0x2A47C, symSize: 0x18 }
  - { offset: 0x7D570, size: 0x8, addend: 0x0, symName: '__ZN4core3ptr81drop_in_place$LT$alloc..vec..Vec$LT$parking_lot_core..parking_lot..Bucket$GT$$GT$17h4639779f9c942e33E', symObjAddr: 0x2170, symBinAddr: 0x2A1DC, symSize: 0x5C }
  - { offset: 0x7D59F, size: 0x8, addend: 0x0, symName: '__ZN4core3ptr81drop_in_place$LT$core..result..Result$LT$$LP$$RP$$C$std..io..error..Error$GT$$GT$17hae695d66be859331E', symObjAddr: 0x21CC, symBinAddr: 0x2A238, symSize: 0x44 }
  - { offset: 0x7D5CE, size: 0x8, addend: 0x0, symName: '__ZN4core3ptr82drop_in_place$LT$std..sys..thread_local..abort_on_dtor_unwind..DtorUnwindGuard$GT$17h067f51c225ad116dE', symObjAddr: 0x2210, symBinAddr: 0x2A27C, symSize: 0x24 }
  - { offset: 0x7D5FD, size: 0x8, addend: 0x0, symName: '__ZN4core3ptr86drop_in_place$LT$alloc..boxed..Box$LT$parking_lot_core..parking_lot..HashTable$GT$$GT$17h12c3e3edbe095d47E', symObjAddr: 0x2234, symBinAddr: 0x2A2A0, symSize: 0x60 }
  - { offset: 0x7D62C, size: 0x8, addend: 0x0, symName: '__ZN4core3ptr88drop_in_place$LT$alloc..raw_vec..RawVec$LT$parking_lot_core..parking_lot..Bucket$GT$$GT$17h1db80592a3989477E', symObjAddr: 0x2294, symBinAddr: 0x2A300, symSize: 0x24 }
  - { offset: 0x7D65B, size: 0x8, addend: 0x0, symName: '__ZN4core3ptr88drop_in_place$LT$core..option..Option$LT$parking_lot_core..word_lock..ThreadData$GT$$GT$17hd4ee4cf9f27f60ceE', symObjAddr: 0x22B8, symBinAddr: 0x2A324, symSize: 0x40 }
  - { offset: 0x7D68A, size: 0x8, addend: 0x0, symName: '__ZN4core3ptr93drop_in_place$LT$alloc..boxed..Box$LT$$u5b$parking_lot_core..parking_lot..Bucket$u5d$$GT$$GT$17hcdd37d7d44be260fE', symObjAddr: 0x2350, symBinAddr: 0x2A3BC, symSize: 0x2C }
  - { offset: 0x7D6B9, size: 0x8, addend: 0x0, symName: '__ZN4core3ptr93drop_in_place$LT$std..io..default_write_fmt..Adapter$LT$std..sys..stdio..unix..Stderr$GT$$GT$17h2d0976ac0a811f03E', symObjAddr: 0x23C4, symBinAddr: 0x2A3E8, symSize: 0x24 }
  - { offset: 0x7D987, size: 0x8, addend: 0x0, symName: '__ZN97_$LT$core..ops..range..RangeFull$u20$as$u20$core..slice..index..SliceIndex$LT$$u5b$T$u5d$$GT$$GT$5index17hcaec7578f031e826E', symObjAddr: 0x2F6C, symBinAddr: 0x2AF90, symSize: 0x18 }
  - { offset: 0x7DA05, size: 0x8, addend: 0x0, symName: __ZN4core5slice3raw14from_raw_parts18precondition_check17hd42241d267bf90a9E, symObjAddr: 0x2608, symBinAddr: 0x2A62C, symSize: 0x10C }
  - { offset: 0x7DB21, size: 0x8, addend: 0x0, symName: __ZN4core5slice3raw18from_raw_parts_mut18precondition_check17h296acbcd385c328eE, symObjAddr: 0x2714, symBinAddr: 0x2A738, symSize: 0x10C }
  - { offset: 0x7DC97, size: 0x8, addend: 0x0, symName: '__ZN4core5slice4iter87_$LT$impl$u20$core..iter..traits..collect..IntoIterator$u20$for$u20$$RF$$u5b$T$u5d$$GT$9into_iter17hb6b1b3b3d262d5abE', symObjAddr: 0x2820, symBinAddr: 0x2A844, symSize: 0x50 }
  - { offset: 0x7DDDA, size: 0x8, addend: 0x0, symName: '__ZN91_$LT$core..slice..iter..Iter$LT$T$GT$$u20$as$u20$core..iter..traits..iterator..Iterator$GT$4next17h281ac8df311028d0E', symObjAddr: 0x2E34, symBinAddr: 0x2AE58, symSize: 0x84 }
  - { offset: 0x7DF72, size: 0x8, addend: 0x0, symName: __ZN4core3ops8function6FnOnce9call_once17h09a4aa0df995c700E, symObjAddr: 0x1ED4, symBinAddr: 0x29F40, symSize: 0x4C }
  - { offset: 0x7DFB6, size: 0x8, addend: 0x0, symName: __ZN4core3ops8function6FnOnce9call_once17h87ec35a1788fd5d4E, symObjAddr: 0x1F20, symBinAddr: 0x29F8C, symSize: 0x1C }
  - { offset: 0x7DFFA, size: 0x8, addend: 0x0, symName: __ZN4core3ops8function6FnOnce9call_once17ha48bdd25729e7920E, symObjAddr: 0x1F3C, symBinAddr: 0x29FA8, symSize: 0x1C }
  - { offset: 0x7E0B7, size: 0x8, addend: 0x0, symName: __ZN4core4hint16assert_unchecked18precondition_check17h0cf9baf5393b0391E, symObjAddr: 0x2470, symBinAddr: 0x2A494, symSize: 0x58 }
  - { offset: 0x7E102, size: 0x8, addend: 0x0, symName: __ZN4core4hint21unreachable_unchecked18precondition_check17h011cfdcb84c25e41E, symObjAddr: 0x24C8, symBinAddr: 0x2A4EC, symSize: 0x3C }
  - { offset: 0x7E7BC, size: 0x8, addend: 0x0, symName: '__ZN4core4iter5range101_$LT$impl$u20$core..iter..traits..iterator..Iterator$u20$for$u20$core..ops..range..Range$LT$A$GT$$GT$4next17ha3eb9652d39bd670E', symObjAddr: 0x2504, symBinAddr: 0x2A528, symSize: 0x24 }
  - { offset: 0x7E7F3, size: 0x8, addend: 0x0, symName: '__ZN4core4iter5range101_$LT$impl$u20$core..iter..traits..iterator..Iterator$u20$for$u20$core..ops..range..Range$LT$A$GT$$GT$4next17hf529fcab5a4a3e58E', symObjAddr: 0x2528, symBinAddr: 0x2A54C, symSize: 0x24 }
  - { offset: 0x7E830, size: 0x8, addend: 0x0, symName: '__ZN89_$LT$core..ops..range..Range$LT$T$GT$$u20$as$u20$core..iter..range..RangeIteratorImpl$GT$9spec_next17h1cca3d32dfae971bE', symObjAddr: 0x2D10, symBinAddr: 0x2AD34, symSize: 0x94 }
  - { offset: 0x7E8AB, size: 0x8, addend: 0x0, symName: '__ZN89_$LT$core..ops..range..Range$LT$T$GT$$u20$as$u20$core..iter..range..RangeIteratorImpl$GT$9spec_next17hd07098866e80e6caE', symObjAddr: 0x2DA4, symBinAddr: 0x2ADC8, symSize: 0x90 }
  - { offset: 0x7E937, size: 0x8, addend: 0x0, symName: '__ZN63_$LT$I$u20$as$u20$core..iter..traits..collect..IntoIterator$GT$9into_iter17hd9b60cea1a13a1e5E', symObjAddr: 0x2998, symBinAddr: 0x2A9BC, symSize: 0x14 }
  - { offset: 0x7E96E, size: 0x8, addend: 0x0, symName: '__ZN63_$LT$I$u20$as$u20$core..iter..traits..collect..IntoIterator$GT$9into_iter17hee912c7b6ff0e0edE', symObjAddr: 0x29AC, symBinAddr: 0x2A9D0, symSize: 0x14 }
  - { offset: 0x7EAA4, size: 0x8, addend: 0x0, symName: __ZN4core5alloc6layout6Layout25from_size_align_unchecked18precondition_check17h43123d3510b74df6E, symObjAddr: 0x254C, symBinAddr: 0x2A570, symSize: 0xBC }
  - { offset: 0x7ED36, size: 0x8, addend: 0x0, symName: __ZN4core9ub_checks23maybe_is_nonoverlapping7runtime17h0c37642fb1347f2bE, symObjAddr: 0x2870, symBinAddr: 0x2A894, symSize: 0xD8 }
  - { offset: 0x7F0F0, size: 0x8, addend: 0x0, symName: __ZN3std3sys12thread_local6native4lazy7destroy17h3cdc05d943ed0697E, symObjAddr: 0x1B88, symBinAddr: 0x29BF4, symSize: 0x30 }
  - { offset: 0x7F126, size: 0x8, addend: 0x0, symName: '__ZN3std3sys12thread_local6native4lazy7destroy28_$u7b$$u7b$closure$u7d$$u7d$17hed892cc541a49fe9E', symObjAddr: 0x1BB8, symBinAddr: 0x29C24, symSize: 0x64 }
  - { offset: 0x7F1E1, size: 0x8, addend: 0x0, symName: '__ZN81_$LT$$LP$$RP$$u20$as$u20$std..sys..thread_local..native..lazy..DestroyedState$GT$13register_dtor17h4a1f96d2e3acce63E', symObjAddr: 0x2CA8, symBinAddr: 0x2ACCC, symSize: 0x34 }
  - { offset: 0x7F662, size: 0x8, addend: 0x0, symName: __ZN3std2io5Write9write_all17hb0ac2dcbabd69517E, symObjAddr: 0x15D4, symBinAddr: 0x2985C, symSize: 0x27C }
  - { offset: 0x7F852, size: 0x8, addend: 0x0, symName: __ZN3std2io5Write9write_fmt17ha9ce233d39663f13E, symObjAddr: 0x1850, symBinAddr: 0x29AD8, symSize: 0x8C }
  - { offset: 0x7FA2D, size: 0x8, addend: 0x0, symName: __ZN16parking_lot_core11parking_lot10ThreadData3new17h96bdfe80dd03ecf7E, symObjAddr: 0x528, symBinAddr: 0x288A8, symSize: 0x138 }
  - { offset: 0x7FA6A, size: 0x8, addend: 0x0, symName: __ZN16parking_lot_core11parking_lot11FairTimeout3new17h5bada9351e909a2bE, symObjAddr: 0x660, symBinAddr: 0x289E0, symSize: 0x24 }
  - { offset: 0x7FAA7, size: 0x8, addend: 0x0, symName: __ZN16parking_lot_core11parking_lot11FairTimeout7gen_u3217h7beb9635e98caf07E, symObjAddr: 0x684, symBinAddr: 0x28A04, symSize: 0x48 }
  - { offset: 0x7FB03, size: 0x8, addend: 0x0, symName: __ZN16parking_lot_core11parking_lot6Bucket3new17he97ecc7ff41960ffE, symObjAddr: 0x10B0, symBinAddr: 0x29338, symSize: 0xB8 }
  - { offset: 0x7FBCF, size: 0x8, addend: 0x0, symName: '__ZN5alloc5boxed12Box$LT$T$GT$8from_raw17h433cb7f29c51a5daE', symObjAddr: 0x2948, symBinAddr: 0x2A96C, symSize: 0x3C }
  - { offset: 0x7FC67, size: 0x8, addend: 0x0, symName: '__ZN5alloc5boxed12Box$LT$T$GT$8into_raw17h45caa7459a66dbc3E', symObjAddr: 0x2984, symBinAddr: 0x2A9A8, symSize: 0x14 }
  - { offset: 0x7FCA4, size: 0x8, addend: 0x0, symName: '__ZN72_$LT$alloc..boxed..Box$LT$T$C$A$GT$$u20$as$u20$core..ops..drop..Drop$GT$4drop17h2ee28b9de77a415bE', symObjAddr: 0x29C0, symBinAddr: 0x2A9E4, symSize: 0xC4 }
  - { offset: 0x7FDDD, size: 0x8, addend: 0x0, symName: '__ZN72_$LT$alloc..boxed..Box$LT$T$C$A$GT$$u20$as$u20$core..ops..drop..Drop$GT$4drop17h936e099dd03e9eceE', symObjAddr: 0x2A84, symBinAddr: 0x2AAA8, symSize: 0xB0 }
  - { offset: 0x7FF16, size: 0x8, addend: 0x0, symName: '__ZN72_$LT$alloc..boxed..Box$LT$T$C$A$GT$$u20$as$u20$core..ops..drop..Drop$GT$4drop17hba69cf4ed86dc8f3E', symObjAddr: 0x2B34, symBinAddr: 0x2AB58, symSize: 0xB0 }
  - { offset: 0x8004F, size: 0x8, addend: 0x0, symName: '__ZN72_$LT$alloc..boxed..Box$LT$T$C$A$GT$$u20$as$u20$core..ops..drop..Drop$GT$4drop17he5879406212ac9acE', symObjAddr: 0x2BE4, symBinAddr: 0x2AC08, symSize: 0xBC }
  - { offset: 0x8024E, size: 0x8, addend: 0x0, symName: __ZN16parking_lot_core11parking_lot9HashTable3new17hfb408f3a8a4f24f5E, symObjAddr: 0x1168, symBinAddr: 0x293F0, symSize: 0x2F0 }
  - { offset: 0x8036B, size: 0x8, addend: 0x0, symName: __ZN16parking_lot_core13thread_parker3imp12ThreadParker4init17h6f341475c007dc85E, symObjAddr: 0x1458, symBinAddr: 0x296E0, symSize: 0x10 }
  - { offset: 0x8038D, size: 0x8, addend: 0x0, symName: __ZN16parking_lot_core8spinwait8SpinWait3new17h58c125482624b87eE, symObjAddr: 0x147C, symBinAddr: 0x29704, symSize: 0x14 }
  - { offset: 0x803AD, size: 0x8, addend: 0x0, symName: __ZN16parking_lot_core8spinwait8SpinWait4spin17h91a950866049c127E, symObjAddr: 0x1490, symBinAddr: 0x29718, symSize: 0xD8 }
  - { offset: 0x803CF, size: 0x8, addend: 0x0, symName: __ZN16parking_lot_core8spinwait8SpinWait5reset17hc03b810fa0515cc2E, symObjAddr: 0x1568, symBinAddr: 0x297F0, symSize: 0x18 }
  - { offset: 0x80604, size: 0x8, addend: 0x0, symName: '__ZN3std3sys12thread_local6native4lazy20Storage$LT$T$C$D$GT$11get_or_init17h1e9ab694f7539a05E', symObjAddr: 0x18DC, symBinAddr: 0x29B64, symSize: 0x90 }
  - { offset: 0x80859, size: 0x8, addend: 0x0, symName: '__ZN3std3sys12thread_local6native4lazy20Storage$LT$T$C$D$GT$16get_or_init_slow17h61235b7eaad0c090E', symObjAddr: 0x196C, symBinAddr: 0x5BB30, symSize: 0x21C }
  - { offset: 0x80C7A, size: 0x8, addend: 0x0, symName: __ZN4core3fmt9Arguments23as_statically_known_str17h70cea71a997c7d8cE, symObjAddr: 0x1C1C, symBinAddr: 0x29C88, symSize: 0x104 }
  - { offset: 0x816FE, size: 0x8, addend: 0x0, symName: '__ZN4core3ptr9const_ptr33_$LT$impl$u20$$BP$const$u20$T$GT$13is_aligned_to17h0128c96cf9090ddbE', symObjAddr: 0x338, symBinAddr: 0x2B098, symSize: 0x88 }
  - { offset: 0x817B3, size: 0x8, addend: 0x0, symName: '__ZN64_$LT$core..alloc..layout..Layout$u20$as$u20$core..fmt..Debug$GT$3fmt17hf171c6dfd5c9e90aE', symObjAddr: 0x4CC, symBinAddr: 0x2B120, symSize: 0x88 }
  - { offset: 0x817FA, size: 0x8, addend: 0x0, symName: '__ZN42_$LT$$RF$T$u20$as$u20$core..fmt..Debug$GT$3fmt17h370bbb27a4adfde0E', symObjAddr: 0x10, symBinAddr: 0x2AFA8, symSize: 0x30 }
  - { offset: 0x81840, size: 0x8, addend: 0x0, symName: '__ZN42_$LT$$RF$T$u20$as$u20$core..fmt..Debug$GT$3fmt17h73cd75375530f97aE', symObjAddr: 0x40, symBinAddr: 0x2AFD8, symSize: 0x30 }
  - { offset: 0x819DA, size: 0x8, addend: 0x0, symName: '__ZN4core3fmt3num52_$LT$impl$u20$core..fmt..Debug$u20$for$u20$usize$GT$3fmt17hdab2ff40877c8ebfE', symObjAddr: 0xE4, symBinAddr: 0x2B008, symSize: 0x90 }
  - { offset: 0x81E5F, size: 0x8, addend: 0x0, symName: '__ZN4core3ptr9const_ptr33_$LT$impl$u20$$BP$const$u20$T$GT$13is_aligned_to17hedeed630389d2db2E', symObjAddr: 0x708, symBinAddr: 0x2B1A8, symSize: 0x88 }
  - { offset: 0x821BC, size: 0x8, addend: 0x0, symName: '__ZN65_$LT$alloc..vec..Vec$LT$T$C$A$GT$$u20$as$u20$core..fmt..Debug$GT$3fmt17he9953bc13f57e7deE', symObjAddr: 0x1EE4, symBinAddr: 0x2B68C, symSize: 0x3C }
  - { offset: 0x8282E, size: 0x8, addend: 0x0, symName: '__ZN4core3ptr9const_ptr33_$LT$impl$u20$$BP$const$u20$T$GT$13is_aligned_to17h894b1a9336af9891E', symObjAddr: 0xB88, symBinAddr: 0x2B458, symSize: 0x88 }
  - { offset: 0x82934, size: 0x8, addend: 0x0, symName: __ZN4core3ptr19copy_nonoverlapping18precondition_check17h12d64ab1bf83e136E, symObjAddr: 0x97C, symBinAddr: 0x2B270, symSize: 0x168 }
  - { offset: 0x82AE9, size: 0x8, addend: 0x0, symName: '__ZN4core3ptr46drop_in_place$LT$alloc..vec..Vec$LT$u8$GT$$GT$17h429d31e5ca0e2d18E', symObjAddr: 0xAE4, symBinAddr: 0x2B3D8, symSize: 0x5C }
  - { offset: 0x82B18, size: 0x8, addend: 0x0, symName: '__ZN4core3ptr53drop_in_place$LT$alloc..raw_vec..RawVec$LT$u8$GT$$GT$17h66e4c60fbbe36596E', symObjAddr: 0xB64, symBinAddr: 0x2B434, symSize: 0x24 }
  - { offset: 0x82D6F, size: 0x8, addend: 0x0, symName: '__ZN75_$LT$core..option..Option$LT$T$GT$$u20$as$u20$core..ops..try_trait..Try$GT$11from_output17haffe6ad4460a995eE', symObjAddr: 0x1FE8, symBinAddr: 0x2B760, symSize: 0x10 }
  - { offset: 0x82DA6, size: 0x8, addend: 0x0, symName: '__ZN75_$LT$core..option..Option$LT$T$GT$$u20$as$u20$core..ops..try_trait..Try$GT$6branch17h71ffde94500d7252E', symObjAddr: 0x1FF8, symBinAddr: 0x2B770, symSize: 0x40 }
  - { offset: 0x82E56, size: 0x8, addend: 0x0, symName: '__ZN145_$LT$core..option..Option$LT$T$GT$$u20$as$u20$core..ops..try_trait..FromResidual$LT$core..option..Option$LT$core..convert..Infallible$GT$$GT$$GT$13from_residual17hef5d1924544d4e23E', symObjAddr: 0x674, symBinAddr: 0x2B230, symSize: 0x10 }
  - { offset: 0x82F15, size: 0x8, addend: 0x0, symName: '__ZN66_$LT$core..option..Option$LT$T$GT$$u20$as$u20$core..fmt..Debug$GT$3fmt17h8fe4a2f3266e49d8E', symObjAddr: 0x1F20, symBinAddr: 0x2B6C8, symSize: 0x98 }
  - { offset: 0x83081, size: 0x8, addend: 0x0, symName: '__ZN42_$LT$$RF$T$u20$as$u20$core..fmt..Debug$GT$3fmt17hce5bf601a4c7727aE', symObjAddr: 0x6D0, symBinAddr: 0x2B240, symSize: 0x30 }
  - { offset: 0x8323F, size: 0x8, addend: 0x0, symName: __ZN4core9ub_checks23maybe_is_nonoverlapping7runtime17hedcbec394aec1b54E, symObjAddr: 0x1708, symBinAddr: 0x2B4E0, symSize: 0xD8 }
  - { offset: 0x836B1, size: 0x8, addend: 0x0, symName: '__ZN5alloc3vec16Vec$LT$T$C$A$GT$15append_elements17hfe19cb985fa6d944E', symObjAddr: 0x1848, symBinAddr: 0x2B5B8, symSize: 0xD4 }
  - { offset: 0x83962, size: 0x8, addend: 0x0, symName: __RNvCs5QKde7ScR4H_7___rustc10rust_panic, symObjAddr: 0x0, symBinAddr: 0x5BD4C, symSize: 0x48 }
  - { offset: 0x83979, size: 0x8, addend: 0x0, symName: __RNvCs5QKde7ScR4H_7___rustc10rust_panic, symObjAddr: 0x0, symBinAddr: 0x5BD4C, symSize: 0x48 }
  - { offset: 0x83993, size: 0x8, addend: 0x0, symName: __RNvCs5QKde7ScR4H_7___rustc17___rust_drop_panic, symObjAddr: 0x174, symBinAddr: 0x2B8D0, symSize: 0x118 }
  - { offset: 0x83D0C, size: 0x8, addend: 0x0, symName: __RNvCs5QKde7ScR4H_7___rustc17rust_begin_unwind, symObjAddr: 0x28C, symBinAddr: 0x2B9E8, symSize: 0x20 }
  - { offset: 0x83D3C, size: 0x8, addend: 0x0, symName: __RNvCs5QKde7ScR4H_7___rustc24___rust_foreign_exception, symObjAddr: 0x33C, symBinAddr: 0x2BA98, symSize: 0x118 }
  - { offset: 0x84121, size: 0x8, addend: 0x0, symName: __ZN3std9panicking11panic_count17is_zero_slow_path17hc53babc33550cbb1E, symObjAddr: 0x223C8, symBinAddr: 0x5C414, symSize: 0x2C }
  - { offset: 0x841CE, size: 0x8, addend: 0x0, symName: __ZN3std9panicking11panic_count8increase17hd191ffbd1b06e653E, symObjAddr: 0x22458, symBinAddr: 0x35538, symSize: 0x64 }
  - { offset: 0x841E5, size: 0x8, addend: 0x0, symName: __ZN3std9panicking11panic_count8increase17hd191ffbd1b06e653E, symObjAddr: 0x22458, symBinAddr: 0x35538, symSize: 0x64 }
  - { offset: 0x841FA, size: 0x8, addend: 0x0, symName: __ZN3std9panicking11panic_count8increase17hd191ffbd1b06e653E, symObjAddr: 0x22458, symBinAddr: 0x35538, symSize: 0x64 }
  - { offset: 0x84312, size: 0x8, addend: 0x0, symName: __ZN3std9panicking12catch_unwind7cleanup17h752c0163e5ec05a0E, symObjAddr: 0x224E0, symBinAddr: 0x5C440, symSize: 0x40 }
  - { offset: 0x84439, size: 0x8, addend: 0x0, symName: '__ZN3std9panicking12default_hook28_$u7b$$u7b$closure$u7d$$u7d$17h1af7615be47c43abE', symObjAddr: 0x2265C, symBinAddr: 0x356D8, symSize: 0x134 }
  - { offset: 0x84569, size: 0x8, addend: 0x0, symName: __ZN3std9panicking12default_hook17hdcc779fdbf67ae29E, symObjAddr: 0x22520, symBinAddr: 0x3559C, symSize: 0x13C }
  - { offset: 0x846F3, size: 0x8, addend: 0x0, symName: '__ZN3std9panicking13panic_handler28_$u7b$$u7b$closure$u7d$$u7d$17h2068a0d88ec25e56E', symObjAddr: 0x22790, symBinAddr: 0x3580C, symSize: 0x9C }
  - { offset: 0x8486B, size: 0x8, addend: 0x0, symName: '__ZN86_$LT$std..panicking..panic_handler..StaticStrPayload$u20$as$u20$core..fmt..Display$GT$3fmt17h29168cb33d563a1aE', symObjAddr: 0x4ABFC, symBinAddr: 0x48BD0, symSize: 0x10 }
  - { offset: 0x8488C, size: 0x8, addend: 0x0, symName: '__ZN89_$LT$std..panicking..panic_handler..FormatStringPayload$u20$as$u20$core..fmt..Display$GT$3fmt17h77f7538bf2d17d35E', symObjAddr: 0x4AF98, symBinAddr: 0x48C6C, symSize: 0x34 }
  - { offset: 0x84987, size: 0x8, addend: 0x0, symName: '__ZN93_$LT$std..panicking..panic_handler..StaticStrPayload$u20$as$u20$core..panic..PanicPayload$GT$3get17h568ef765b4ec1226E', symObjAddr: 0x4B5B4, symBinAddr: 0x48D08, symSize: 0xC }
  - { offset: 0x849A2, size: 0x8, addend: 0x0, symName: '__ZN93_$LT$std..panicking..panic_handler..StaticStrPayload$u20$as$u20$core..panic..PanicPayload$GT$6as_str17hf5728612964ce613E', symObjAddr: 0x4B5C0, symBinAddr: 0x48D14, symSize: 0xC }
  - { offset: 0x849BD, size: 0x8, addend: 0x0, symName: '__ZN93_$LT$std..panicking..panic_handler..StaticStrPayload$u20$as$u20$core..panic..PanicPayload$GT$8take_box17hbd5a9e5a88e9c9c2E', symObjAddr: 0x4B5CC, symBinAddr: 0x48D20, symSize: 0x48 }
  - { offset: 0x84A7D, size: 0x8, addend: 0x0, symName: '__ZN96_$LT$std..panicking..panic_handler..FormatStringPayload$u20$as$u20$core..panic..PanicPayload$GT$3get17h8800fd25a29ed037E', symObjAddr: 0x4BD08, symBinAddr: 0x49184, symSize: 0xA0 }
  - { offset: 0x84BD9, size: 0x8, addend: 0x0, symName: '__ZN96_$LT$std..panicking..panic_handler..FormatStringPayload$u20$as$u20$core..panic..PanicPayload$GT$8take_box17h8acddd4651f80559E', symObjAddr: 0x4BDA8, symBinAddr: 0x49224, symSize: 0x108 }
  - { offset: 0x84EC2, size: 0x8, addend: 0x0, symName: __ZN3std9panicking13resume_unwind17he56a77b38696f38cE, symObjAddr: 0x2282C, symBinAddr: 0x5C480, symSize: 0xB8 }
  - { offset: 0x85132, size: 0x8, addend: 0x0, symName: __ZN3std9panicking14payload_as_str17hb5a4fbc1324916adE, symObjAddr: 0x228E4, symBinAddr: 0x358A8, symSize: 0xC8 }
  - { offset: 0x85276, size: 0x8, addend: 0x0, symName: __ZN3std9panicking15panic_with_hook17h455d3ea9bab4bcbdE, symObjAddr: 0x229AC, symBinAddr: 0x35970, symSize: 0x388 }
  - { offset: 0x859B6, size: 0x8, addend: 0x0, symName: '__ZN79_$LT$std..panicking..resume_unwind..RewrapBox$u20$as$u20$core..fmt..Display$GT$3fmt17hfba99a384db1ee07E', symObjAddr: 0x49440, symBinAddr: 0x4849C, symSize: 0x14 }
  - { offset: 0x859D7, size: 0x8, addend: 0x0, symName: '__ZN86_$LT$std..panicking..resume_unwind..RewrapBox$u20$as$u20$core..panic..PanicPayload$GT$3get17h57f3cb7a44c6d899E', symObjAddr: 0x4AC0C, symBinAddr: 0x48BE0, symSize: 0xC }
  - { offset: 0x859F2, size: 0x8, addend: 0x0, symName: '__ZN86_$LT$std..panicking..resume_unwind..RewrapBox$u20$as$u20$core..panic..PanicPayload$GT$8take_box17h532bd54a1518e236E', symObjAddr: 0x4AC18, symBinAddr: 0x48BEC, symSize: 0x1C }
  - { offset: 0x85A10, size: 0x8, addend: 0x0, symName: '__ZN86_$LT$std..panicking..resume_unwind..RewrapBox$u20$as$u20$core..panic..PanicPayload$GT$8take_box17h532bd54a1518e236E', symObjAddr: 0x4AC18, symBinAddr: 0x48BEC, symSize: 0x1C }
  - { offset: 0x85AE8, size: 0x8, addend: 0x0, symName: __ZN3std3sys2io5error4unix17decode_error_kind17h1242adb8c229e6d2E, symObjAddr: 0x13FC0, symBinAddr: 0x337A8, symSize: 0x150 }
  - { offset: 0x85B8C, size: 0x8, addend: 0x0, symName: __ZN3std3sys3pal4unix4time8Timespec12sub_timespec17h810bb0af4d89a5daE, symObjAddr: 0x16F00, symBinAddr: 0x33DC0, symSize: 0xDC }
  - { offset: 0x85C7F, size: 0x8, addend: 0x0, symName: __ZN3std3sys3pal4unix4time8Timespec3now17h0f1f309d4c5fe2d8E, symObjAddr: 0x16FDC, symBinAddr: 0x33E9C, symSize: 0x114 }
  - { offset: 0x85DA2, size: 0x8, addend: 0x0, symName: __ZN3std3sys3pal4unix4sync5mutex5Mutex4init17h6076660a84b149e1E, symObjAddr: 0x16C88, symBinAddr: 0x33C58, symSize: 0x168 }
  - { offset: 0x85E73, size: 0x8, addend: 0x0, symName: __ZN3std3sys3pal4unix4sync5mutex5Mutex4lock4fail17h8e77330dbd0cf067E, symObjAddr: 0x16E0C, symBinAddr: 0x5BDB8, symSize: 0xD4 }
  - { offset: 0x86187, size: 0x8, addend: 0x0, symName: __ZN3std3sys3pal4unix14abort_internal17h7e526aa44f596455E, symObjAddr: 0x155F0, symBinAddr: 0x5BDAC, symSize: 0xC }
  - { offset: 0x86206, size: 0x8, addend: 0x0, symName: '__ZN64_$LT$std..sys..stdio..unix..Stderr$u20$as$u20$std..io..Write$GT$14write_vectored17heb48fdb29153c9f0E', symObjAddr: 0x450B4, symBinAddr: 0x47AD0, symSize: 0x54 }
  - { offset: 0x862DA, size: 0x8, addend: 0x0, symName: '__ZN64_$LT$std..sys..stdio..unix..Stderr$u20$as$u20$std..io..Write$GT$17is_write_vectored17ha30bdc86dcf4c460E', symObjAddr: 0x45108, symBinAddr: 0x47B24, symSize: 0x8 }
  - { offset: 0x862F4, size: 0x8, addend: 0x0, symName: '__ZN64_$LT$std..sys..stdio..unix..Stderr$u20$as$u20$std..io..Write$GT$5flush17hfa5e76720ade45a1E', symObjAddr: 0x45110, symBinAddr: 0x47B2C, symSize: 0x8 }
  - { offset: 0x8630E, size: 0x8, addend: 0x0, symName: '__ZN64_$LT$std..sys..stdio..unix..Stderr$u20$as$u20$std..io..Write$GT$5write17h6ebf1446bf9e1975E', symObjAddr: 0x45118, symBinAddr: 0x47B34, symSize: 0x54 }
  - { offset: 0x86427, size: 0x8, addend: 0x0, symName: __ZN3std3sys12thread_local6native5eager7destroy17h36c3752fe1f4e0b6E, symObjAddr: 0xF50C, symBinAddr: 0x33454, symSize: 0x2C }
  - { offset: 0x865BD, size: 0x8, addend: 0x0, symName: __ZN3std3sys12thread_local5guard5apple6enable9run_dtors17haca72ead1c130e17E, symObjAddr: 0xF41C, symBinAddr: 0x33364, symSize: 0xF0 }
  - { offset: 0x86A50, size: 0x8, addend: 0x0, symName: __ZN3std3sys12thread_local11destructors4list8register17hfa31c57150524692E, symObjAddr: 0xF320, symBinAddr: 0x33268, symSize: 0xFC }
  - { offset: 0x86D55, size: 0x8, addend: 0x0, symName: __ZN3std3sys3env4unix13env_read_lock17hd4ae47032b5c30f8E, symObjAddr: 0x14110, symBinAddr: 0x338F8, symSize: 0x230 }
  - { offset: 0x87422, size: 0x8, addend: 0x0, symName: '__ZN3std3sys3env4unix6getenv28_$u7b$$u7b$closure$u7d$$u7d$17hf1079b0eaf7c71beE', symObjAddr: 0x14340, symBinAddr: 0x33B28, symSize: 0x130 }
  - { offset: 0x8766C, size: 0x8, addend: 0x0, symName: __ZN3std3sys2fs4unix4File6open_c17h75f37d49044d3016E, symObjAddr: 0x12834, symBinAddr: 0x3348C, symSize: 0x1A0 }
  - { offset: 0x8775C, size: 0x8, addend: 0x0, symName: '__ZN3std3sys2fs4unix4File4open28_$u7b$$u7b$closure$u7d$$u7d$17hdcff4e2a34019a05E', symObjAddr: 0x127D4, symBinAddr: 0x33480, symSize: 0xC }
  - { offset: 0x877F7, size: 0x8, addend: 0x0, symName: '__ZN71_$LT$std..sys..fs..unix..DirStream$u20$as$u20$core..ops..drop..Drop$GT$4drop17h6a875ba702f2c730E', symObjAddr: 0x466F8, symBinAddr: 0x48158, symSize: 0xB4 }
  - { offset: 0x878BF, size: 0x8, addend: 0x0, symName: __ZN3std3sys2fs8read_dir17h43e51a1609ca9236E, symObjAddr: 0x13864, symBinAddr: 0x3362C, symSize: 0x17C }
  - { offset: 0x87BF3, size: 0x8, addend: 0x0, symName: __ZN3std3sys7helpers14small_c_string24run_with_cstr_allocating17h509c48cf23c25261E, symObjAddr: 0x18B54, symBinAddr: 0x5BFF0, symSize: 0xD0 }
  - { offset: 0x87E12, size: 0x8, addend: 0x0, symName: __ZN3std3sys7helpers14small_c_string24run_with_cstr_allocating17h8945d17fc8f7c02fE, symObjAddr: 0x18CE0, symBinAddr: 0x5C0C0, symSize: 0xB4 }
  - { offset: 0x88031, size: 0x8, addend: 0x0, symName: __ZN3std3sys7helpers14small_c_string24run_with_cstr_allocating17hac5bd5af9d4402a9E, symObjAddr: 0x18F0C, symBinAddr: 0x5C174, symSize: 0xA4 }
  - { offset: 0x882B6, size: 0x8, addend: 0x0, symName: '__ZN3std3sys4sync8once_box16OnceBox$LT$T$GT$10initialize17h9f3ca06c0415f9ffE', symObjAddr: 0x18194, symBinAddr: 0x5BF0C, symSize: 0xE4 }
  - { offset: 0x885BA, size: 0x8, addend: 0x0, symName: __ZN3std3sys4sync6rwlock5queue6RwLock12unlock_queue17hd1cbfe6db4460afaE, symObjAddr: 0x17B0C, symBinAddr: 0x33FB0, symSize: 0x1BC }
  - { offset: 0x88C18, size: 0x8, addend: 0x0, symName: __ZN3std3sys4sync6rwlock5queue6RwLock16unlock_contended17h7d2c7f9cf3e62932E, symObjAddr: 0x17FC4, symBinAddr: 0x5BE8C, symSize: 0x40 }
  - { offset: 0x88CDF, size: 0x8, addend: 0x0, symName: __ZN3std3sys4sync6rwlock5queue6RwLock21read_unlock_contended17h1131540f0bb5eecaE, symObjAddr: 0x18004, symBinAddr: 0x5BECC, symSize: 0x40 }
  - { offset: 0x88CFD, size: 0x8, addend: 0x0, symName: __ZN3std3sys4sync6rwlock5queue6RwLock21read_unlock_contended17h1131540f0bb5eecaE, symObjAddr: 0x18004, symBinAddr: 0x5BECC, symSize: 0x40 }
  - { offset: 0x88D12, size: 0x8, addend: 0x0, symName: __ZN3std3sys4sync6rwlock5queue6RwLock21read_unlock_contended17h1131540f0bb5eecaE, symObjAddr: 0x18004, symBinAddr: 0x5BECC, symSize: 0x40 }
  - { offset: 0x88F36, size: 0x8, addend: 0x0, symName: '__ZN83_$LT$std..sys..sync..rwlock..queue..PanicGuard$u20$as$u20$core..ops..drop..Drop$GT$4drop17h2509f8616019adb9E', symObjAddr: 0x4A7D0, symBinAddr: 0x5F87C, symSize: 0x30 }
  - { offset: 0x88FD6, size: 0x8, addend: 0x0, symName: '__ZN3std3sys11personality3gcc14find_eh_action28_$u7b$$u7b$closure$u7d$$u7d$17h26196c326510badeE', symObjAddr: 0xF1C0, symBinAddr: 0x33108, symSize: 0xC }
  - { offset: 0x88FEA, size: 0x8, addend: 0x0, symName: '__ZN3std3sys11personality3gcc14find_eh_action28_$u7b$$u7b$closure$u7d$$u7d$17h3beb1e892a771049E', symObjAddr: 0xF1CC, symBinAddr: 0x33114, symSize: 0xC }
  - { offset: 0x89033, size: 0x8, addend: 0x0, symName: _rust_eh_personality, symObjAddr: 0x4EA84, symBinAddr: 0x4BC28, symSize: 0x378 }
  - { offset: 0x89451, size: 0x8, addend: 0x0, symName: __ZN3std3sys11personality5dwarf2eh19read_encoded_offset17hb44de3678dfcb9deE, symObjAddr: 0xF1D8, symBinAddr: 0x33120, symSize: 0x148 }
  - { offset: 0x89653, size: 0x8, addend: 0x0, symName: '__ZN3std3sys9backtrace10_print_fmt28_$u7b$$u7b$closure$u7d$$u7d$17h1f0621b5a53d5f85E', symObjAddr: 0x1B9E8, symBinAddr: 0x3416C, symSize: 0x24 }
  - { offset: 0x8967C, size: 0x8, addend: 0x0, symName: '__ZN3std3sys9backtrace10_print_fmt28_$u7b$$u7b$closure$u7d$$u7d$17hc37f85308239e555E', symObjAddr: 0x1BA0C, symBinAddr: 0x34190, symSize: 0x134 }
  - { offset: 0x89768, size: 0x8, addend: 0x0, symName: '__ZN3std3sys9backtrace10_print_fmt28_$u7b$$u7b$closure$u7d$$u7d$28_$u7b$$u7b$closure$u7d$$u7d$17h67e6c19f21a372ceE', symObjAddr: 0x1BB40, symBinAddr: 0x342C4, symSize: 0x244 }
  - { offset: 0x8998F, size: 0x8, addend: 0x0, symName: __ZN3std3sys9backtrace15output_filename17h89ac4fad3e23b255E, symObjAddr: 0x1BD84, symBinAddr: 0x34508, symSize: 0xE0 }
  - { offset: 0x89AD0, size: 0x8, addend: 0x0, symName: __ZN3std3sys9backtrace26__rust_end_short_backtrace17h7bea34f9056001eeE, symObjAddr: 0x1BE70, symBinAddr: 0x345E8, symSize: 0xC }
  - { offset: 0x89AEA, size: 0x8, addend: 0x0, symName: __ZN3std3sys9backtrace26__rust_end_short_backtrace17h8a1ed24f129fbc3cE, symObjAddr: 0x1BE7C, symBinAddr: 0x5C218, symSize: 0xC }
  - { offset: 0x89B04, size: 0x8, addend: 0x0, symName: __ZN3std3sys9backtrace4lock17h03d74a540edc4f8fE, symObjAddr: 0x1BE88, symBinAddr: 0x345F4, symSize: 0x70 }
  - { offset: 0x89C83, size: 0x8, addend: 0x0, symName: '__ZN98_$LT$std..sys..backtrace..BacktraceLock..print..DisplayBacktrace$u20$as$u20$core..fmt..Display$GT$3fmt17hcde33371d8bba08bE', symObjAddr: 0x4C07C, symBinAddr: 0x4932C, symSize: 0x210 }
  - { offset: 0x8A278, size: 0x8, addend: 0x0, symName: __RNvCs5QKde7ScR4H_7___rustc11___rdl_alloc, symObjAddr: 0x48, symBinAddr: 0x2B7B0, symSize: 0x6C }
  - { offset: 0x8A2F6, size: 0x8, addend: 0x0, symName: __RNvCs5QKde7ScR4H_7___rustc13___rdl_dealloc, symObjAddr: 0xC0, symBinAddr: 0x2B81C, symSize: 0x4 }
  - { offset: 0x8A314, size: 0x8, addend: 0x0, symName: __RNvCs5QKde7ScR4H_7___rustc13___rdl_dealloc, symObjAddr: 0xC0, symBinAddr: 0x2B81C, symSize: 0x4 }
  - { offset: 0x8A327, size: 0x8, addend: 0x0, symName: __RNvCs5QKde7ScR4H_7___rustc13___rdl_realloc, symObjAddr: 0xC4, symBinAddr: 0x2B820, symSize: 0xB0 }
  - { offset: 0x8A3FB, size: 0x8, addend: 0x0, symName: __RNvCs5QKde7ScR4H_7___rustc18___rdl_alloc_zeroed, symObjAddr: 0x2AC, symBinAddr: 0x2BA08, symSize: 0x90 }
  - { offset: 0x8A49F, size: 0x8, addend: 0x0, symName: __RNvCs5QKde7ScR4H_7___rustc26___rust_alloc_error_handler, symObjAddr: 0x454, symBinAddr: 0x5BD94, symSize: 0x18 }
  - { offset: 0x8A4E8, size: 0x8, addend: 0x0, symName: __ZN3std5alloc24default_alloc_error_hook17h9a182e317a6d74b3E, symObjAddr: 0x1FAAC, symBinAddr: 0x34E1C, symSize: 0x108 }
  - { offset: 0x8A558, size: 0x8, addend: 0x0, symName: __ZN3std5alloc8rust_oom17h16d1fdb40ae7ee58E, symObjAddr: 0x1FBB4, symBinAddr: 0x5C224, symSize: 0x18 }
  - { offset: 0x8A578, size: 0x8, addend: 0x0, symName: '__ZN3std5alloc8rust_oom28_$u7b$$u7b$closure$u7d$$u7d$17h417972e13eb2d7fdE', symObjAddr: 0x1FBCC, symBinAddr: 0x5C23C, symSize: 0x34 }
  - { offset: 0x8A63D, size: 0x8, addend: 0x0, symName: __ZN3std2io5error5Error3new17h341eaf0fe1742dcbE, symObjAddr: 0x9AAC, symBinAddr: 0x321D0, symSize: 0x110 }
  - { offset: 0x8AAC6, size: 0x8, addend: 0x0, symName: '__ZN3std2io5error83_$LT$impl$u20$core..fmt..Debug$u20$for$u20$std..io..error..repr_bitpacked..Repr$GT$3fmt17h93747d36033c46a0E', symObjAddr: 0x9CB0, symBinAddr: 0x322E0, symSize: 0x280 }
  - { offset: 0x8AD60, size: 0x8, addend: 0x0, symName: '__ZN58_$LT$std..io..error..Error$u20$as$u20$core..fmt..Debug$GT$3fmt17h5fb65499dcf44dccE', symObjAddr: 0x33F60, symBinAddr: 0x3FD2C, symSize: 0x4 }
  - { offset: 0x8AD7A, size: 0x8, addend: 0x0, symName: '__ZN60_$LT$std..io..error..Error$u20$as$u20$core..fmt..Display$GT$3fmt17ha78d75a637bbf1cbE', symObjAddr: 0x411AC, symBinAddr: 0x473FC, symSize: 0x1A8 }
  - { offset: 0x8AFF1, size: 0x8, addend: 0x0, symName: '__ZN62_$LT$std..io..error..ErrorKind$u20$as$u20$core..fmt..Debug$GT$3fmt17h571dc9b8c1218ec7E', symObjAddr: 0x43C18, symBinAddr: 0x479B0, symSize: 0x28 }
  - { offset: 0x8B02C, size: 0x8, addend: 0x0, symName: __ZN3std2io5Write18write_all_vectored17h48a271e9304484ffE, symObjAddr: 0x94D4, symBinAddr: 0x31C58, symSize: 0x184 }
  - { offset: 0x8B232, size: 0x8, addend: 0x0, symName: __ZN3std2io5Write9write_all17hda6aef687a819ad9E, symObjAddr: 0x9658, symBinAddr: 0x31DDC, symSize: 0xAC }
  - { offset: 0x8B2F5, size: 0x8, addend: 0x0, symName: __ZN3std2io5Write9write_fmt17h2fd0abc6933d662dE, symObjAddr: 0x9704, symBinAddr: 0x31E88, symSize: 0x118 }
  - { offset: 0x8B5CF, size: 0x8, addend: 0x0, symName: __ZN3std2io5Write9write_fmt17h6cb699b8eb2cfe97E, symObjAddr: 0x981C, symBinAddr: 0x31FA0, symSize: 0x118 }
  - { offset: 0x8B8B0, size: 0x8, addend: 0x0, symName: __ZN3std2io5Write9write_fmt17hb9f59d39d99988fcE, symObjAddr: 0x9934, symBinAddr: 0x320B8, symSize: 0x118 }
  - { offset: 0x8BBDD, size: 0x8, addend: 0x0, symName: __ZN3std2io5stdio22try_set_output_capture17h5c607be6387df45bE, symObjAddr: 0xA440, symBinAddr: 0x3296C, symSize: 0xEC }
  - { offset: 0x8BE8F, size: 0x8, addend: 0x0, symName: __ZN3std2io5stdio31print_to_buffer_if_capture_used17h199ca6a30200a367E, symObjAddr: 0xA608, symBinAddr: 0x32A58, symSize: 0x214 }
  - { offset: 0x8C616, size: 0x8, addend: 0x0, symName: __ZN3std2io5stdio6Stderr4lock17h21051cfacb1429daE, symObjAddr: 0xAA80, symBinAddr: 0x32C6C, symSize: 0xE4 }
  - { offset: 0x8C8BF, size: 0x8, addend: 0x0, symName: __ZN3std2io5stdio7_eprint17he932b65433564ac5E, symObjAddr: 0xAC74, symBinAddr: 0x32D50, symSize: 0xC0 }
  - { offset: 0x8C903, size: 0x8, addend: 0x0, symName: '__ZN61_$LT$$RF$std..io..stdio..Stderr$u20$as$u20$std..io..Write$GT$9write_fmt17h9e4c828e3b68f8a3E', symObjAddr: 0x42254, symBinAddr: 0x475F4, symSize: 0x184 }
  - { offset: 0x8CD8E, size: 0x8, addend: 0x0, symName: '__ZN61_$LT$std..io..stdio..StderrLock$u20$as$u20$std..io..Write$GT$9write_all17h4a680c83359cc4daE', symObjAddr: 0x42B68, symBinAddr: 0x47778, symSize: 0x104 }
  - { offset: 0x8D046, size: 0x8, addend: 0x0, symName: '__ZN3std2io5impls74_$LT$impl$u20$std..io..Write$u20$for$u20$alloc..vec..Vec$LT$u8$C$A$GT$$GT$14write_vectored17hcf8e9deba73a3a65E', symObjAddr: 0x9F30, symBinAddr: 0x32560, symSize: 0x184 }
  - { offset: 0x8D295, size: 0x8, addend: 0x0, symName: '__ZN3std2io5impls74_$LT$impl$u20$std..io..Write$u20$for$u20$alloc..vec..Vec$LT$u8$C$A$GT$$GT$17is_write_vectored17hb3366cd68b776629E', symObjAddr: 0xA0B4, symBinAddr: 0x326E4, symSize: 0x8 }
  - { offset: 0x8D2BD, size: 0x8, addend: 0x0, symName: '__ZN3std2io5impls74_$LT$impl$u20$std..io..Write$u20$for$u20$alloc..vec..Vec$LT$u8$C$A$GT$$GT$18write_all_vectored17hab2a20d141de6caaE', symObjAddr: 0xA0BC, symBinAddr: 0x326EC, symSize: 0x174 }
  - { offset: 0x8D2DB, size: 0x8, addend: 0x0, symName: '__ZN3std2io5impls74_$LT$impl$u20$std..io..Write$u20$for$u20$alloc..vec..Vec$LT$u8$C$A$GT$$GT$18write_all_vectored17hab2a20d141de6caaE', symObjAddr: 0xA0BC, symBinAddr: 0x326EC, symSize: 0x174 }
  - { offset: 0x8D2F0, size: 0x8, addend: 0x0, symName: '__ZN3std2io5impls74_$LT$impl$u20$std..io..Write$u20$for$u20$alloc..vec..Vec$LT$u8$C$A$GT$$GT$18write_all_vectored17hab2a20d141de6caaE', symObjAddr: 0xA0BC, symBinAddr: 0x326EC, symSize: 0x174 }
  - { offset: 0x8D305, size: 0x8, addend: 0x0, symName: '__ZN3std2io5impls74_$LT$impl$u20$std..io..Write$u20$for$u20$alloc..vec..Vec$LT$u8$C$A$GT$$GT$18write_all_vectored17hab2a20d141de6caaE', symObjAddr: 0xA0BC, symBinAddr: 0x326EC, symSize: 0x174 }
  - { offset: 0x8D31A, size: 0x8, addend: 0x0, symName: '__ZN3std2io5impls74_$LT$impl$u20$std..io..Write$u20$for$u20$alloc..vec..Vec$LT$u8$C$A$GT$$GT$18write_all_vectored17hab2a20d141de6caaE', symObjAddr: 0xA0BC, symBinAddr: 0x326EC, symSize: 0x174 }
  - { offset: 0x8D32E, size: 0x8, addend: 0x0, symName: '__ZN3std2io5impls74_$LT$impl$u20$std..io..Write$u20$for$u20$alloc..vec..Vec$LT$u8$C$A$GT$$GT$18write_all_vectored17hab2a20d141de6caaE', symObjAddr: 0xA0BC, symBinAddr: 0x326EC, symSize: 0x174 }
  - { offset: 0x8D561, size: 0x8, addend: 0x0, symName: '__ZN3std2io5impls74_$LT$impl$u20$std..io..Write$u20$for$u20$alloc..vec..Vec$LT$u8$C$A$GT$$GT$5flush17h023578fd24d8e882E', symObjAddr: 0xA230, symBinAddr: 0x32860, symSize: 0x8 }
  - { offset: 0x8D57C, size: 0x8, addend: 0x0, symName: '__ZN3std2io5impls74_$LT$impl$u20$std..io..Write$u20$for$u20$alloc..vec..Vec$LT$u8$C$A$GT$$GT$5write17h4f2190924240fa52E', symObjAddr: 0xA238, symBinAddr: 0x32868, symSize: 0x84 }
  - { offset: 0x8D6C1, size: 0x8, addend: 0x0, symName: '__ZN3std2io5impls74_$LT$impl$u20$std..io..Write$u20$for$u20$alloc..vec..Vec$LT$u8$C$A$GT$$GT$9write_all17h1873854fb2fc9c7cE', symObjAddr: 0xA2BC, symBinAddr: 0x328EC, symSize: 0x80 }
  - { offset: 0x8D921, size: 0x8, addend: 0x0, symName: '__ZN81_$LT$std..io..default_write_fmt..Adapter$LT$T$GT$$u20$as$u20$core..fmt..Write$GT$9write_str17h3a963f31b03b2ffaE', symObjAddr: 0x49A6C, symBinAddr: 0x487B4, symSize: 0x80 }
  - { offset: 0x8DA6D, size: 0x8, addend: 0x0, symName: '__ZN81_$LT$std..io..default_write_fmt..Adapter$LT$T$GT$$u20$as$u20$core..fmt..Write$GT$9write_str17h49117fbce3cacf2cE', symObjAddr: 0x49AEC, symBinAddr: 0x48834, symSize: 0xD8 }
  - { offset: 0x8DB53, size: 0x8, addend: 0x0, symName: '__ZN81_$LT$std..io..default_write_fmt..Adapter$LT$T$GT$$u20$as$u20$core..fmt..Write$GT$9write_str17h6ca3bce49463d649E', symObjAddr: 0x49BC4, symBinAddr: 0x4890C, symSize: 0xA0 }
  - { offset: 0x8DC7F, size: 0x8, addend: 0x0, symName: '__ZN81_$LT$std..io..default_write_fmt..Adapter$LT$T$GT$$u20$as$u20$core..fmt..Write$GT$9write_str17hd69001acd09b0077E', symObjAddr: 0x49D8C, symBinAddr: 0x489AC, symSize: 0x50 }
  - { offset: 0x8DCE2, size: 0x8, addend: 0x0, symName: __ZN3std7process5abort17h356e677792aaa82eE, symObjAddr: 0x2161C, symBinAddr: 0x5C408, symSize: 0xC }
  - { offset: 0x8DDB1, size: 0x8, addend: 0x0, symName: __ZN3std4path4Path13_strip_prefix17he6c0dac5845936beE, symObjAddr: 0x1CCF4, symBinAddr: 0x349FC, symSize: 0x21C }
  - { offset: 0x8DEC1, size: 0x8, addend: 0x0, symName: __ZN3std4path4Path5_join17h44575178964eb91bE, symObjAddr: 0x1D5D4, symBinAddr: 0x34C18, symSize: 0x184 }
  - { offset: 0x8E427, size: 0x8, addend: 0x0, symName: __ZN3std4path10Components25parse_next_component_back17h820dd9f8984cdd82E, symObjAddr: 0x1BEF8, symBinAddr: 0x34664, symSize: 0x160 }
  - { offset: 0x8E57F, size: 0x8, addend: 0x0, symName: __ZN3std4path10Components7as_path17he74005186aef2d8fE, symObjAddr: 0x1C058, symBinAddr: 0x347C4, symSize: 0x238 }
  - { offset: 0x8E77A, size: 0x8, addend: 0x0, symName: '__ZN61_$LT$std..path..Component$u20$as$u20$core..cmp..PartialEq$GT$2eq17hf43800806b87a6dcE', symObjAddr: 0x43448, symBinAddr: 0x4787C, symSize: 0x134 }
  - { offset: 0x8E8D4, size: 0x8, addend: 0x0, symName: '__ZN80_$LT$std..path..Components$u20$as$u20$core..iter..traits..iterator..Iterator$GT$4next17hbcfca30053db8263E', symObjAddr: 0x49500, symBinAddr: 0x484B0, symSize: 0x304 }
  - { offset: 0x8E9D9, size: 0x8, addend: 0x0, symName: '__ZN95_$LT$std..path..Components$u20$as$u20$core..iter..traits..double_ended..DoubleEndedIterator$GT$9next_back17h6c3cc2590cbbcd71E', symObjAddr: 0x4B8B0, symBinAddr: 0x48D68, symSize: 0x41C }
  - { offset: 0x8EB3C, size: 0x8, addend: 0x0, symName: '__ZN126_$LT$std..thread..thread..thread_name_string..ThreadNameString$u20$as$u20$core..convert..From$LT$alloc..string..String$GT$$GT$4from17h5e636d9fac3a2e7cE', symObjAddr: 0xB28, symBinAddr: 0x2BBB0, symSize: 0x128 }
  - { offset: 0x8ED9E, size: 0x8, addend: 0x0, symName: __ZN3std6thread6thread6Thread3new17hcd84da917c050e20E, symObjAddr: 0x1FEE8, symBinAddr: 0x35040, symSize: 0x18C }
  - { offset: 0x8F19C, size: 0x8, addend: 0x0, symName: __ZN3std6thread5local18panic_access_error17ha141f03af8fa9523E, symObjAddr: 0x1FD9C, symBinAddr: 0x5C29C, symSize: 0x30 }
  - { offset: 0x8F1BC, size: 0x8, addend: 0x0, symName: '__ZN68_$LT$std..thread..local..AccessError$u20$as$u20$core..fmt..Debug$GT$3fmt17h6a4d57c12dd29b08E', symObjAddr: 0x45DE0, symBinAddr: 0x47B88, symSize: 0x38 }
  - { offset: 0x8F1F8, size: 0x8, addend: 0x0, symName: __ZN3std6thread9functions9yield_now17h96418648ba8aef6eE, symObjAddr: 0x20BFC, symBinAddr: 0x35534, symSize: 0x4 }
  - { offset: 0x8F215, size: 0x8, addend: 0x0, symName: __ZN3std6thread9functions9yield_now17h96418648ba8aef6eE, symObjAddr: 0x20BFC, symBinAddr: 0x35534, symSize: 0x4 }
  - { offset: 0x8F314, size: 0x8, addend: 0x0, symName: '__ZN3std6thread7current17with_current_name28_$u7b$$u7b$closure$u7d$$u7d$17h62776a1255d052e2E', symObjAddr: 0x202C4, symBinAddr: 0x351CC, symSize: 0x368 }
  - { offset: 0x8FB3F, size: 0x8, addend: 0x0, symName: __ZN3std6thread7current12init_current17ha92fdd47b5360b8bE, symObjAddr: 0x20188, symBinAddr: 0x5C2CC, symSize: 0x13C }
  - { offset: 0x8FE4E, size: 0x8, addend: 0x0, symName: __ZN3std6thread2id8ThreadId3new9exhausted17h5bd4e83d32c0c452E, symObjAddr: 0x1FD7C, symBinAddr: 0x5C27C, symSize: 0x20 }
  - { offset: 0x8FEA8, size: 0x8, addend: 0x0, symName: __ZN3std12backtrace_rs5print17BacktraceFrameFmt21print_raw_with_column17hbdaeb8e58ae70d92E, symObjAddr: 0xCD0, symBinAddr: 0x2BD14, symSize: 0x378 }
  - { offset: 0x9017C, size: 0x8, addend: 0x0, symName: __ZN3std12backtrace_rs9backtrace9libunwind5trace8trace_fn17hd3b93af9109e0040E, symObjAddr: 0x1048, symBinAddr: 0x2C08C, symSize: 0x48 }
  - { offset: 0x90237, size: 0x8, addend: 0x0, symName: __ZN3std12backtrace_rs9symbolize5gimli4mmap17h94ef6f388d4f1a02E, symObjAddr: 0x1090, symBinAddr: 0x2C0D4, symSize: 0x1FC }
  - { offset: 0x907F2, size: 0x8, addend: 0x0, symName: __ZN3std12backtrace_rs9symbolize5gimli5macho11find_header17h10129ed1adcf63dbE, symObjAddr: 0x128C, symBinAddr: 0x2C2D0, symSize: 0x1E4 }
  - { offset: 0x9080F, size: 0x8, addend: 0x0, symName: __ZN3std12backtrace_rs9symbolize5gimli5macho11find_header17h10129ed1adcf63dbE, symObjAddr: 0x128C, symBinAddr: 0x2C2D0, symSize: 0x1E4 }
  - { offset: 0x90823, size: 0x8, addend: 0x0, symName: __ZN3std12backtrace_rs9symbolize5gimli5macho11find_header17h10129ed1adcf63dbE, symObjAddr: 0x128C, symBinAddr: 0x2C2D0, symSize: 0x1E4 }
  - { offset: 0x90837, size: 0x8, addend: 0x0, symName: __ZN3std12backtrace_rs9symbolize5gimli5macho11find_header17h10129ed1adcf63dbE, symObjAddr: 0x128C, symBinAddr: 0x2C2D0, symSize: 0x1E4 }
  - { offset: 0x9084B, size: 0x8, addend: 0x0, symName: __ZN3std12backtrace_rs9symbolize5gimli5macho11find_header17h10129ed1adcf63dbE, symObjAddr: 0x128C, symBinAddr: 0x2C2D0, symSize: 0x1E4 }
  - { offset: 0x90860, size: 0x8, addend: 0x0, symName: __ZN3std12backtrace_rs9symbolize5gimli5macho11find_header17h10129ed1adcf63dbE, symObjAddr: 0x128C, symBinAddr: 0x2C2D0, symSize: 0x1E4 }
  - { offset: 0x90875, size: 0x8, addend: 0x0, symName: __ZN3std12backtrace_rs9symbolize5gimli5macho11find_header17h10129ed1adcf63dbE, symObjAddr: 0x128C, symBinAddr: 0x2C2D0, symSize: 0x1E4 }
  - { offset: 0x90F76, size: 0x8, addend: 0x0, symName: __ZN3std12backtrace_rs9symbolize5gimli5macho6Object5parse17he3bcf04599ad628dE, symObjAddr: 0x1470, symBinAddr: 0x2C4B4, symSize: 0xC9C }
  - { offset: 0x92E98, size: 0x8, addend: 0x0, symName: __ZN3std12backtrace_rs9symbolize5gimli5macho6Object7section17hf33b0ac23b7158f7E, symObjAddr: 0x210C, symBinAddr: 0x2D150, symSize: 0x154 }
  - { offset: 0x9327F, size: 0x8, addend: 0x0, symName: __ZN3std12backtrace_rs9symbolize5gimli7Context11find_frames17h771c3d5892c8a8edE, symObjAddr: 0x2260, symBinAddr: 0x2D2A4, symSize: 0x398 }
  - { offset: 0x936B3, size: 0x8, addend: 0x0, symName: __ZN3std12backtrace_rs9symbolize5gimli7Context3new17h622bc4cbf1e80765E, symObjAddr: 0x25F8, symBinAddr: 0x2D63C, symSize: 0x1EDC }
  - { offset: 0x97B9C, size: 0x8, addend: 0x0, symName: __ZN3std12backtrace_rs9symbolize5gimli7resolve17h7bad3477dbd5ab0eE, symObjAddr: 0x44D4, symBinAddr: 0x2F518, symSize: 0x266C }
  - { offset: 0x9DA16, size: 0x8, addend: 0x0, symName: __ZN3std12backtrace_rs9symbolize6Symbol4name17heb933bb5f95f7f9eE, symObjAddr: 0x6B78, symBinAddr: 0x31B84, symSize: 0xD4 }
  - { offset: 0x9DB83, size: 0x8, addend: 0x0, symName: '__ZN79_$LT$std..backtrace_rs..symbolize..SymbolName$u20$as$u20$core..fmt..Display$GT$3fmt17ha1cfd259ccd5081fE', symObjAddr: 0x48CF8, symBinAddr: 0x48398, symSize: 0x104 }
  - { offset: 0x9DCC3, size: 0x8, addend: 0x0, symName: '__ZN75_$LT$std..fs..ReadDir$u20$as$u20$core..iter..traits..iterator..Iterator$GT$4next17hc076ff689a5d953dE', symObjAddr: 0x476E4, symBinAddr: 0x4820C, symSize: 0x18C }
  - { offset: 0x9E0C0, size: 0x8, addend: 0x0, symName: '__ZN64_$LT$std..ffi..os_str..Display$u20$as$u20$core..fmt..Display$GT$3fmt17h51d66dc022a65b98E', symObjAddr: 0x44D9C, symBinAddr: 0x47A24, symSize: 0xAC }
  - { offset: 0x9E143, size: 0x8, addend: 0x0, symName: '__ZN3std4sync6poison5mutex14Mutex$LT$T$GT$4lock17h95b64927eb0c74cfE', symObjAddr: 0x1F060, symBinAddr: 0x34D9C, symSize: 0x78 }
  - { offset: 0x9E42E, size: 0x8, addend: 0x0, symName: __ZN3std5panic13resume_unwind17h1dc586ddfdb3e7f7E, symObjAddr: 0x1FC00, symBinAddr: 0x5C270, symSize: 0xC }
  - { offset: 0x9E45C, size: 0x8, addend: 0x0, symName: __ZN3std5panic19get_backtrace_style17h62b53c396a4f30bdE, symObjAddr: 0x1FC0C, symBinAddr: 0x34F24, symSize: 0x11C }
  - { offset: 0x9E47A, size: 0x8, addend: 0x0, symName: __ZN3std5panic19get_backtrace_style17h62b53c396a4f30bdE, symObjAddr: 0x1FC0C, symBinAddr: 0x34F24, symSize: 0x11C }
  - { offset: 0x9E48F, size: 0x8, addend: 0x0, symName: __ZN3std5panic19get_backtrace_style17h62b53c396a4f30bdE, symObjAddr: 0x1FC0C, symBinAddr: 0x34F24, symSize: 0x11C }
  - { offset: 0x9E9D5, size: 0x8, addend: 0x0, symName: __ZN3std3env11current_dir17ha7be4ecd1271f71fE, symObjAddr: 0xCA7C, symBinAddr: 0x32E10, symSize: 0x18C }
  - { offset: 0x9EE48, size: 0x8, addend: 0x0, symName: __ZN3std3env7_var_os17hb51c74bab3da1b8fE, symObjAddr: 0xCD74, symBinAddr: 0x32F9C, symSize: 0x16C }
  - { offset: 0x9F1B1, size: 0x8, addend: 0x0, symName: __ZN3std4time7Instant3now17h04611b0a02cb9d4fE, symObjAddr: 0x1FA28, symBinAddr: 0x34E14, symSize: 0x8 }
  - { offset: 0x9F1C8, size: 0x8, addend: 0x0, symName: __ZN3std4time7Instant3now17h04611b0a02cb9d4fE, symObjAddr: 0x1FA28, symBinAddr: 0x34E14, symSize: 0x8 }
  - { offset: 0x9F1FB, size: 0x8, addend: 0x0, symName: '__ZN60_$LT$std..time..Instant$u20$as$u20$core..ops..arith..Sub$GT$3sub17he3941c57ed30603fE', symObjAddr: 0x41BAC, symBinAddr: 0x475A4, symSize: 0x50 }
  - { offset: 0x9F282, size: 0x8, addend: 0x0, symName: '__ZN88_$LT$std..time..Instant$u20$as$u20$core..ops..arith..Add$LT$core..time..Duration$GT$$GT$3add17hbdb9563b403deccaE', symObjAddr: 0x4AECC, symBinAddr: 0x48C08, symSize: 0x64 }
  - { offset: 0x9F299, size: 0x8, addend: 0x0, symName: '__ZN88_$LT$std..time..Instant$u20$as$u20$core..ops..arith..Add$LT$core..time..Duration$GT$$GT$3add17hbdb9563b403deccaE', symObjAddr: 0x4AECC, symBinAddr: 0x48C08, symSize: 0x64 }
  - { offset: 0x9F2AE, size: 0x8, addend: 0x0, symName: '__ZN88_$LT$std..time..Instant$u20$as$u20$core..ops..arith..Add$LT$core..time..Duration$GT$$GT$3add17hbdb9563b403deccaE', symObjAddr: 0x4AECC, symBinAddr: 0x48C08, symSize: 0x64 }
  - { offset: 0x9F2C3, size: 0x8, addend: 0x0, symName: '__ZN88_$LT$std..time..Instant$u20$as$u20$core..ops..arith..Add$LT$core..time..Duration$GT$$GT$3add17hbdb9563b403deccaE', symObjAddr: 0x4AECC, symBinAddr: 0x48C08, symSize: 0x64 }
  - { offset: 0x9F2D8, size: 0x8, addend: 0x0, symName: '__ZN88_$LT$std..time..Instant$u20$as$u20$core..ops..arith..Add$LT$core..time..Duration$GT$$GT$3add17hbdb9563b403deccaE', symObjAddr: 0x4AECC, symBinAddr: 0x48C08, symSize: 0x64 }
  - { offset: 0x9F2EC, size: 0x8, addend: 0x0, symName: '__ZN88_$LT$std..time..Instant$u20$as$u20$core..ops..arith..Add$LT$core..time..Duration$GT$$GT$3add17hbdb9563b403deccaE', symObjAddr: 0x4AECC, symBinAddr: 0x48C08, symSize: 0x64 }
  - { offset: 0x9F301, size: 0x8, addend: 0x0, symName: '__ZN88_$LT$std..time..Instant$u20$as$u20$core..ops..arith..Add$LT$core..time..Duration$GT$$GT$3add17hbdb9563b403deccaE', symObjAddr: 0x4AECC, symBinAddr: 0x48C08, symSize: 0x64 }
  - { offset: 0xA0D8B, size: 0x8, addend: 0x0, symName: '__ZN4core3ptr107drop_in_place$LT$core..pin..Pin$LT$alloc..boxed..Box$LT$std..sys..pal..unix..sync..mutex..Mutex$GT$$GT$$GT$17h2df49b87d3e08e82E', symObjAddr: 0x24C8C, symBinAddr: 0x36458, symSize: 0x2C }
  - { offset: 0xA0E4D, size: 0x8, addend: 0x0, symName: '__ZN4core3ptr109drop_in_place$LT$alloc..sync..Arc$LT$std..sync..poison..mutex..Mutex$LT$alloc..vec..Vec$LT$u8$GT$$GT$$GT$$GT$17h1a27d77d497c2e4cE', symObjAddr: 0x24CB8, symBinAddr: 0x36484, symSize: 0x20 }
  - { offset: 0xA0E64, size: 0x8, addend: 0x0, symName: '__ZN4core3ptr109drop_in_place$LT$alloc..sync..Arc$LT$std..sync..poison..mutex..Mutex$LT$alloc..vec..Vec$LT$u8$GT$$GT$$GT$$GT$17h1a27d77d497c2e4cE', symObjAddr: 0x24CB8, symBinAddr: 0x36484, symSize: 0x20 }
  - { offset: 0xA0E79, size: 0x8, addend: 0x0, symName: '__ZN4core3ptr109drop_in_place$LT$alloc..sync..Arc$LT$std..sync..poison..mutex..Mutex$LT$alloc..vec..Vec$LT$u8$GT$$GT$$GT$$GT$17h1a27d77d497c2e4cE', symObjAddr: 0x24CB8, symBinAddr: 0x36484, symSize: 0x20 }
  - { offset: 0xA0E8E, size: 0x8, addend: 0x0, symName: '__ZN4core3ptr109drop_in_place$LT$alloc..sync..Arc$LT$std..sync..poison..mutex..Mutex$LT$alloc..vec..Vec$LT$u8$GT$$GT$$GT$$GT$17h1a27d77d497c2e4cE', symObjAddr: 0x24CB8, symBinAddr: 0x36484, symSize: 0x20 }
  - { offset: 0xA0EE2, size: 0x8, addend: 0x0, symName: '__ZN4core3ptr119drop_in_place$LT$std..io..default_write_fmt..Adapter$LT$std..io..cursor..Cursor$LT$$RF$mut$u20$$u5b$u8$u5d$$GT$$GT$$GT$17h5d84935f2dab4fa4E', symObjAddr: 0x24D54, symBinAddr: 0x364A4, symSize: 0x10 }
  - { offset: 0xA0EF9, size: 0x8, addend: 0x0, symName: '__ZN4core3ptr119drop_in_place$LT$std..io..default_write_fmt..Adapter$LT$std..io..cursor..Cursor$LT$$RF$mut$u20$$u5b$u8$u5d$$GT$$GT$$GT$17h5d84935f2dab4fa4E', symObjAddr: 0x24D54, symBinAddr: 0x364A4, symSize: 0x10 }
  - { offset: 0xA0F0C, size: 0x8, addend: 0x0, symName: '__ZN4core3ptr123drop_in_place$LT$addr2line..Context$LT$gimli..read..endian_slice..EndianSlice$LT$gimli..endianity..LittleEndian$GT$$GT$$GT$17hf39a22d4deac0acfE', symObjAddr: 0x24D64, symBinAddr: 0x364B4, symSize: 0x70 }
  - { offset: 0xA1012, size: 0x8, addend: 0x0, symName: '__ZN4core3ptr129drop_in_place$LT$addr2line..unit..ResUnit$LT$gimli..read..endian_slice..EndianSlice$LT$gimli..endianity..LittleEndian$GT$$GT$$GT$17h8f5e828f1982fd36E', symObjAddr: 0x24F1C, symBinAddr: 0x36524, symSize: 0xE4 }
  - { offset: 0xA1234, size: 0x8, addend: 0x0, symName: '__ZN4core3ptr129drop_in_place$LT$addr2line..unit..SupUnit$LT$gimli..read..endian_slice..EndianSlice$LT$gimli..endianity..LittleEndian$GT$$GT$$GT$17h500d1bfb3690b988E', symObjAddr: 0x25000, symBinAddr: 0x36608, symSize: 0x54 }
  - { offset: 0xA12F2, size: 0x8, addend: 0x0, symName: '__ZN4core3ptr130drop_in_place$LT$addr2line..unit..ResUnits$LT$gimli..read..endian_slice..EndianSlice$LT$gimli..endianity..LittleEndian$GT$$GT$$GT$17h8a1c47b37cff57e6E', symObjAddr: 0x25054, symBinAddr: 0x3665C, symSize: 0xD0 }
  - { offset: 0xA1519, size: 0x8, addend: 0x0, symName: '__ZN4core3ptr130drop_in_place$LT$addr2line..unit..SupUnits$LT$gimli..read..endian_slice..EndianSlice$LT$gimli..endianity..LittleEndian$GT$$GT$$GT$17hfeb69d9bfa4a9266E', symObjAddr: 0x25124, symBinAddr: 0x3672C, symSize: 0xE4 }
  - { offset: 0xA171F, size: 0x8, addend: 0x0, symName: '__ZN4core3ptr130drop_in_place$LT$gimli..read..dwarf..Dwarf$LT$gimli..read..endian_slice..EndianSlice$LT$gimli..endianity..LittleEndian$GT$$GT$$GT$17h7c37341b5293d04eE', symObjAddr: 0x25208, symBinAddr: 0x36810, symSize: 0x58 }
  - { offset: 0xA17B5, size: 0x8, addend: 0x0, symName: '__ZN4core3ptr131drop_in_place$LT$$u5b$core..option..Option$LT$core..option..Option$LT$std..backtrace_rs..symbolize..gimli..Mapping$GT$$GT$$u5d$$GT$17hd87b4441aab0cc00E', symObjAddr: 0x25260, symBinAddr: 0x36868, symSize: 0xCC }
  - { offset: 0xA185F, size: 0x8, addend: 0x0, symName: '__ZN4core3ptr137drop_in_place$LT$gimli..read..dwarf..Unit$LT$gimli..read..endian_slice..EndianSlice$LT$gimli..endianity..LittleEndian$GT$$C$usize$GT$$GT$17hf44d2a6966a873f6E', symObjAddr: 0x2532C, symBinAddr: 0x36934, symSize: 0x54 }
  - { offset: 0xA1955, size: 0x8, addend: 0x0, symName: '__ZN4core3ptr138drop_in_place$LT$addr2line..function..LazyFunction$LT$gimli..read..endian_slice..EndianSlice$LT$gimli..endianity..LittleEndian$GT$$GT$$GT$17ha4d59f5b4eba1420E', symObjAddr: 0x25380, symBinAddr: 0x36988, symSize: 0x64 }
  - { offset: 0xA196C, size: 0x8, addend: 0x0, symName: '__ZN4core3ptr138drop_in_place$LT$addr2line..function..LazyFunction$LT$gimli..read..endian_slice..EndianSlice$LT$gimli..endianity..LittleEndian$GT$$GT$$GT$17ha4d59f5b4eba1420E', symObjAddr: 0x25380, symBinAddr: 0x36988, symSize: 0x64 }
  - { offset: 0xA1981, size: 0x8, addend: 0x0, symName: '__ZN4core3ptr138drop_in_place$LT$addr2line..function..LazyFunction$LT$gimli..read..endian_slice..EndianSlice$LT$gimli..endianity..LittleEndian$GT$$GT$$GT$17ha4d59f5b4eba1420E', symObjAddr: 0x25380, symBinAddr: 0x36988, symSize: 0x64 }
  - { offset: 0xA1996, size: 0x8, addend: 0x0, symName: '__ZN4core3ptr138drop_in_place$LT$addr2line..function..LazyFunction$LT$gimli..read..endian_slice..EndianSlice$LT$gimli..endianity..LittleEndian$GT$$GT$$GT$17ha4d59f5b4eba1420E', symObjAddr: 0x25380, symBinAddr: 0x36988, symSize: 0x64 }
  - { offset: 0xA1B20, size: 0x8, addend: 0x0, symName: '__ZN4core3ptr144drop_in_place$LT$alloc..vec..Vec$LT$core..option..Option$LT$core..option..Option$LT$std..backtrace_rs..symbolize..gimli..Mapping$GT$$GT$$GT$$GT$17he4b9c6024a582bf2E', symObjAddr: 0x253E4, symBinAddr: 0x369EC, symSize: 0x78 }
  - { offset: 0xA1CD0, size: 0x8, addend: 0x0, symName: '__ZN4core3ptr152drop_in_place$LT$alloc..vec..Vec$LT$addr2line..unit..ResUnit$LT$gimli..read..endian_slice..EndianSlice$LT$gimli..endianity..LittleEndian$GT$$GT$$GT$$GT$17h18a8b266d2222173E', symObjAddr: 0x25518, symBinAddr: 0x36A64, symSize: 0xC4 }
  - { offset: 0xA1E94, size: 0x8, addend: 0x0, symName: '__ZN4core3ptr152drop_in_place$LT$alloc..vec..Vec$LT$addr2line..unit..SupUnit$LT$gimli..read..endian_slice..EndianSlice$LT$gimli..endianity..LittleEndian$GT$$GT$$GT$$GT$17haa029dd48deb3ebaE', symObjAddr: 0x255DC, symBinAddr: 0x36B28, symSize: 0xF4 }
  - { offset: 0xA2101, size: 0x8, addend: 0x0, symName: '__ZN4core3ptr152drop_in_place$LT$core..result..Result$LT$$RF$std..thread..thread..Thread$C$$LP$$RF$std..thread..thread..Thread$C$std..thread..thread..Thread$RP$$GT$$GT$17h18759a1374e55b00E', symObjAddr: 0x256D0, symBinAddr: 0x36C1C, symSize: 0x28 }
  - { offset: 0xA21F5, size: 0x8, addend: 0x0, symName: '__ZN4core3ptr154drop_in_place$LT$alloc..boxed..Box$LT$dyn$u20$core..ops..function..FnOnce$LT$$LP$$RP$$GT$$u2b$Output$u20$$u3d$$u20$$LP$$RP$$u2b$core..marker..Send$GT$$GT$17hdc8c3818156ac0e9E', symObjAddr: 0x256F8, symBinAddr: 0x36C44, symSize: 0x78 }
  - { offset: 0xA2343, size: 0x8, addend: 0x0, symName: '__ZN4core3ptr156drop_in_place$LT$alloc..boxed..Box$LT$$u5b$core..option..Option$LT$core..option..Option$LT$std..backtrace_rs..symbolize..gimli..Mapping$GT$$GT$$u5d$$GT$$GT$17hb6c3b22c784a7231E', symObjAddr: 0x25770, symBinAddr: 0x36CBC, symSize: 0xF8 }
  - { offset: 0xA24C2, size: 0x8, addend: 0x0, symName: '__ZN4core3ptr159drop_in_place$LT$alloc..sync..ArcInner$LT$gimli..read..dwarf..Dwarf$LT$gimli..read..endian_slice..EndianSlice$LT$gimli..endianity..LittleEndian$GT$$GT$$GT$$GT$17hc766f40eab1f7b4fE', symObjAddr: 0x258E4, symBinAddr: 0x36DB4, symSize: 0x5C }
  - { offset: 0xA2584, size: 0x8, addend: 0x0, symName: '__ZN4core3ptr161drop_in_place$LT$alloc..vec..Vec$LT$addr2line..function..LazyFunction$LT$gimli..read..endian_slice..EndianSlice$LT$gimli..endianity..LittleEndian$GT$$GT$$GT$$GT$17h505e9c807ceae37bE', symObjAddr: 0x25940, symBinAddr: 0x36E10, symSize: 0xAC }
  - { offset: 0xA2841, size: 0x8, addend: 0x0, symName: '__ZN4core3ptr173drop_in_place$LT$alloc..boxed..Box$LT$$u5b$addr2line..function..LazyFunction$LT$gimli..read..endian_slice..EndianSlice$LT$gimli..endianity..LittleEndian$GT$$GT$$u5d$$GT$$GT$17h29a7edcd8288108bE', symObjAddr: 0x25A98, symBinAddr: 0x36EBC, symSize: 0x9C }
  - { offset: 0xA2858, size: 0x8, addend: 0x0, symName: '__ZN4core3ptr173drop_in_place$LT$alloc..boxed..Box$LT$$u5b$addr2line..function..LazyFunction$LT$gimli..read..endian_slice..EndianSlice$LT$gimli..endianity..LittleEndian$GT$$GT$$u5d$$GT$$GT$17h29a7edcd8288108bE', symObjAddr: 0x25A98, symBinAddr: 0x36EBC, symSize: 0x9C }
  - { offset: 0xA2AAE, size: 0x8, addend: 0x0, symName: '__ZN4core3ptr181drop_in_place$LT$core..option..Option$LT$gimli..read..line..IncompleteLineProgram$LT$gimli..read..endian_slice..EndianSlice$LT$gimli..endianity..LittleEndian$GT$$C$usize$GT$$GT$$GT$17h3df05a09ff9eb616E', symObjAddr: 0x25BA4, symBinAddr: 0x36F58, symSize: 0x98 }
  - { offset: 0xA2DB3, size: 0x8, addend: 0x0, symName: '__ZN4core3ptr181drop_in_place$LT$core..result..Result$LT$addr2line..frame..FrameIter$LT$gimli..read..endian_slice..EndianSlice$LT$gimli..endianity..LittleEndian$GT$$GT$$C$gimli..read..Error$GT$$GT$17h0baa502b63bc3f2fE', symObjAddr: 0x25C3C, symBinAddr: 0x36FF0, symSize: 0x34 }
  - { offset: 0xA2F19, size: 0x8, addend: 0x0, symName: '__ZN4core3ptr184drop_in_place$LT$core..result..Result$LT$addr2line..function..Functions$LT$gimli..read..endian_slice..EndianSlice$LT$gimli..endianity..LittleEndian$GT$$GT$$C$gimli..read..Error$GT$$GT$17h233998975e718504E', symObjAddr: 0x25C70, symBinAddr: 0x37024, symSize: 0xD8 }
  - { offset: 0xA327C, size: 0x8, addend: 0x0, symName: '__ZN4core3ptr231drop_in_place$LT$core..result..Result$LT$core..option..Option$LT$alloc..boxed..Box$LT$addr2line..unit..DwoUnit$LT$gimli..read..endian_slice..EndianSlice$LT$gimli..endianity..LittleEndian$GT$$GT$$GT$$GT$$C$gimli..read..Error$GT$$GT$17h488d06a2dc977f62E', symObjAddr: 0x25E08, symBinAddr: 0x370FC, symSize: 0xD4 }
  - { offset: 0xA349D, size: 0x8, addend: 0x0, symName: '__ZN4core3ptr238drop_in_place$LT$alloc..boxed..convert..$LT$impl$u20$core..convert..From$LT$alloc..string..String$GT$$u20$for$u20$alloc..boxed..Box$LT$dyn$u20$core..error..Error$u2b$core..marker..Sync$u2b$core..marker..Send$GT$$GT$..from..StringError$GT$17hab70380e782b1eceE', symObjAddr: 0x25EDC, symBinAddr: 0x371D0, symSize: 0x18 }
  - { offset: 0xA34B4, size: 0x8, addend: 0x0, symName: '__ZN4core3ptr238drop_in_place$LT$alloc..boxed..convert..$LT$impl$u20$core..convert..From$LT$alloc..string..String$GT$$u20$for$u20$alloc..boxed..Box$LT$dyn$u20$core..error..Error$u2b$core..marker..Sync$u2b$core..marker..Send$GT$$GT$..from..StringError$GT$17hab70380e782b1eceE', symObjAddr: 0x25EDC, symBinAddr: 0x371D0, symSize: 0x18 }
  - { offset: 0xA34C9, size: 0x8, addend: 0x0, symName: '__ZN4core3ptr238drop_in_place$LT$alloc..boxed..convert..$LT$impl$u20$core..convert..From$LT$alloc..string..String$GT$$u20$for$u20$alloc..boxed..Box$LT$dyn$u20$core..error..Error$u2b$core..marker..Sync$u2b$core..marker..Send$GT$$GT$..from..StringError$GT$17hab70380e782b1eceE', symObjAddr: 0x25EDC, symBinAddr: 0x371D0, symSize: 0x18 }
  - { offset: 0xA3573, size: 0x8, addend: 0x0, symName: '__ZN4core3ptr275drop_in_place$LT$gimli..read..line..LineRows$LT$gimli..read..endian_slice..EndianSlice$LT$gimli..endianity..LittleEndian$GT$$C$gimli..read..line..IncompleteLineProgram$LT$gimli..read..endian_slice..EndianSlice$LT$gimli..endianity..LittleEndian$GT$$C$usize$GT$$C$usize$GT$$GT$17h0131afaeb5f79ec2E', symObjAddr: 0x25F38, symBinAddr: 0x371E8, symSize: 0x8C }
  - { offset: 0xA3892, size: 0x8, addend: 0x0, symName: '__ZN4core3ptr280drop_in_place$LT$$LT$alloc..collections..btree..map..IntoIter$LT$K$C$V$C$A$GT$$u20$as$u20$core..ops..drop..Drop$GT$..drop..DropGuard$LT$u64$C$core..result..Result$LT$alloc..sync..Arc$LT$gimli..read..abbrev..Abbreviations$GT$$C$gimli..read..Error$GT$$C$alloc..alloc..Global$GT$$GT$17h886aec1819de5f5cE', symObjAddr: 0x25FC4, symBinAddr: 0x37274, symSize: 0x84 }
  - { offset: 0xA3A01, size: 0x8, addend: 0x0, symName: '__ZN4core3ptr284drop_in_place$LT$core..result..Result$LT$$RF$core..result..Result$LT$addr2line..line..Lines$C$gimli..read..Error$GT$$C$$LP$$RF$core..result..Result$LT$addr2line..line..Lines$C$gimli..read..Error$GT$$C$core..result..Result$LT$addr2line..line..Lines$C$gimli..read..Error$GT$$RP$$GT$$GT$17he331a935851f963bE', symObjAddr: 0x26048, symBinAddr: 0x372F8, symSize: 0x10 }
  - { offset: 0xA3A32, size: 0x8, addend: 0x0, symName: '__ZN4core3ptr42drop_in_place$LT$alloc..string..String$GT$17h38ea6ff68a2f6dd3E', symObjAddr: 0x261EC, symBinAddr: 0x37308, symSize: 0x18 }
  - { offset: 0xA3A49, size: 0x8, addend: 0x0, symName: '__ZN4core3ptr42drop_in_place$LT$alloc..string..String$GT$17h38ea6ff68a2f6dd3E', symObjAddr: 0x261EC, symBinAddr: 0x37308, symSize: 0x18 }
  - { offset: 0xA3AF2, size: 0x8, addend: 0x0, symName: '__ZN4core3ptr42drop_in_place$LT$std..io..error..Error$GT$17hb47a842e9535d8eaE', symObjAddr: 0x26204, symBinAddr: 0x37320, symSize: 0xAC }
  - { offset: 0xA3D82, size: 0x8, addend: 0x0, symName: '__ZN4core3ptr44drop_in_place$LT$object..read..ObjectMap$GT$17h103a96db4b91fe12E', symObjAddr: 0x262B0, symBinAddr: 0x373CC, symSize: 0x58 }
  - { offset: 0xA3F07, size: 0x8, addend: 0x0, symName: '__ZN4core3ptr46drop_in_place$LT$alloc..vec..Vec$LT$u8$GT$$GT$17ha092ea97ee9688bbE', symObjAddr: 0x263C8, symBinAddr: 0x37424, symSize: 0x18 }
  - { offset: 0xA3FB1, size: 0x8, addend: 0x0, symName: '__ZN4core3ptr46drop_in_place$LT$std..io..stdio..StdinLock$GT$17hda3059dbbe9b9703E', symObjAddr: 0x263E0, symBinAddr: 0x3743C, symSize: 0x54 }
  - { offset: 0xA3FC8, size: 0x8, addend: 0x0, symName: '__ZN4core3ptr46drop_in_place$LT$std..io..stdio..StdinLock$GT$17hda3059dbbe9b9703E', symObjAddr: 0x263E0, symBinAddr: 0x3743C, symSize: 0x54 }
  - { offset: 0xA3FDD, size: 0x8, addend: 0x0, symName: '__ZN4core3ptr46drop_in_place$LT$std..io..stdio..StdinLock$GT$17hda3059dbbe9b9703E', symObjAddr: 0x263E0, symBinAddr: 0x3743C, symSize: 0x54 }
  - { offset: 0xA40C0, size: 0x8, addend: 0x0, symName: '__ZN4core3ptr48drop_in_place$LT$alloc..ffi..c_str..NulError$GT$17h8df9e7e666a443fdE', symObjAddr: 0x26518, symBinAddr: 0x37490, symSize: 0x18 }
  - { offset: 0xA40D7, size: 0x8, addend: 0x0, symName: '__ZN4core3ptr48drop_in_place$LT$alloc..ffi..c_str..NulError$GT$17h8df9e7e666a443fdE', symObjAddr: 0x26518, symBinAddr: 0x37490, symSize: 0x18 }
  - { offset: 0xA418D, size: 0x8, addend: 0x0, symName: '__ZN4core3ptr557drop_in_place$LT$core..result..Result$LT$$RF$core..result..Result$LT$addr2line..function..Function$LT$gimli..read..endian_slice..EndianSlice$LT$gimli..endianity..LittleEndian$GT$$GT$$C$gimli..read..Error$GT$$C$$LP$$RF$core..result..Result$LT$addr2line..function..Function$LT$gimli..read..endian_slice..EndianSlice$LT$gimli..endianity..LittleEndian$GT$$GT$$C$gimli..read..Error$GT$$C$core..result..Result$LT$addr2line..function..Function$LT$gimli..read..endian_slice..EndianSlice$LT$gimli..endianity..LittleEndian$GT$$GT$$C$gimli..read..Error$GT$$RP$$GT$$GT$17haf2a8d06e6e1748dE', symObjAddr: 0x267FC, symBinAddr: 0x374A8, symSize: 0x64 }
  - { offset: 0xA43C2, size: 0x8, addend: 0x0, symName: '__ZN4core3ptr55drop_in_place$LT$gimli..read..abbrev..Abbreviations$GT$17h467a83f64a5cda7bE', symObjAddr: 0x26860, symBinAddr: 0x3750C, symSize: 0x118 }
  - { offset: 0xA47A5, size: 0x8, addend: 0x0, symName: '__ZN4core3ptr560drop_in_place$LT$core..result..Result$LT$$RF$core..result..Result$LT$addr2line..function..Functions$LT$gimli..read..endian_slice..EndianSlice$LT$gimli..endianity..LittleEndian$GT$$GT$$C$gimli..read..Error$GT$$C$$LP$$RF$core..result..Result$LT$addr2line..function..Functions$LT$gimli..read..endian_slice..EndianSlice$LT$gimli..endianity..LittleEndian$GT$$GT$$C$gimli..read..Error$GT$$C$core..result..Result$LT$addr2line..function..Functions$LT$gimli..read..endian_slice..EndianSlice$LT$gimli..endianity..LittleEndian$GT$$GT$$C$gimli..read..Error$GT$$RP$$GT$$GT$17h78a57019e46b5f10E', symObjAddr: 0x269FC, symBinAddr: 0x37624, symSize: 0x10 }
  - { offset: 0xA47FD, size: 0x8, addend: 0x0, symName: '__ZN4core3ptr60drop_in_place$LT$gimli..read..abbrev..AbbreviationsCache$GT$17ha8930bb3c16fd23fE', symObjAddr: 0x26A0C, symBinAddr: 0x37634, symSize: 0xCC }
  - { offset: 0xA49A8, size: 0x8, addend: 0x0, symName: '__ZN4core3ptr61drop_in_place$LT$std..panicking..resume_unwind..RewrapBox$GT$17hcc2785daaffec95aE', symObjAddr: 0x26AD8, symBinAddr: 0x37700, symSize: 0x6C }
  - { offset: 0xA4AF7, size: 0x8, addend: 0x0, symName: '__ZN4core3ptr64drop_in_place$LT$std..sys..pal..unix..sync..mutex..AttrGuard$GT$17hf7f9c82cf23e8a3fE', symObjAddr: 0x26B44, symBinAddr: 0x3776C, symSize: 0x44 }
  - { offset: 0xA4B34, size: 0x8, addend: 0x0, symName: '__ZN4core3ptr65drop_in_place$LT$alloc..vec..Vec$LT$alloc..string..String$GT$$GT$17h5da31a873ae8dba7E', symObjAddr: 0x26C00, symBinAddr: 0x377B0, symSize: 0x80 }
  - { offset: 0xA4CFC, size: 0x8, addend: 0x0, symName: '__ZN4core3ptr65drop_in_place$LT$std..backtrace_rs..symbolize..gimli..Context$GT$17h34cca4caf72d8866E', symObjAddr: 0x26C80, symBinAddr: 0x37830, symSize: 0xE8 }
  - { offset: 0xA500F, size: 0x8, addend: 0x0, symName: '__ZN4core3ptr66drop_in_place$LT$std..backtrace_rs..backtrace..libunwind..Bomb$GT$17ha91bd52f658fe1d7E', symObjAddr: 0x26D6C, symBinAddr: 0x37918, symSize: 0x28 }
  - { offset: 0xA5046, size: 0x8, addend: 0x0, symName: '__ZN4core3ptr701drop_in_place$LT$core..result..Result$LT$$RF$core..result..Result$LT$core..option..Option$LT$alloc..boxed..Box$LT$addr2line..unit..DwoUnit$LT$gimli..read..endian_slice..EndianSlice$LT$gimli..endianity..LittleEndian$GT$$GT$$GT$$GT$$C$gimli..read..Error$GT$$C$$LP$$RF$core..result..Result$LT$core..option..Option$LT$alloc..boxed..Box$LT$addr2line..unit..DwoUnit$LT$gimli..read..endian_slice..EndianSlice$LT$gimli..endianity..LittleEndian$GT$$GT$$GT$$GT$$C$gimli..read..Error$GT$$C$core..result..Result$LT$core..option..Option$LT$alloc..boxed..Box$LT$addr2line..unit..DwoUnit$LT$gimli..read..endian_slice..EndianSlice$LT$gimli..endianity..LittleEndian$GT$$GT$$GT$$GT$$C$gimli..read..Error$GT$$RP$$GT$$GT$17hb5914df5ecaf4418E', symObjAddr: 0x26D94, symBinAddr: 0x37940, symSize: 0x14 }
  - { offset: 0xA50DF, size: 0x8, addend: 0x0, symName: '__ZN4core3ptr70drop_in_place$LT$std..backtrace_rs..symbolize..gimli..stash..Stash$GT$17hb592c439c896e374E', symObjAddr: 0x26E28, symBinAddr: 0x37954, symSize: 0xB8 }
  - { offset: 0xA5405, size: 0x8, addend: 0x0, symName: '__ZN4core3ptr71drop_in_place$LT$std..backtrace_rs..symbolize..gimli..macho..Object$GT$17h2ca17ded4074048eE', symObjAddr: 0x26EE0, symBinAddr: 0x37A0C, symSize: 0xD8 }
  - { offset: 0xA57A1, size: 0x8, addend: 0x0, symName: '__ZN4core3ptr71drop_in_place$LT$std..panicking..panic_handler..FormatStringPayload$GT$17h0901b0d590f03152E', symObjAddr: 0x26FB8, symBinAddr: 0x37AE4, symSize: 0x1C }
  - { offset: 0xA5888, size: 0x8, addend: 0x0, symName: '__ZN4core3ptr72drop_in_place$LT$core..option..Option$LT$object..read..ObjectMap$GT$$GT$17h3a9d8e00e9891a9bE', symObjAddr: 0x26FD4, symBinAddr: 0x37B00, symSize: 0x64 }
  - { offset: 0xA5A57, size: 0x8, addend: 0x0, symName: '__ZN4core3ptr73drop_in_place$LT$alloc..vec..Vec$LT$addr2line..line..LineSequence$GT$$GT$17h0172abfa4ac0edebE', symObjAddr: 0x27038, symBinAddr: 0x37B64, symSize: 0x84 }
  - { offset: 0xA5C05, size: 0x8, addend: 0x0, symName: '__ZN4core3ptr77drop_in_place$LT$alloc..boxed..Box$LT$$u5b$alloc..string..String$u5d$$GT$$GT$17haf832d073508a4aaE', symObjAddr: 0x270F4, symBinAddr: 0x37BE8, symSize: 0x70 }
  - { offset: 0xA5C1C, size: 0x8, addend: 0x0, symName: '__ZN4core3ptr77drop_in_place$LT$alloc..boxed..Box$LT$$u5b$alloc..string..String$u5d$$GT$$GT$17haf832d073508a4aaE', symObjAddr: 0x270F4, symBinAddr: 0x37BE8, symSize: 0x70 }
  - { offset: 0xA5D70, size: 0x8, addend: 0x0, symName: '__ZN4core3ptr79drop_in_place$LT$std..sync..poison..rwlock..RwLockReadGuard$LT$$LP$$RP$$GT$$GT$17h091e15822ffc9edbE', symObjAddr: 0x27194, symBinAddr: 0x37C58, symSize: 0x58 }
  - { offset: 0xA5E0C, size: 0x8, addend: 0x0, symName: '__ZN4core3ptr81drop_in_place$LT$core..result..Result$LT$$LP$$RP$$C$std..io..error..Error$GT$$GT$17h814d80e6c8b246c2E', symObjAddr: 0x27298, symBinAddr: 0x37CB0, symSize: 0x10 }
  - { offset: 0xA5E3A, size: 0x8, addend: 0x0, symName: '__ZN4core3ptr82drop_in_place$LT$alloc..sync..ArcInner$LT$std..sys..fs..unix..InnerReadDir$GT$$GT$17h064c76c66badd045E', symObjAddr: 0x2737C, symBinAddr: 0x37CC0, symSize: 0x60 }
  - { offset: 0xA605A, size: 0x8, addend: 0x0, symName: '__ZN4core3ptr92drop_in_place$LT$core..result..Result$LT$addr2line..line..Lines$C$gimli..read..Error$GT$$GT$17hc66e02df388e03ecE', symObjAddr: 0x27510, symBinAddr: 0x37D20, symSize: 0xE4 }
  - { offset: 0xA634C, size: 0x8, addend: 0x0, symName: '__ZN4core3ptr93drop_in_place$LT$core..option..Option$LT$std..backtrace_rs..symbolize..gimli..Mapping$GT$$GT$17ha173ce148f3cf6eaE', symObjAddr: 0x275F4, symBinAddr: 0x37E04, symSize: 0x6C }
  - { offset: 0xA847E, size: 0x8, addend: 0x0, symName: __ZN4core5slice4sort8unstable7ipnsort17ha8a643003d62ef22E, symObjAddr: 0x31014, symBinAddr: 0x3E9D8, symSize: 0x1A8 }
  - { offset: 0xA8748, size: 0x8, addend: 0x0, symName: __ZN4core5slice4sort8unstable7ipnsort17hfe78c4a2b765fcc9E, symObjAddr: 0x311BC, symBinAddr: 0x3EB80, symSize: 0xEC }
  - { offset: 0xA889F, size: 0x8, addend: 0x0, symName: __ZN4core5slice4sort8unstable8heapsort8heapsort17h573befcd8eda61e5E, symObjAddr: 0x312A8, symBinAddr: 0x3EC6C, symSize: 0x160 }
  - { offset: 0xA8BAF, size: 0x8, addend: 0x0, symName: __ZN4core5slice4sort8unstable8heapsort8heapsort17hdca824869f99829bE, symObjAddr: 0x31408, symBinAddr: 0x3EDCC, symSize: 0x100 }
  - { offset: 0xA8E3F, size: 0x8, addend: 0x0, symName: __ZN4core5slice4sort8unstable9quicksort9quicksort17h3638ec32060f422fE, symObjAddr: 0x31508, symBinAddr: 0x3EECC, symSize: 0x500 }
  - { offset: 0xA98E9, size: 0x8, addend: 0x0, symName: __ZN4core5slice4sort8unstable9quicksort9quicksort17h6f43a7e4639d7d90E, symObjAddr: 0x31A08, symBinAddr: 0x3F3CC, symSize: 0x3D8 }
  - { offset: 0xAA0A8, size: 0x8, addend: 0x0, symName: __ZN4core5slice4sort6stable14driftsort_main17h2b43a4226b91abb0E, symObjAddr: 0x2BD34, symBinAddr: 0x396F8, symSize: 0x150 }
  - { offset: 0xAA443, size: 0x8, addend: 0x0, symName: __ZN4core5slice4sort6stable14driftsort_main17h61a17d40716aa9c6E, symObjAddr: 0x2BE84, symBinAddr: 0x39848, symSize: 0x124 }
  - { offset: 0xAA7BE, size: 0x8, addend: 0x0, symName: __ZN4core5slice4sort6stable14driftsort_main17h8f5e0d127f8c5934E, symObjAddr: 0x2BFA8, symBinAddr: 0x3996C, symSize: 0x124 }
  - { offset: 0xAAB39, size: 0x8, addend: 0x0, symName: __ZN4core5slice4sort6stable14driftsort_main17hb1e3406f075f1867E, symObjAddr: 0x2C0CC, symBinAddr: 0x39A90, symSize: 0x124 }
  - { offset: 0xAAEB4, size: 0x8, addend: 0x0, symName: __ZN4core5slice4sort6stable14driftsort_main17hc893b3697714d76aE, symObjAddr: 0x2C1F0, symBinAddr: 0x39BB4, symSize: 0x128 }
  - { offset: 0xAB157, size: 0x8, addend: 0x0, symName: __ZN4core5slice4sort6stable14driftsort_main17hcd30dcce867beb97E, symObjAddr: 0x2C318, symBinAddr: 0x39CDC, symSize: 0x150 }
  - { offset: 0xAB706, size: 0x8, addend: 0x0, symName: __ZN4core5slice4sort6stable5drift4sort17h5e38af9010a1a556E, symObjAddr: 0x2C468, symBinAddr: 0x39E2C, symSize: 0x4F4 }
  - { offset: 0xABDB1, size: 0x8, addend: 0x0, symName: __ZN4core5slice4sort6stable5drift4sort17h80327560a6a1c94bE, symObjAddr: 0x2C95C, symBinAddr: 0x3A320, symSize: 0x4F4 }
  - { offset: 0xAC45C, size: 0x8, addend: 0x0, symName: __ZN4core5slice4sort6stable5drift4sort17h8eec2dc203ad591bE, symObjAddr: 0x2CE50, symBinAddr: 0x3A814, symSize: 0x540 }
  - { offset: 0xACB1D, size: 0x8, addend: 0x0, symName: __ZN4core5slice4sort6stable5drift4sort17ha8d814c5c1d304f0E, symObjAddr: 0x2D390, symBinAddr: 0x3AD54, symSize: 0x4D8 }
  - { offset: 0xAD134, size: 0x8, addend: 0x0, symName: __ZN4core5slice4sort6stable5drift4sort17hc3241614963c3d1fE, symObjAddr: 0x2D868, symBinAddr: 0x3B22C, symSize: 0x538 }
  - { offset: 0xAD7C9, size: 0x8, addend: 0x0, symName: __ZN4core5slice4sort6stable5drift4sort17hdb282faf6360b05fE, symObjAddr: 0x2DDA0, symBinAddr: 0x3B764, symSize: 0x5EC }
  - { offset: 0xAE0DB, size: 0x8, addend: 0x0, symName: __ZN4core5slice4sort6stable9quicksort9quicksort17h4dd0d1c0b49d71a6E, symObjAddr: 0x2E38C, symBinAddr: 0x3BD50, symSize: 0x810 }
  - { offset: 0xAECD2, size: 0x8, addend: 0x0, symName: __ZN4core5slice4sort6stable9quicksort9quicksort17h5fbbd8b769a24b09E, symObjAddr: 0x2EB9C, symBinAddr: 0x3C560, symSize: 0x7FC }
  - { offset: 0xAFC9C, size: 0x8, addend: 0x0, symName: __ZN4core5slice4sort6stable9quicksort9quicksort17h64319fbf65ad0bb7E, symObjAddr: 0x2F398, symBinAddr: 0x3CD5C, symSize: 0x6BC }
  - { offset: 0xB0782, size: 0x8, addend: 0x0, symName: __ZN4core5slice4sort6stable9quicksort9quicksort17h9cb0acdc055fe751E, symObjAddr: 0x2FA54, symBinAddr: 0x3D418, symSize: 0x720 }
  - { offset: 0xB0EF1, size: 0x8, addend: 0x0, symName: __ZN4core5slice4sort6stable9quicksort9quicksort17h9fd277f3d72f346bE, symObjAddr: 0x30174, symBinAddr: 0x3DB38, symSize: 0x7EC }
  - { offset: 0xB1ADB, size: 0x8, addend: 0x0, symName: __ZN4core5slice4sort6stable9quicksort9quicksort17ha6e1efa1ee21f84aE, symObjAddr: 0x30960, symBinAddr: 0x3E324, symSize: 0x6B4 }
  - { offset: 0xB267A, size: 0x8, addend: 0x0, symName: __ZN4core5slice4sort6shared9smallsort12sort4_stable17h469156677824c224E, symObjAddr: 0x2AC08, symBinAddr: 0x385CC, symSize: 0x180 }
  - { offset: 0xB2A64, size: 0x8, addend: 0x0, symName: __ZN4core5slice4sort6shared9smallsort12sort4_stable17h47cd5e0d6e97a400E, symObjAddr: 0x2AD88, symBinAddr: 0x3874C, symSize: 0x194 }
  - { offset: 0xB2C45, size: 0x8, addend: 0x0, symName: __ZN4core5slice4sort6shared9smallsort12sort8_stable17h50b2266a3ed37fa9E, symObjAddr: 0x2AF1C, symBinAddr: 0x388E0, symSize: 0x2B8 }
  - { offset: 0xB312A, size: 0x8, addend: 0x0, symName: __ZN4core5slice4sort6shared9smallsort18small_sort_general17h6e7a9a9e6618d8a0E, symObjAddr: 0x2B1D4, symBinAddr: 0x38B98, symSize: 0x490 }
  - { offset: 0xB3846, size: 0x8, addend: 0x0, symName: __ZN4core5slice4sort6shared9smallsort18small_sort_general17ha4bd61284e5c0765E, symObjAddr: 0x2B664, symBinAddr: 0x39028, symSize: 0x3E8 }
  - { offset: 0xB3D7A, size: 0x8, addend: 0x0, symName: __ZN4core5slice4sort6shared9smallsort25insertion_sort_shift_left17h5d52d1c7eb4e4745E, symObjAddr: 0x2BA4C, symBinAddr: 0x39410, symSize: 0x94 }
  - { offset: 0xB3E51, size: 0x8, addend: 0x0, symName: __ZN4core5slice4sort6shared9smallsort25insertion_sort_shift_left17h803c5d2110d164b3E, symObjAddr: 0x2BAE0, symBinAddr: 0x394A4, symSize: 0xB8 }
  - { offset: 0xB3F7E, size: 0x8, addend: 0x0, symName: __ZN4core5slice4sort6shared9smallsort25insertion_sort_shift_left17had99aba7dfc2ff8dE, symObjAddr: 0x2BB98, symBinAddr: 0x3955C, symSize: 0xA8 }
  - { offset: 0xB4048, size: 0x8, addend: 0x0, symName: __ZN4core5slice4sort6shared9smallsort25insertion_sort_shift_left17hd839558f15a084bbE, symObjAddr: 0x2BC40, symBinAddr: 0x39604, symSize: 0xF4 }
  - { offset: 0xB43ED, size: 0x8, addend: 0x0, symName: __ZN4core5slice4sort6shared5pivot11median3_rec17h1b560c2c546575d6E, symObjAddr: 0x2A4E4, symBinAddr: 0x37EA8, symSize: 0x11C }
  - { offset: 0xB44FD, size: 0x8, addend: 0x0, symName: __ZN4core5slice4sort6shared5pivot11median3_rec17h43f45571122837c6E, symObjAddr: 0x2A600, symBinAddr: 0x37FC4, symSize: 0xD0 }
  - { offset: 0xB460A, size: 0x8, addend: 0x0, symName: __ZN4core5slice4sort6shared5pivot11median3_rec17h7c4642b45abcfdf3E, symObjAddr: 0x2A6D0, symBinAddr: 0x38094, symSize: 0xCC }
  - { offset: 0xB4715, size: 0x8, addend: 0x0, symName: __ZN4core5slice4sort6shared5pivot11median3_rec17ha4992078eee22457E, symObjAddr: 0x2A79C, symBinAddr: 0x38160, symSize: 0x134 }
  - { offset: 0xB4950, size: 0x8, addend: 0x0, symName: __ZN4core5slice4sort6shared5pivot11median3_rec17hb44e75e610ba05a4E, symObjAddr: 0x2A8D0, symBinAddr: 0x38294, symSize: 0xD0 }
  - { offset: 0xB4A5B, size: 0x8, addend: 0x0, symName: __ZN4core5slice4sort6shared5pivot11median3_rec17hb71c969603cdb7f6E, symObjAddr: 0x2A9A0, symBinAddr: 0x38364, symSize: 0xCC }
  - { offset: 0xB4B66, size: 0x8, addend: 0x0, symName: __ZN4core5slice4sort6shared5pivot11median3_rec17hc544ad2542f3ad8eE, symObjAddr: 0x2AA6C, symBinAddr: 0x38430, symSize: 0xD0 }
  - { offset: 0xB4C71, size: 0x8, addend: 0x0, symName: __ZN4core5slice4sort6shared5pivot11median3_rec17hd6004b59113fbfecE, symObjAddr: 0x2AB3C, symBinAddr: 0x38500, symSize: 0xCC }
  - { offset: 0xB54F0, size: 0x8, addend: 0x0, symName: __ZN4core5panic12PanicPayload6as_str17h14346476792e989cE, symObjAddr: 0x2A4DC, symBinAddr: 0x37EA0, symSize: 0x8 }
  - { offset: 0xB6AD1, size: 0x8, addend: 0x0, symName: '__ZN42_$LT$$RF$T$u20$as$u20$core..fmt..Debug$GT$3fmt17h177c428d5772590dE', symObjAddr: 0x22E84, symBinAddr: 0x35CF8, symSize: 0x1C }
  - { offset: 0xB6B26, size: 0x8, addend: 0x0, symName: '__ZN42_$LT$$RF$T$u20$as$u20$core..fmt..Debug$GT$3fmt17h8fb107d9d93bf5f3E', symObjAddr: 0x23524, symBinAddr: 0x35D14, symSize: 0x1C }
  - { offset: 0xB6B6E, size: 0x8, addend: 0x0, symName: '__ZN42_$LT$$RF$T$u20$as$u20$core..fmt..Debug$GT$3fmt17ha66933743b08b6feE', symObjAddr: 0x23590, symBinAddr: 0x35D30, symSize: 0x74 }
  - { offset: 0xB6C85, size: 0x8, addend: 0x0, symName: '__ZN42_$LT$$RF$T$u20$as$u20$core..fmt..Debug$GT$3fmt17hc73e4cddec4aa4f1E', symObjAddr: 0x23804, symBinAddr: 0x35DA4, symSize: 0x10 }
  - { offset: 0xB6C99, size: 0x8, addend: 0x0, symName: '__ZN42_$LT$$RF$T$u20$as$u20$core..fmt..Debug$GT$3fmt17hda426fb11ecf83d1E', symObjAddr: 0x23910, symBinAddr: 0x35DB4, symSize: 0x10 }
  - { offset: 0xB6D0A, size: 0x8, addend: 0x0, symName: '__ZN4core3fmt3num50_$LT$impl$u20$core..fmt..Debug$u20$for$u20$i32$GT$3fmt17h26d61a2b80e79249E', symObjAddr: 0x23DC4, symBinAddr: 0x35E34, symSize: 0x18 }
  - { offset: 0xB6D22, size: 0x8, addend: 0x0, symName: '__ZN4core3fmt3num50_$LT$impl$u20$core..fmt..Debug$u20$for$u20$i32$GT$3fmt17h26d61a2b80e79249E', symObjAddr: 0x23DC4, symBinAddr: 0x35E34, symSize: 0x18 }
  - { offset: 0xB6D3B, size: 0x8, addend: 0x0, symName: '__ZN4core3fmt3num52_$LT$impl$u20$core..fmt..Debug$u20$for$u20$usize$GT$3fmt17hddf28bd83d4a73e6E', symObjAddr: 0x23E24, symBinAddr: 0x35E4C, symSize: 0x18 }
  - { offset: 0xB6D53, size: 0x8, addend: 0x0, symName: '__ZN4core3fmt3num52_$LT$impl$u20$core..fmt..Debug$u20$for$u20$usize$GT$3fmt17hddf28bd83d4a73e6E', symObjAddr: 0x23E24, symBinAddr: 0x35E4C, symSize: 0x18 }
  - { offset: 0xB6D8E, size: 0x8, addend: 0x0, symName: '__ZN44_$LT$$RF$T$u20$as$u20$core..fmt..Display$GT$3fmt17he413baf87c2d405bE', symObjAddr: 0x23A0C, symBinAddr: 0x35DC4, symSize: 0x60 }
  - { offset: 0xB6E05, size: 0x8, addend: 0x0, symName: '__ZN44_$LT$$RF$T$u20$as$u20$core..fmt..Display$GT$3fmt17hf44a69cad7166c3fE', symObjAddr: 0x23A6C, symBinAddr: 0x35E24, symSize: 0x10 }
  - { offset: 0xB6E40, size: 0x8, addend: 0x0, symName: __ZN4core3fmt5Write10write_char17h319fd9fe76fafdd3E, symObjAddr: 0x23FA4, symBinAddr: 0x35E64, symSize: 0x128 }
  - { offset: 0xB6EBB, size: 0x8, addend: 0x0, symName: __ZN4core3fmt5Write10write_char17h97051c7b8f065692E, symObjAddr: 0x240CC, symBinAddr: 0x35F8C, symSize: 0x138 }
  - { offset: 0xB704F, size: 0x8, addend: 0x0, symName: __ZN4core3fmt5Write10write_char17hcd7ef45195c85d9dE, symObjAddr: 0x24204, symBinAddr: 0x360C4, symSize: 0x110 }
  - { offset: 0xB7203, size: 0x8, addend: 0x0, symName: __ZN4core3fmt5Write10write_char17he147b3d3d9aec1baE, symObjAddr: 0x24314, symBinAddr: 0x361D4, symSize: 0x168 }
  - { offset: 0xB739E, size: 0x8, addend: 0x0, symName: __ZN4core3fmt5Write9write_fmt17h538713431ac351bfE, symObjAddr: 0x245A4, symBinAddr: 0x3633C, symSize: 0x14 }
  - { offset: 0xB73CD, size: 0x8, addend: 0x0, symName: __ZN4core3fmt5Write9write_fmt17h8ef5f396dd60f23fE, symObjAddr: 0x245B8, symBinAddr: 0x36350, symSize: 0x14 }
  - { offset: 0xB73FC, size: 0x8, addend: 0x0, symName: __ZN4core3fmt5Write9write_fmt17h98e28ebb511e0c3fE, symObjAddr: 0x245CC, symBinAddr: 0x36364, symSize: 0x14 }
  - { offset: 0xB742B, size: 0x8, addend: 0x0, symName: __ZN4core3fmt5Write9write_fmt17ha89f7cbf0420f3c3E, symObjAddr: 0x245E0, symBinAddr: 0x36378, symSize: 0x14 }
  - { offset: 0xB745A, size: 0x8, addend: 0x0, symName: __ZN4core3fmt5Write9write_fmt17hd0c7c5de1e8c1578E, symObjAddr: 0x2461C, symBinAddr: 0x3638C, symSize: 0x14 }
  - { offset: 0xB74B5, size: 0x8, addend: 0x0, symName: '__ZN50_$LT$$BP$mut$u20$T$u20$as$u20$core..fmt..Debug$GT$3fmt17hf3eb8438fbbf3411E', symObjAddr: 0x31E90, symBinAddr: 0x3F7A4, symSize: 0x8 }
  - { offset: 0xB74D3, size: 0x8, addend: 0x0, symName: '__ZN50_$LT$$BP$mut$u20$T$u20$as$u20$core..fmt..Debug$GT$3fmt17hf3eb8438fbbf3411E', symObjAddr: 0x31E90, symBinAddr: 0x3F7A4, symSize: 0x8 }
  - { offset: 0xB7502, size: 0x8, addend: 0x0, symName: '__ZN52_$LT$$RF$mut$u20$T$u20$as$u20$core..fmt..Display$GT$3fmt17hd4ecd60d35c8f9e8E', symObjAddr: 0x3245C, symBinAddr: 0x3F7AC, symSize: 0x10 }
  - { offset: 0xB7596, size: 0x8, addend: 0x0, symName: '__ZN4core3ops8function6FnOnce40call_once$u7b$$u7b$vtable.shim$u7d$$u7d$17h4218539377a2a1b5E', symObjAddr: 0x24934, symBinAddr: 0x363A0, symSize: 0xC }
  - { offset: 0xB75E7, size: 0x8, addend: 0x0, symName: '__ZN4core3ops8function6FnOnce40call_once$u7b$$u7b$vtable.shim$u7d$$u7d$17h4e6c8110069f19edE', symObjAddr: 0x24940, symBinAddr: 0x363AC, symSize: 0xC }
  - { offset: 0xB7638, size: 0x8, addend: 0x0, symName: '__ZN4core3ops8function6FnOnce40call_once$u7b$$u7b$vtable.shim$u7d$$u7d$17h8aec2d2e62ce5f2eE', symObjAddr: 0x24AAC, symBinAddr: 0x363B8, symSize: 0x98 }
  - { offset: 0xB77A9, size: 0x8, addend: 0x0, symName: '__ZN4core3ops8function6FnOnce40call_once$u7b$$u7b$vtable.shim$u7d$$u7d$17h9d3a33d4686cf935E', symObjAddr: 0x24B84, symBinAddr: 0x36450, symSize: 0x4 }
  - { offset: 0xB77C6, size: 0x8, addend: 0x0, symName: '__ZN4core3ops8function6FnOnce40call_once$u7b$$u7b$vtable.shim$u7d$$u7d$17h9d3a33d4686cf935E', symObjAddr: 0x24B84, symBinAddr: 0x36450, symSize: 0x4 }
  - { offset: 0xB77E5, size: 0x8, addend: 0x0, symName: '__ZN4core3ops8function6FnOnce40call_once$u7b$$u7b$vtable.shim$u7d$$u7d$17hb601ef05c40b5e16E', symObjAddr: 0x24BF4, symBinAddr: 0x36454, symSize: 0x4 }
  - { offset: 0xB7802, size: 0x8, addend: 0x0, symName: '__ZN4core3ops8function6FnOnce40call_once$u7b$$u7b$vtable.shim$u7d$$u7d$17hb601ef05c40b5e16E', symObjAddr: 0x24BF4, symBinAddr: 0x36454, symSize: 0x4 }
  - { offset: 0xB8403, size: 0x8, addend: 0x0, symName: '__ZN36_$LT$T$u20$as$u20$core..any..Any$GT$7type_id17h39e909e33a34436fE', symObjAddr: 0xC94, symBinAddr: 0x2BCD8, symSize: 0x14 }
  - { offset: 0xB8420, size: 0x8, addend: 0x0, symName: '__ZN36_$LT$T$u20$as$u20$core..any..Any$GT$7type_id17h39e909e33a34436fE', symObjAddr: 0xC94, symBinAddr: 0x2BCD8, symSize: 0x14 }
  - { offset: 0xB8432, size: 0x8, addend: 0x0, symName: '__ZN36_$LT$T$u20$as$u20$core..any..Any$GT$7type_id17h9d86f0f0caa268bbE', symObjAddr: 0xCA8, symBinAddr: 0x2BCEC, symSize: 0x14 }
  - { offset: 0xB844F, size: 0x8, addend: 0x0, symName: '__ZN36_$LT$T$u20$as$u20$core..any..Any$GT$7type_id17h9d86f0f0caa268bbE', symObjAddr: 0xCA8, symBinAddr: 0x2BCEC, symSize: 0x14 }
  - { offset: 0xB8461, size: 0x8, addend: 0x0, symName: '__ZN36_$LT$T$u20$as$u20$core..any..Any$GT$7type_id17hd2a7cca6abfee825E', symObjAddr: 0xCBC, symBinAddr: 0x2BD00, symSize: 0x14 }
  - { offset: 0xB847E, size: 0x8, addend: 0x0, symName: '__ZN36_$LT$T$u20$as$u20$core..any..Any$GT$7type_id17hd2a7cca6abfee825E', symObjAddr: 0xCBC, symBinAddr: 0x2BD00, symSize: 0x14 }
  - { offset: 0xB9A4F, size: 0x8, addend: 0x0, symName: '__ZN4core4cell4once17OnceCell$LT$T$GT$8try_init17h12931ad8a233136dE', symObjAddr: 0x27758, symBinAddr: 0x5C538, symSize: 0x68 }
  - { offset: 0xB9AED, size: 0x8, addend: 0x0, symName: '__ZN4core4cell4once17OnceCell$LT$T$GT$8try_init17h5e539301376400ccE', symObjAddr: 0x277C0, symBinAddr: 0x5C5A0, symSize: 0x48 }
  - { offset: 0xB9B0B, size: 0x8, addend: 0x0, symName: '__ZN4core4cell4once17OnceCell$LT$T$GT$8try_init17h5e539301376400ccE', symObjAddr: 0x277C0, symBinAddr: 0x5C5A0, symSize: 0x48 }
  - { offset: 0xB9B20, size: 0x8, addend: 0x0, symName: '__ZN4core4cell4once17OnceCell$LT$T$GT$8try_init17h5e539301376400ccE', symObjAddr: 0x277C0, symBinAddr: 0x5C5A0, symSize: 0x48 }
  - { offset: 0xB9B34, size: 0x8, addend: 0x0, symName: '__ZN4core4cell4once17OnceCell$LT$T$GT$8try_init17h5e539301376400ccE', symObjAddr: 0x277C0, symBinAddr: 0x5C5A0, symSize: 0x48 }
  - { offset: 0xB9B76, size: 0x8, addend: 0x0, symName: '__ZN4core4cell4once17OnceCell$LT$T$GT$8try_init17h62b732aaca9d52ccE', symObjAddr: 0x27808, symBinAddr: 0x5C5E8, symSize: 0xFC }
  - { offset: 0xB9E2B, size: 0x8, addend: 0x0, symName: '__ZN4core4cell4once17OnceCell$LT$T$GT$8try_init17ha23576e2981dd856E', symObjAddr: 0x27904, symBinAddr: 0x5C6E4, symSize: 0x186C }
  - { offset: 0xBD8C0, size: 0x8, addend: 0x0, symName: '__ZN4core4cell4once17OnceCell$LT$T$GT$8try_init17hb89f7791510a2e51E', symObjAddr: 0x29170, symBinAddr: 0x5DF50, symSize: 0xBE4 }
  - { offset: 0xBF42F, size: 0x8, addend: 0x0, symName: '__ZN4core4cell4once17OnceCell$LT$T$GT$8try_init17hbb24d07687c9cbd6E', symObjAddr: 0x29D54, symBinAddr: 0x5EB34, symSize: 0x62C }
  - { offset: 0xC0558, size: 0x8, addend: 0x0, symName: '__ZN55_$LT$$RF$str$u20$as$u20$core..str..pattern..Pattern$GT$15is_contained_in17h469e9c347de94ef2E', symObjAddr: 0x32A48, symBinAddr: 0x3F7BC, symSize: 0x3C0 }
  - { offset: 0xC0AAD, size: 0x8, addend: 0x0, symName: __ZN4core5error5Error11description17h8e35abec80ad84e6E, symObjAddr: 0x2A47C, symBinAddr: 0x37E70, symSize: 0x10 }
  - { offset: 0xC0AC8, size: 0x8, addend: 0x0, symName: __ZN4core5error5Error5cause17h953b607faec97eafE, symObjAddr: 0x2A49C, symBinAddr: 0x37E80, symSize: 0x8 }
  - { offset: 0xC0AE3, size: 0x8, addend: 0x0, symName: __ZN4core5error5Error7provide17hc570ba63aa6f105dE, symObjAddr: 0x2A4B0, symBinAddr: 0x37E88, symSize: 0x4 }
  - { offset: 0xC0AFF, size: 0x8, addend: 0x0, symName: __ZN4core5error5Error7type_id17hfbe707ce9411fd4cE, symObjAddr: 0x2A4C8, symBinAddr: 0x37E8C, symSize: 0x14 }
  - { offset: 0xC0B1E, size: 0x8, addend: 0x0, symName: __ZN4core5error5Error7type_id17hfbe707ce9411fd4cE, symObjAddr: 0x2A4C8, symBinAddr: 0x37E8C, symSize: 0x14 }
  - { offset: 0xC0B38, size: 0x8, addend: 0x0, symName: __ZN4core9panicking13assert_failed17h1a99d922c16cfdaeE, symObjAddr: 0x31E08, symBinAddr: 0x5F160, symSize: 0x28 }
  - { offset: 0xC0E2C, size: 0x8, addend: 0x0, symName: __ZN5alloc5alloc15exchange_malloc17h2651c83eb5e8d63cE, symObjAddr: 0x396F4, symBinAddr: 0x4049C, symSize: 0x48 }
  - { offset: 0xC1C66, size: 0x8, addend: 0x0, symName: '__ZN64_$LT$alloc..ffi..c_str..NulError$u20$as$u20$core..fmt..Debug$GT$3fmt17h332fbd8e6a73c2d4E', symObjAddr: 0x447E8, symBinAddr: 0x479D8, symSize: 0x4C }
  - { offset: 0xC2125, size: 0x8, addend: 0x0, symName: '__ZN5alloc11collections5btree3map25IntoIter$LT$K$C$V$C$A$GT$10dying_next17hb1b3a96cd69b8fe7E', symObjAddr: 0x3713C, symBinAddr: 0x3FD30, symSize: 0x204 }
  - { offset: 0xC252C, size: 0x8, addend: 0x0, symName: '__ZN5alloc11collections5btree3map25IntoIter$LT$K$C$V$C$A$GT$10dying_next17hd46bd43dd487bf34E', symObjAddr: 0x37340, symBinAddr: 0x3FF34, symSize: 0x204 }
  - { offset: 0xC2F9A, size: 0x8, addend: 0x0, symName: '__ZN5alloc7raw_vec20RawVecInner$LT$A$GT$11finish_grow17h49b462f7651a4ea0E', symObjAddr: 0x39C44, symBinAddr: 0x5F628, symSize: 0x94 }
  - { offset: 0xC30B7, size: 0x8, addend: 0x0, symName: '__ZN5alloc7raw_vec20RawVecInner$LT$A$GT$11finish_grow17h8d45e48f1584e635E', symObjAddr: 0x39CD8, symBinAddr: 0x5F6BC, symSize: 0xC4 }
  - { offset: 0xC3264, size: 0x8, addend: 0x0, symName: '__ZN5alloc7raw_vec20RawVecInner$LT$A$GT$14grow_amortized17h03e509d45a4990d0E', symObjAddr: 0x39D9C, symBinAddr: 0x5F780, symSize: 0x70 }
  - { offset: 0xC381C, size: 0x8, addend: 0x0, symName: '__ZN5alloc7raw_vec19RawVec$LT$T$C$A$GT$8grow_one17h0b3d4fedf5981691E', symObjAddr: 0x3973C, symBinAddr: 0x5F188, symSize: 0x68 }
  - { offset: 0xC38A0, size: 0x8, addend: 0x0, symName: '__ZN5alloc7raw_vec19RawVec$LT$T$C$A$GT$8grow_one17h1c6eeff65bf6bc15E', symObjAddr: 0x397A4, symBinAddr: 0x5F1F0, symSize: 0x68 }
  - { offset: 0xC3924, size: 0x8, addend: 0x0, symName: '__ZN5alloc7raw_vec19RawVec$LT$T$C$A$GT$8grow_one17h20c64cf665f15fe4E', symObjAddr: 0x3980C, symBinAddr: 0x5F258, symSize: 0x68 }
  - { offset: 0xC39A8, size: 0x8, addend: 0x0, symName: '__ZN5alloc7raw_vec19RawVec$LT$T$C$A$GT$8grow_one17h37078fe3e5146b92E', symObjAddr: 0x39874, symBinAddr: 0x5F2C0, symSize: 0x68 }
  - { offset: 0xC3A2C, size: 0x8, addend: 0x0, symName: '__ZN5alloc7raw_vec19RawVec$LT$T$C$A$GT$8grow_one17h39087719d60c73baE', symObjAddr: 0x398DC, symBinAddr: 0x5F328, symSize: 0x68 }
  - { offset: 0xC3AB0, size: 0x8, addend: 0x0, symName: '__ZN5alloc7raw_vec19RawVec$LT$T$C$A$GT$8grow_one17h46115a12f843e2d3E', symObjAddr: 0x39944, symBinAddr: 0x5F390, symSize: 0x68 }
  - { offset: 0xC3B34, size: 0x8, addend: 0x0, symName: '__ZN5alloc7raw_vec19RawVec$LT$T$C$A$GT$8grow_one17h4f33bfe902b32a40E', symObjAddr: 0x399AC, symBinAddr: 0x5F3F8, symSize: 0x68 }
  - { offset: 0xC3BB8, size: 0x8, addend: 0x0, symName: '__ZN5alloc7raw_vec19RawVec$LT$T$C$A$GT$8grow_one17h57e45b391f3477e0E', symObjAddr: 0x39A14, symBinAddr: 0x5F460, symSize: 0x68 }
  - { offset: 0xC3C3C, size: 0x8, addend: 0x0, symName: '__ZN5alloc7raw_vec19RawVec$LT$T$C$A$GT$8grow_one17h64dcbdae873e076bE', symObjAddr: 0x39A7C, symBinAddr: 0x5F4C8, symSize: 0x68 }
  - { offset: 0xC3CC0, size: 0x8, addend: 0x0, symName: '__ZN5alloc7raw_vec19RawVec$LT$T$C$A$GT$8grow_one17h69061b0f18a0f860E', symObjAddr: 0x39AE4, symBinAddr: 0x5F530, symSize: 0x28 }
  - { offset: 0xC3CE8, size: 0x8, addend: 0x0, symName: '__ZN5alloc7raw_vec19RawVec$LT$T$C$A$GT$8grow_one17ha3dab7cb867393e3E', symObjAddr: 0x39B0C, symBinAddr: 0x5F558, symSize: 0x68 }
  - { offset: 0xC3D6C, size: 0x8, addend: 0x0, symName: '__ZN5alloc7raw_vec19RawVec$LT$T$C$A$GT$8grow_one17ha689bd2f7dcd7353E', symObjAddr: 0x39B74, symBinAddr: 0x5F5C0, symSize: 0x68 }
  - { offset: 0xC4057, size: 0x8, addend: 0x0, symName: '__ZN5alloc7raw_vec20RawVecInner$LT$A$GT$7reserve21do_reserve_and_handle17h90344aef1e9872a3E', symObjAddr: 0x39E0C, symBinAddr: 0x5F7F0, symSize: 0x8C }
  - { offset: 0xC422F, size: 0x8, addend: 0x0, symName: '__ZN58_$LT$alloc..string..String$u20$as$u20$core..fmt..Debug$GT$3fmt17h099397a60a292922E', symObjAddr: 0x33D8C, symBinAddr: 0x3FB7C, symSize: 0x10 }
  - { offset: 0xC42EA, size: 0x8, addend: 0x0, symName: '__ZN58_$LT$alloc..string..String$u20$as$u20$core..fmt..Write$GT$10write_char17h9904efafb51f78b8E', symObjAddr: 0x33D9C, symBinAddr: 0x3FB8C, symSize: 0x120 }
  - { offset: 0xC448D, size: 0x8, addend: 0x0, symName: '__ZN58_$LT$alloc..string..String$u20$as$u20$core..fmt..Write$GT$9write_str17h3ffaf0979099dce0E', symObjAddr: 0x33EBC, symBinAddr: 0x3FCAC, symSize: 0x80 }
  - { offset: 0xC45E6, size: 0x8, addend: 0x0, symName: '__ZN60_$LT$alloc..string..String$u20$as$u20$core..fmt..Display$GT$3fmt17h620931148dfbd646E', symObjAddr: 0x40DA0, symBinAddr: 0x473EC, symSize: 0x10 }
  - { offset: 0xC4A10, size: 0x8, addend: 0x0, symName: '__ZN5alloc4sync16Arc$LT$T$C$A$GT$9drop_slow17h3dfbf94c2de416b8E', symObjAddr: 0x39390, symBinAddr: 0x40138, symSize: 0x98 }
  - { offset: 0xC4C08, size: 0x8, addend: 0x0, symName: '__ZN5alloc4sync16Arc$LT$T$C$A$GT$9drop_slow17h48a6351c7f0b3554E', symObjAddr: 0x39428, symBinAddr: 0x401D0, symSize: 0x70 }
  - { offset: 0xC4E00, size: 0x8, addend: 0x0, symName: '__ZN5alloc4sync16Arc$LT$T$C$A$GT$9drop_slow17h90872bb592eff208E', symObjAddr: 0x39498, symBinAddr: 0x40240, symSize: 0xD0 }
  - { offset: 0xC506F, size: 0x8, addend: 0x0, symName: '__ZN5alloc4sync16Arc$LT$T$C$A$GT$9drop_slow17h9d4d3e529ec9deb6E', symObjAddr: 0x39568, symBinAddr: 0x40310, symSize: 0x2C }
  - { offset: 0xC514D, size: 0x8, addend: 0x0, symName: '__ZN5alloc4sync16Arc$LT$T$C$A$GT$9drop_slow17hcdc4884edf2028d1E', symObjAddr: 0x39594, symBinAddr: 0x4033C, symSize: 0xA0 }
  - { offset: 0xC54C8, size: 0x8, addend: 0x0, symName: '__ZN5alloc4sync16Arc$LT$T$C$A$GT$9drop_slow17hfb67952ed4e6e214E', symObjAddr: 0x39634, symBinAddr: 0x403DC, symSize: 0xC0 }
  - { offset: 0xC6037, size: 0x8, addend: 0x0, symName: __ZN6object4read7archive13ArchiveMember5parse17h9aa31a58ad5b9544E, symObjAddr: 0x45FD8, symBinAddr: 0x47BC0, symSize: 0x598 }
  - { offset: 0xC73AF, size: 0x8, addend: 0x0, symName: '__ZN9addr2line4unit16ResUnit$LT$R$GT$25find_function_or_location28_$u7b$$u7b$closure$u7d$$u7d$17h4e866b147d18c9b8E', symObjAddr: 0x4CBD8, symBinAddr: 0x49E88, symSize: 0x310 }
  - { offset: 0xC7741, size: 0x8, addend: 0x0, symName: '__ZN9addr2line4unit16ResUnit$LT$R$GT$25find_function_or_location17hafbc6b9d9ff53700E', symObjAddr: 0x4C858, symBinAddr: 0x49B08, symSize: 0x380 }
  - { offset: 0xC7C66, size: 0x8, addend: 0x0, symName: '__ZN9addr2line16Context$LT$R$GT$9find_unit17h485426245181a6dcE', symObjAddr: 0x4C28C, symBinAddr: 0x4953C, symSize: 0x15C }
  - { offset: 0xC7DE7, size: 0x8, addend: 0x0, symName: '__ZN9addr2line6lookup30LoopingLookup$LT$T$C$L$C$F$GT$10new_lookup17hb2f1ecfb9b5a84caE', symObjAddr: 0x4D1A8, symBinAddr: 0x4A458, symSize: 0x430 }
  - { offset: 0xC83DD, size: 0x8, addend: 0x0, symName: __ZN9addr2line4line11render_file17h085773b8bac0fe9eE, symObjAddr: 0x4C3E8, symBinAddr: 0x49698, symSize: 0x470 }
  - { offset: 0xC8ECB, size: 0x8, addend: 0x0, symName: '__ZN9addr2line8function17Function$LT$R$GT$14parse_children17h2b0cdfd636c6d6deE', symObjAddr: 0x4D93C, symBinAddr: 0x4ABEC, symSize: 0xE7C }
  - { offset: 0xCA772, size: 0x8, addend: 0x0, symName: __ZN9addr2line8function10name_entry17h5366dd95e36d4758E, symObjAddr: 0x4D5D8, symBinAddr: 0x4A888, symSize: 0x364 }
  - { offset: 0xCAC62, size: 0x8, addend: 0x0, symName: __ZN9addr2line8function9name_attr17hccbb54a0d73a1a8bE, symObjAddr: 0x4E7B8, symBinAddr: 0x4BA68, symSize: 0x1C0 }
  - { offset: 0xCAE4E, size: 0x8, addend: 0x0, symName: '__ZN9addr2line5frame18FrameIter$LT$R$GT$4next17h2ba3b0627a0239ceE', symObjAddr: 0x4CEE8, symBinAddr: 0x4A198, symSize: 0x2C0 }
  - { offset: 0xCB79F, size: 0x8, addend: 0x0, symName: '__ZN5gimli4read5dwarf14Dwarf$LT$R$GT$11attr_string17he154349ba08be5a0E', symObjAddr: 0x3EFA4, symBinAddr: 0x455F0, symSize: 0x220 }
  - { offset: 0xCBE56, size: 0x8, addend: 0x0, symName: '__ZN5gimli4read5dwarf13Unit$LT$R$GT$3new17h400d9e244b1626a5E', symObjAddr: 0x3D334, symBinAddr: 0x43980, symSize: 0x1C70 }
  - { offset: 0xCF7DF, size: 0x8, addend: 0x0, symName: '__ZN5gimli4read7aranges30ArangeHeader$LT$R$C$Offset$GT$5parse17h20d51668ce2d6637E', symObjAddr: 0x3FE24, symBinAddr: 0x46470, symSize: 0x2A8 }
  - { offset: 0xD01AA, size: 0x8, addend: 0x0, symName: '__ZN5gimli4read4unit18Attribute$LT$R$GT$5value17h81c3099e26c0e9d3E', symObjAddr: 0x3C3E4, symBinAddr: 0x42A30, symSize: 0x654 }
  - { offset: 0xD0581, size: 0x8, addend: 0x0, symName: '__ZN90_$LT$gimli..read..unit..AttributeValue$LT$R$C$Offset$GT$$u20$as$u20$core..clone..Clone$GT$5clone17hef8533b4a5b56874E', symObjAddr: 0x4AFCC, symBinAddr: 0x48CA0, symSize: 0x68 }
  - { offset: 0xD05DC, size: 0x8, addend: 0x0, symName: '__ZN5gimli4read4unit32AttributeValue$LT$R$C$Offset$GT$8u8_value17h6289747ce1bc1c8aE', symObjAddr: 0x3CCF0, symBinAddr: 0x4333C, symSize: 0x94 }
  - { offset: 0xD0613, size: 0x8, addend: 0x0, symName: '__ZN5gimli4read4unit32AttributeValue$LT$R$C$Offset$GT$9u16_value17h78f20af31e13b996E', symObjAddr: 0x3CD84, symBinAddr: 0x433D0, symSize: 0x94 }
  - { offset: 0xD068C, size: 0x8, addend: 0x0, symName: __ZN5gimli4read4unit15parse_attribute17h8c90b5e54a619388E, symObjAddr: 0x3B004, symBinAddr: 0x41650, symSize: 0xF74 }
  - { offset: 0xD2ED9, size: 0x8, addend: 0x0, symName: __ZN5gimli4read4unit15skip_attributes17hbaf24547b98a9a8eE, symObjAddr: 0x3BF78, symBinAddr: 0x425C4, symSize: 0x46C }
  - { offset: 0xD37AB, size: 0x8, addend: 0x0, symName: '__ZN5gimli4read4unit22EntriesCursor$LT$R$GT$10next_entry17h6a357731a4552903E', symObjAddr: 0x3CA38, symBinAddr: 0x43084, symSize: 0x2B8 }
  - { offset: 0xD3D53, size: 0x8, addend: 0x0, symName: '__ZN5gimli4read4unit33DebugInfoUnitHeadersIter$LT$R$GT$4next17h6fead1a387021658E', symObjAddr: 0x3CE18, symBinAddr: 0x43464, symSize: 0x51C }
  - { offset: 0xD4F4D, size: 0x8, addend: 0x0, symName: __ZN5gimli4read6reader6Reader11read_offset17hf7d76506f84029ebE, symObjAddr: 0x3F970, symBinAddr: 0x45FBC, symSize: 0xB4 }
  - { offset: 0xD5142, size: 0x8, addend: 0x0, symName: __ZN5gimli4read6reader6Reader12read_sleb12817h6d90c181d967cff9E, symObjAddr: 0x3FA24, symBinAddr: 0x46070, symSize: 0x23C }
  - { offset: 0xD5212, size: 0x8, addend: 0x0, symName: __ZN5gimli4read6reader6Reader12read_uleb12817hfc663b7a6ef2b5adE, symObjAddr: 0x3FC60, symBinAddr: 0x462AC, symSize: 0xB8 }
  - { offset: 0xD52CF, size: 0x8, addend: 0x0, symName: __ZN5gimli4read6reader6Reader17read_sized_offset17h01b647283d461fdfE, symObjAddr: 0x3FD18, symBinAddr: 0x46364, symSize: 0x10C }
  - { offset: 0xD58FE, size: 0x8, addend: 0x0, symName: '__ZN5gimli4read8rnglists20RngListIter$LT$R$GT$4next17heee1885f9dd2ec49E', symObjAddr: 0x400CC, symBinAddr: 0x46718, symSize: 0xCD4 }
  - { offset: 0xD80F0, size: 0x8, addend: 0x0, symName: '__ZN5gimli4read5index18UnitIndex$LT$R$GT$5parse17hafff2d54389f565fE', symObjAddr: 0x3F1C4, symBinAddr: 0x45810, symSize: 0x7AC }
  - { offset: 0xD87CA, size: 0x8, addend: 0x0, symName: '__ZN5gimli4read4line27FileEntry$LT$R$C$Offset$GT$5parse17h2c6ab2f1a36bd80aE', symObjAddr: 0x3ADE8, symBinAddr: 0x41434, symSize: 0x21C }
  - { offset: 0xD8A8B, size: 0x8, addend: 0x0, symName: __ZN5gimli4read4line13parse_file_v517h94b73e56932facadE, symObjAddr: 0x39E98, symBinAddr: 0x404E4, symSize: 0x2A8 }
  - { offset: 0xD8C31, size: 0x8, addend: 0x0, symName: __ZN5gimli4read4line15FileEntryFormat5parse17hcf9d6022172f9fcfE, symObjAddr: 0x3A140, symBinAddr: 0x4078C, symSize: 0x350 }
  - { offset: 0xD9458, size: 0x8, addend: 0x0, symName: __ZN5gimli4read4line15parse_attribute17h973ae6180450771dE, symObjAddr: 0x3A490, symBinAddr: 0x40ADC, symSize: 0x874 }
  - { offset: 0xDA9F5, size: 0x8, addend: 0x0, symName: __ZN5gimli4read4line18parse_directory_v517h25176f2ce75ce1baE, symObjAddr: 0x3AD04, symBinAddr: 0x41350, symSize: 0xE4 }
  - { offset: 0xDAAC8, size: 0x8, addend: 0x0, symName: '__ZN85_$LT$gimli..read..line..FileEntry$LT$R$C$Offset$GT$$u20$as$u20$core..clone..Clone$GT$5clone17h44768d28f42098d8E', symObjAddr: 0x4A8D4, symBinAddr: 0x489FC, symSize: 0x1D4 }
  - { offset: 0xDACEC, size: 0x8, addend: 0x0, symName: _OUTLINED_FUNCTION_0, symObjAddr: 0x4EDFC, symBinAddr: 0x4BFA0, symSize: 0xC }
  - { offset: 0xDAD04, size: 0x8, addend: 0x0, symName: _OUTLINED_FUNCTION_1, symObjAddr: 0x4EE08, symBinAddr: 0x4BFAC, symSize: 0x8 }
  - { offset: 0xDAD1C, size: 0x8, addend: 0x0, symName: _OUTLINED_FUNCTION_2, symObjAddr: 0x4EE10, symBinAddr: 0x4BFB4, symSize: 0xC }
  - { offset: 0xDAD34, size: 0x8, addend: 0x0, symName: _OUTLINED_FUNCTION_3, symObjAddr: 0x4EE1C, symBinAddr: 0x4BFC0, symSize: 0xC }
  - { offset: 0xDAD4C, size: 0x8, addend: 0x0, symName: _OUTLINED_FUNCTION_4, symObjAddr: 0x4EE28, symBinAddr: 0x4BFCC, symSize: 0x10 }
  - { offset: 0xDAD64, size: 0x8, addend: 0x0, symName: _OUTLINED_FUNCTION_5, symObjAddr: 0x4EE38, symBinAddr: 0x4BFDC, symSize: 0x10 }
  - { offset: 0xDAD7C, size: 0x8, addend: 0x0, symName: _OUTLINED_FUNCTION_6, symObjAddr: 0x4EE48, symBinAddr: 0x4BFEC, symSize: 0xC }
  - { offset: 0xDAD94, size: 0x8, addend: 0x0, symName: _OUTLINED_FUNCTION_7, symObjAddr: 0x4EE54, symBinAddr: 0x4BFF8, symSize: 0xC }
  - { offset: 0xDADAC, size: 0x8, addend: 0x0, symName: _OUTLINED_FUNCTION_8, symObjAddr: 0x4EE60, symBinAddr: 0x4C004, symSize: 0xC }
  - { offset: 0xDADC4, size: 0x8, addend: 0x0, symName: _OUTLINED_FUNCTION_9, symObjAddr: 0x4EE6C, symBinAddr: 0x4C010, symSize: 0xC }
  - { offset: 0xDADDC, size: 0x8, addend: 0x0, symName: _OUTLINED_FUNCTION_10, symObjAddr: 0x4EE78, symBinAddr: 0x4C01C, symSize: 0x8 }
  - { offset: 0xDADF4, size: 0x8, addend: 0x0, symName: _OUTLINED_FUNCTION_11, symObjAddr: 0x4EE80, symBinAddr: 0x4C024, symSize: 0x8 }
  - { offset: 0xDAE0C, size: 0x8, addend: 0x0, symName: _OUTLINED_FUNCTION_12, symObjAddr: 0x4EE88, symBinAddr: 0x4C02C, symSize: 0x24 }
  - { offset: 0xDAE24, size: 0x8, addend: 0x0, symName: _OUTLINED_FUNCTION_13, symObjAddr: 0x4EEAC, symBinAddr: 0x4C050, symSize: 0x8 }
  - { offset: 0xDAE3C, size: 0x8, addend: 0x0, symName: _OUTLINED_FUNCTION_14, symObjAddr: 0x4EEB4, symBinAddr: 0x4C058, symSize: 0x14 }
  - { offset: 0xDAE54, size: 0x8, addend: 0x0, symName: _OUTLINED_FUNCTION_15, symObjAddr: 0x4EEC8, symBinAddr: 0x4C06C, symSize: 0xC }
  - { offset: 0xDAE6C, size: 0x8, addend: 0x0, symName: _OUTLINED_FUNCTION_16, symObjAddr: 0x4EED4, symBinAddr: 0x4C078, symSize: 0x10 }
  - { offset: 0xDAE84, size: 0x8, addend: 0x0, symName: _OUTLINED_FUNCTION_17, symObjAddr: 0x4EEE4, symBinAddr: 0x4C088, symSize: 0x10 }
  - { offset: 0xDAE9C, size: 0x8, addend: 0x0, symName: _OUTLINED_FUNCTION_18, symObjAddr: 0x4EEF4, symBinAddr: 0x4C098, symSize: 0x8 }
  - { offset: 0xDAEB4, size: 0x8, addend: 0x0, symName: _OUTLINED_FUNCTION_19, symObjAddr: 0x4EEFC, symBinAddr: 0x4C0A0, symSize: 0x8 }
  - { offset: 0xDAECC, size: 0x8, addend: 0x0, symName: _OUTLINED_FUNCTION_20, symObjAddr: 0x4EF04, symBinAddr: 0x4C0A8, symSize: 0x8 }
  - { offset: 0xDAEE4, size: 0x8, addend: 0x0, symName: _OUTLINED_FUNCTION_21, symObjAddr: 0x4EF0C, symBinAddr: 0x4C0B0, symSize: 0x18 }
  - { offset: 0xDAEFC, size: 0x8, addend: 0x0, symName: _OUTLINED_FUNCTION_22, symObjAddr: 0x4EF24, symBinAddr: 0x4C0C8, symSize: 0x18 }
  - { offset: 0xDAF14, size: 0x8, addend: 0x0, symName: _OUTLINED_FUNCTION_23, symObjAddr: 0x4EF3C, symBinAddr: 0x4C0E0, symSize: 0x8 }
  - { offset: 0xDAF2C, size: 0x8, addend: 0x0, symName: _OUTLINED_FUNCTION_25, symObjAddr: 0x4EF50, symBinAddr: 0x4C0E8, symSize: 0xC }
  - { offset: 0xDAF44, size: 0x8, addend: 0x0, symName: _OUTLINED_FUNCTION_26, symObjAddr: 0x4EF5C, symBinAddr: 0x4C0F4, symSize: 0x8 }
  - { offset: 0xDAF5C, size: 0x8, addend: 0x0, symName: _OUTLINED_FUNCTION_27, symObjAddr: 0x4EF64, symBinAddr: 0x4C0FC, symSize: 0xC }
  - { offset: 0xDAF74, size: 0x8, addend: 0x0, symName: _OUTLINED_FUNCTION_28, symObjAddr: 0x4EF70, symBinAddr: 0x4C108, symSize: 0x8 }
  - { offset: 0xDAF8C, size: 0x8, addend: 0x0, symName: _OUTLINED_FUNCTION_29, symObjAddr: 0x4EF78, symBinAddr: 0x4C110, symSize: 0xC }
  - { offset: 0xDAFA4, size: 0x8, addend: 0x0, symName: _OUTLINED_FUNCTION_30, symObjAddr: 0x4EF84, symBinAddr: 0x4C11C, symSize: 0x8 }
  - { offset: 0xDAFBC, size: 0x8, addend: 0x0, symName: _OUTLINED_FUNCTION_31, symObjAddr: 0x4EF8C, symBinAddr: 0x4C124, symSize: 0xC }
  - { offset: 0xDAFD4, size: 0x8, addend: 0x0, symName: _OUTLINED_FUNCTION_32, symObjAddr: 0x4EF98, symBinAddr: 0x4C130, symSize: 0x8 }
  - { offset: 0xDAFEC, size: 0x8, addend: 0x0, symName: _OUTLINED_FUNCTION_33, symObjAddr: 0x4EFA0, symBinAddr: 0x4C138, symSize: 0xC }
  - { offset: 0xDB004, size: 0x8, addend: 0x0, symName: _OUTLINED_FUNCTION_34, symObjAddr: 0x4EFAC, symBinAddr: 0x4C144, symSize: 0xC }
  - { offset: 0xDB01C, size: 0x8, addend: 0x0, symName: _OUTLINED_FUNCTION_35, symObjAddr: 0x4EFB8, symBinAddr: 0x4C150, symSize: 0x10 }
  - { offset: 0xDB034, size: 0x8, addend: 0x0, symName: _OUTLINED_FUNCTION_36, symObjAddr: 0x4EFC8, symBinAddr: 0x4C160, symSize: 0x14 }
  - { offset: 0xDB04C, size: 0x8, addend: 0x0, symName: _OUTLINED_FUNCTION_37, symObjAddr: 0x4EFDC, symBinAddr: 0x4C174, symSize: 0x14 }
  - { offset: 0xDB064, size: 0x8, addend: 0x0, symName: _OUTLINED_FUNCTION_38, symObjAddr: 0x4EFF0, symBinAddr: 0x4C188, symSize: 0xC }
  - { offset: 0xDB07C, size: 0x8, addend: 0x0, symName: _OUTLINED_FUNCTION_39, symObjAddr: 0x4EFFC, symBinAddr: 0x4C194, symSize: 0xC }
  - { offset: 0xDB094, size: 0x8, addend: 0x0, symName: _OUTLINED_FUNCTION_40, symObjAddr: 0x4F008, symBinAddr: 0x4C1A0, symSize: 0xC }
  - { offset: 0xDB0AC, size: 0x8, addend: 0x0, symName: _OUTLINED_FUNCTION_41, symObjAddr: 0x4F014, symBinAddr: 0x4C1AC, symSize: 0x14 }
  - { offset: 0xDB0C4, size: 0x8, addend: 0x0, symName: _OUTLINED_FUNCTION_42, symObjAddr: 0x4F028, symBinAddr: 0x4C1C0, symSize: 0xC }
  - { offset: 0xDB0DC, size: 0x8, addend: 0x0, symName: _OUTLINED_FUNCTION_43, symObjAddr: 0x4F034, symBinAddr: 0x4C1CC, symSize: 0x14 }
  - { offset: 0xDB0F4, size: 0x8, addend: 0x0, symName: _OUTLINED_FUNCTION_44, symObjAddr: 0x4F048, symBinAddr: 0x4C1E0, symSize: 0x14 }
  - { offset: 0xDB10C, size: 0x8, addend: 0x0, symName: _OUTLINED_FUNCTION_45, symObjAddr: 0x4F05C, symBinAddr: 0x4C1F4, symSize: 0xC }
  - { offset: 0xDB141, size: 0x8, addend: 0x0, symName: __RNvCs5QKde7ScR4H_7___rustc18___rust_start_panic, symObjAddr: 0x0, symBinAddr: 0x4C200, symSize: 0xA0 }
  - { offset: 0xDB27F, size: 0x8, addend: 0x0, symName: __ZN12panic_unwind3imp5panic17exception_cleanup17h422a4f5df43e6584E, symObjAddr: 0x108, symBinAddr: 0x4C308, symSize: 0x18 }
  - { offset: 0xDB29B, size: 0x8, addend: 0x0, symName: __RNvCs5QKde7ScR4H_7___rustc18___rust_start_panic, symObjAddr: 0x0, symBinAddr: 0x4C200, symSize: 0xA0 }
  - { offset: 0xDB33C, size: 0x8, addend: 0x0, symName: __RNvCs5QKde7ScR4H_7___rustc20___rust_panic_cleanup, symObjAddr: 0xA0, symBinAddr: 0x4C2A0, symSize: 0x68 }
  - { offset: 0xDB458, size: 0x8, addend: 0x0, symName: '__ZN4core3ptr49drop_in_place$LT$panic_unwind..imp..Exception$GT$17h86c19963f3bb4ddfE', symObjAddr: 0x120, symBinAddr: 0x4C320, symSize: 0x78 }
  - { offset: 0xDB5B4, size: 0x8, addend: 0x0, symName: '__ZN4core3ptr74drop_in_place$LT$alloc..boxed..Box$LT$panic_unwind..imp..Exception$GT$$GT$17hd3523428b22dea99E', symObjAddr: 0x198, symBinAddr: 0x4C398, symSize: 0x8C }
  - { offset: 0xDB93B, size: 0x8, addend: 0x0, symName: __ZN5alloc5alloc18handle_alloc_error17h3b40831c24d87d14E, symObjAddr: 0x2E34, symBinAddr: 0x5FA00, symSize: 0x18 }
  - { offset: 0xDB993, size: 0x8, addend: 0x0, symName: '__ZN254_$LT$alloc..boxed..convert..$LT$impl$u20$core..convert..From$LT$alloc..string..String$GT$$u20$for$u20$alloc..boxed..Box$LT$dyn$u20$core..error..Error$u2b$core..marker..Sync$u2b$core..marker..Send$GT$$GT$..from..StringError$u20$as$u20$core..fmt..Debug$GT$3fmt17hc446d6bac796637dE', symObjAddr: 0xA8, symBinAddr: 0x53DA8, symSize: 0x10 }
  - { offset: 0xDBA64, size: 0x8, addend: 0x0, symName: '__ZN256_$LT$alloc..boxed..convert..$LT$impl$u20$core..convert..From$LT$alloc..string..String$GT$$u20$for$u20$alloc..boxed..Box$LT$dyn$u20$core..error..Error$u2b$core..marker..Sync$u2b$core..marker..Send$GT$$GT$..from..StringError$u20$as$u20$core..fmt..Display$GT$3fmt17h90f9c27648ab0a85E', symObjAddr: 0xB8, symBinAddr: 0x53DB8, symSize: 0x10 }
  - { offset: 0xDBB43, size: 0x8, addend: 0x0, symName: __ZN5alloc3ffi5c_str7CString19_from_vec_unchecked17hd89d9cf25fc29871E, symObjAddr: 0x8D4, symBinAddr: 0x53F98, symSize: 0x118 }
  - { offset: 0xDBEC8, size: 0x8, addend: 0x0, symName: '__ZN72_$LT$$RF$str$u20$as$u20$alloc..ffi..c_str..CString..new..SpecNewImpl$GT$13spec_new_impl17h068225ac1de54212E', symObjAddr: 0x4C64, symBinAddr: 0x54578, symSize: 0x114 }
  - { offset: 0xDC15B, size: 0x8, addend: 0x0, symName: '__ZN81_$LT$$RF$$u5b$u8$u5d$$u20$as$u20$alloc..ffi..c_str..CString..new..SpecNewImpl$GT$13spec_new_impl17h96039c7f2f5d861bE', symObjAddr: 0x518C, symBinAddr: 0x5468C, symSize: 0x114 }
  - { offset: 0xDC563, size: 0x8, addend: 0x0, symName: '__ZN5alloc7raw_vec20RawVecInner$LT$A$GT$11finish_grow17h1f24ed514a1bb79eE', symObjAddr: 0x47A4, symBinAddr: 0x5FA4C, symSize: 0x8C }
  - { offset: 0xDC770, size: 0x8, addend: 0x0, symName: __ZN5alloc7raw_vec12handle_error17h97e8d61a4c5683faE, symObjAddr: 0x4710, symBinAddr: 0x5FA18, symSize: 0x14 }
  - { offset: 0xDC7B6, size: 0x8, addend: 0x0, symName: __ZN5alloc7raw_vec17capacity_overflow17h4852277d44d1c1c9E, symObjAddr: 0x4724, symBinAddr: 0x5FA2C, symSize: 0x20 }
  - { offset: 0xDC7E7, size: 0x8, addend: 0x0, symName: '__ZN5alloc7raw_vec20RawVecInner$LT$A$GT$7reserve21do_reserve_and_handle17h90b3837adf483826E', symObjAddr: 0x4830, symBinAddr: 0x5FAD8, symSize: 0x78 }
  - { offset: 0xDCA52, size: 0x8, addend: 0x0, symName: '__ZN5alloc3vec16Vec$LT$T$C$A$GT$9split_off13assert_failed17h44943d4f5ee994f7E', symObjAddr: 0x1FF0, symBinAddr: 0x5F9DC, symSize: 0x24 }
  - { offset: 0xDCB15, size: 0x8, addend: 0x0, symName: __ZN5alloc6string6String15from_utf8_lossy17hde2382a5883ef92eE, symObjAddr: 0x3D68, symBinAddr: 0x542D8, symSize: 0x21C }
  - { offset: 0xDD09E, size: 0x8, addend: 0x0, symName: '__ZN58_$LT$alloc..string..String$u20$as$u20$core..fmt..Write$GT$10write_char17h9904efafb51f78b8E', symObjAddr: 0x1C4, symBinAddr: 0x53E08, symSize: 0x118 }
  - { offset: 0xDD241, size: 0x8, addend: 0x0, symName: '__ZN58_$LT$alloc..string..String$u20$as$u20$core..fmt..Write$GT$9write_str17h3ffaf0979099dce0E', symObjAddr: 0x2DC, symBinAddr: 0x53F20, symSize: 0x78 }
  - { offset: 0xDD3A7, size: 0x8, addend: 0x0, symName: '__ZN98_$LT$alloc..string..String$u20$as$u20$core..convert..From$LT$alloc..borrow..Cow$LT$str$GT$$GT$$GT$4from17h8575f17583162c5bE', symObjAddr: 0x58E4, symBinAddr: 0x547A0, symSize: 0x94 }
  - { offset: 0xDD4E9, size: 0x8, addend: 0x0, symName: '__ZN60_$LT$alloc..string..String$u20$as$u20$core..clone..Clone$GT$5clone17h65381f6df886e978E', symObjAddr: 0x4924, symBinAddr: 0x544F4, symSize: 0x70 }
  - { offset: 0xDD65A, size: 0x8, addend: 0x0, symName: __ZN5alloc3fmt6format12format_inner17hfd66a10598e1d54bE, symObjAddr: 0xABC, symBinAddr: 0x540B0, symSize: 0x1B4 }
  - { offset: 0xDD954, size: 0x8, addend: 0x0, symName: __ZN5alloc4sync32arcinner_layout_for_value_layout17hcd6ab4ca88c09aebE, symObjAddr: 0x2014, symBinAddr: 0x54264, symSize: 0x74 }
  - { offset: 0xDDAEB, size: 0x8, addend: 0x0, symName: '__ZN4core3ptr42drop_in_place$LT$alloc..string..String$GT$17hb29ec7c9ad6ce287E', symObjAddr: 0x104, symBinAddr: 0x53DDC, symSize: 0x18 }
  - { offset: 0xDDCA0, size: 0x8, addend: 0x0, symName: __ZN4core3fmt5Write9write_fmt17h5b4f4a91d7d72e0fE, symObjAddr: 0xD8, symBinAddr: 0x53DC8, symSize: 0x14 }
  - { offset: 0xDDCE2, size: 0x8, addend: 0x0, symName: '__ZN53_$LT$core..fmt..Error$u20$as$u20$core..fmt..Debug$GT$3fmt17hae3bab0f290aff5aE', symObjAddr: 0x14C, symBinAddr: 0x53DF4, symSize: 0x14 }
  - { offset: 0xDDE73, size: 0x8, addend: 0x0, symName: '__ZN69_$LT$core..alloc..layout..LayoutError$u20$as$u20$core..fmt..Debug$GT$3fmt17h51ac2ee096977db1E', symObjAddr: 0x4C50, symBinAddr: 0x54564, symSize: 0x14 }
  - { offset: 0xDDED8, size: 0x8, addend: 0x0, symName: _OUTLINED_FUNCTION_0, symObjAddr: 0x5978, symBinAddr: 0x54834, symSize: 0x20 }
  - { offset: 0xDDEF0, size: 0x8, addend: 0x0, symName: _OUTLINED_FUNCTION_1, symObjAddr: 0x5998, symBinAddr: 0x54854, symSize: 0x8 }
  - { offset: 0xDDF47, size: 0x8, addend: 0x0, symName: '__ZN71_$LT$core..ops..range..Range$LT$Idx$GT$$u20$as$u20$core..fmt..Debug$GT$3fmt17h11f4633ee40cde50E', symObjAddr: 0x1B7F8, symBinAddr: 0x59534, symSize: 0x5C }
  - { offset: 0xDE179, size: 0x8, addend: 0x0, symName: '__ZN4core4char7methods22_$LT$impl$u20$char$GT$16escape_debug_ext17h3246e5c7618a6259E', symObjAddr: 0x14964, symBinAddr: 0x589D4, symSize: 0x284 }
  - { offset: 0xDE505, size: 0x8, addend: 0x0, symName: '__ZN73_$LT$core..num..nonzero..NonZero$LT$T$GT$$u20$as$u20$core..fmt..Debug$GT$3fmt17hcfa91826c138d80fE', symObjAddr: 0x1BB10, symBinAddr: 0x595A4, symSize: 0x28 }
  - { offset: 0xDE553, size: 0x8, addend: 0x0, symName: '__ZN72_$LT$core..num..error..TryFromIntError$u20$as$u20$core..fmt..Display$GT$3fmt17ha4432a105d452806E', symObjAddr: 0x1B9E8, symBinAddr: 0x59590, symSize: 0x14 }
  - { offset: 0xDE71D, size: 0x8, addend: 0x0, symName: '__ZN68_$LT$core..ptr..alignment..Alignment$u20$as$u20$core..fmt..Debug$GT$3fmt17h67dacd3d6663b7b1E', symObjAddr: 0x1A988, symBinAddr: 0x594D4, symSize: 0x60 }
  - { offset: 0xDE88C, size: 0x8, addend: 0x0, symName: __ZN4core6option13expect_failed17h5631e2cc858bf370E, symObjAddr: 0x150D8, symBinAddr: 0x5FC90, symSize: 0x30 }
  - { offset: 0xDE8BC, size: 0x8, addend: 0x0, symName: __ZN4core6option13unwrap_failed17h166c889ad3161268E, symObjAddr: 0x15108, symBinAddr: 0x5FCC0, symSize: 0x1C }
  - { offset: 0xDECDB, size: 0x8, addend: 0x0, symName: __ZN4core5slice5index16slice_index_fail17h5480dafd3d82e600E, symObjAddr: 0x14E28, symBinAddr: 0x5FBDC, symSize: 0xB4 }
  - { offset: 0xDEDB3, size: 0x8, addend: 0x0, symName: __ZN4core5slice6memchr14memchr_aligned17h658be0064b80f016E, symObjAddr: 0x14EDC, symBinAddr: 0x58C84, symSize: 0xDC }
  - { offset: 0xDEDCA, size: 0x8, addend: 0x0, symName: __ZN4core5slice6memchr14memchr_aligned17h658be0064b80f016E, symObjAddr: 0x14EDC, symBinAddr: 0x58C84, symSize: 0xDC }
  - { offset: 0xDEDDF, size: 0x8, addend: 0x0, symName: __ZN4core5slice6memchr14memchr_aligned17h658be0064b80f016E, symObjAddr: 0x14EDC, symBinAddr: 0x58C84, symSize: 0xDC }
  - { offset: 0xDEDF3, size: 0x8, addend: 0x0, symName: __ZN4core5slice6memchr14memchr_aligned17h658be0064b80f016E, symObjAddr: 0x14EDC, symBinAddr: 0x58C84, symSize: 0xDC }
  - { offset: 0xDEE08, size: 0x8, addend: 0x0, symName: __ZN4core5slice6memchr14memchr_aligned17h658be0064b80f016E, symObjAddr: 0x14EDC, symBinAddr: 0x58C84, symSize: 0xDC }
  - { offset: 0xDEEFF, size: 0x8, addend: 0x0, symName: __ZN4core5slice4sort6shared9smallsort22panic_on_ord_violation17h67b8176213e711b6E, symObjAddr: 0x14D2C, symBinAddr: 0x5FBBC, symSize: 0x20 }
  - { offset: 0xDEF26, size: 0x8, addend: 0x0, symName: __ZN4core5slice4sort6stable5drift11sqrt_approx17hb90d12192a85e22dE, symObjAddr: 0x14D4C, symBinAddr: 0x58C58, symSize: 0x2C }
  - { offset: 0xDF021, size: 0x8, addend: 0x0, symName: __ZN4core3fmt9Formatter10debug_list17h99697597ed026270E, symObjAddr: 0x964C, symBinAddr: 0x5657C, symSize: 0x48 }
  - { offset: 0xDF061, size: 0x8, addend: 0x0, symName: __ZN4core3fmt9Formatter11debug_tuple17hdd7c82e0f49ab5eaE, symObjAddr: 0x9694, symBinAddr: 0x565C4, symSize: 0x50 }
  - { offset: 0xDF0AF, size: 0x8, addend: 0x0, symName: __ZN4core3fmt9Formatter12debug_struct17h0a35edc54b908e18E, symObjAddr: 0x96E4, symBinAddr: 0x56614, symSize: 0x3C }
  - { offset: 0xDF115, size: 0x8, addend: 0x0, symName: __ZN4core3fmt9Formatter12pad_integral17h53df9aeab2bf6d7eE, symObjAddr: 0x979C, symBinAddr: 0x566CC, symSize: 0x3B4 }
  - { offset: 0xDF46B, size: 0x8, addend: 0x0, symName: __ZN4core3fmt9Formatter25debug_tuple_field1_finish17hfe3074b00f708274E, symObjAddr: 0xA008, symBinAddr: 0x56A80, symSize: 0x160 }
  - { offset: 0xDF666, size: 0x8, addend: 0x0, symName: __ZN4core3fmt9Formatter25debug_tuple_field2_finish17h4dc277e3104fd06eE, symObjAddr: 0xA168, symBinAddr: 0x56BE0, symSize: 0x1D8 }
  - { offset: 0xDF95E, size: 0x8, addend: 0x0, symName: __ZN4core3fmt9Formatter26debug_struct_field1_finish17h5faa61f6e05c87e5E, symObjAddr: 0xAF20, symBinAddr: 0x56DB8, symSize: 0xD0 }
  - { offset: 0xDFA2E, size: 0x8, addend: 0x0, symName: __ZN4core3fmt9Formatter26debug_struct_field2_finish17h13edb47884af88cbE, symObjAddr: 0xAFF0, symBinAddr: 0x56E88, symSize: 0x104 }
  - { offset: 0xDFB05, size: 0x8, addend: 0x0, symName: __ZN4core3fmt9Formatter3pad17h83cad1b52a97ef58E, symObjAddr: 0xB604, symBinAddr: 0x56F8C, symSize: 0x30C }
  - { offset: 0xDFE66, size: 0x8, addend: 0x0, symName: __ZN4core3fmt9Formatter9write_str17hbcdf83527753b9bcE, symObjAddr: 0xB9BC, symBinAddr: 0x57298, symSize: 0x10 }
  - { offset: 0xDFEED, size: 0x8, addend: 0x0, symName: __ZN4core3fmt8builders11DebugStruct5field17ha008bc786cd9a2fdE, symObjAddr: 0x8BB8, symBinAddr: 0x561B8, symSize: 0x1B4 }
  - { offset: 0xE00F9, size: 0x8, addend: 0x0, symName: __ZN4core3fmt8builders11DebugStruct6finish17h93a36d829051f804E, symObjAddr: 0x8D6C, symBinAddr: 0x5636C, symSize: 0x7C }
  - { offset: 0xE021C, size: 0x8, addend: 0x0, symName: __ZN4core3fmt8builders10DebugTuple5field17h37c648eaf108365eE, symObjAddr: 0x88D4, symBinAddr: 0x55FBC, symSize: 0x148 }
  - { offset: 0xE039A, size: 0x8, addend: 0x0, symName: __ZN4core3fmt8builders10DebugTuple6finish17h8aef907a98092ddfE, symObjAddr: 0x8A1C, symBinAddr: 0x56104, symSize: 0xB4 }
  - { offset: 0xE04D1, size: 0x8, addend: 0x0, symName: __ZN4core3fmt8builders8DebugSet5entry17h3629c8d83309d6d7E, symObjAddr: 0x93A4, symBinAddr: 0x563E8, symSize: 0x148 }
  - { offset: 0xE06AE, size: 0x8, addend: 0x0, symName: __ZN4core3fmt8builders9DebugList6finish17hed8c8fff9412d267E, symObjAddr: 0x9600, symBinAddr: 0x56530, symSize: 0x4C }
  - { offset: 0xE0729, size: 0x8, addend: 0x0, symName: '__ZN68_$LT$core..fmt..builders..PadAdapter$u20$as$u20$core..fmt..Write$GT$10write_char17h1f40c6c36619927aE', symObjAddr: 0x1A5B4, symBinAddr: 0x5922C, symSize: 0x80 }
  - { offset: 0xE0752, size: 0x8, addend: 0x0, symName: '__ZN68_$LT$core..fmt..builders..PadAdapter$u20$as$u20$core..fmt..Write$GT$9write_str17h739b9e2e5dbbd303E', symObjAddr: 0x1A634, symBinAddr: 0x592AC, symSize: 0x228 }
  - { offset: 0xE09CC, size: 0x8, addend: 0x0, symName: '__ZN57_$LT$core..fmt..Formatter$u20$as$u20$core..fmt..Write$GT$10write_char17h984cbaf3daf0c8adE', symObjAddr: 0x16E34, symBinAddr: 0x591E4, symSize: 0x10 }
  - { offset: 0xE0A06, size: 0x8, addend: 0x0, symName: '__ZN40_$LT$str$u20$as$u20$core..fmt..Debug$GT$3fmt17hd2d82a5aea2511e8E', symObjAddr: 0x2F4, symBinAddr: 0x5485C, symSize: 0x38C }
  - { offset: 0xE0EBA, size: 0x8, addend: 0x0, symName: '__ZN41_$LT$char$u20$as$u20$core..fmt..Debug$GT$3fmt17h71c213358e065a2cE', symObjAddr: 0x680, symBinAddr: 0x54BE8, symSize: 0xA8 }
  - { offset: 0xE10AE, size: 0x8, addend: 0x0, symName: '__ZN4core3fmt3num3imp21_$LT$impl$u20$u32$GT$10_fmt_inner17h5b2b8fa1eacc0bcfE', symObjAddr: 0x1D60, symBinAddr: 0x550BC, symSize: 0x1F0 }
  - { offset: 0xE1168, size: 0x8, addend: 0x0, symName: '__ZN4core3fmt3num3imp21_$LT$impl$u20$u64$GT$10_fmt_inner17hdc2ac0c47b5e6b6dE', symObjAddr: 0x1FAC, symBinAddr: 0x552AC, symSize: 0x1F8 }
  - { offset: 0xE1222, size: 0x8, addend: 0x0, symName: '__ZN4core3fmt3num3imp51_$LT$impl$u20$core..fmt..Display$u20$for$u20$u8$GT$3fmt17h2aac956623a4145cE', symObjAddr: 0x22D0, symBinAddr: 0x554A4, symSize: 0xB0 }
  - { offset: 0xE1307, size: 0x8, addend: 0x0, symName: '__ZN4core3fmt3num3imp52_$LT$impl$u20$core..fmt..Display$u20$for$u20$i32$GT$3fmt17h3e718042e4081c2fE', symObjAddr: 0x24A0, symBinAddr: 0x55554, symSize: 0x6C }
  - { offset: 0xE13B1, size: 0x8, addend: 0x0, symName: '__ZN4core3fmt3num3imp52_$LT$impl$u20$core..fmt..Display$u20$for$u20$i64$GT$3fmt17h1c68ce92ca359dc7E', symObjAddr: 0x250C, symBinAddr: 0x555C0, symSize: 0x6C }
  - { offset: 0xE145B, size: 0x8, addend: 0x0, symName: '__ZN4core3fmt3num3imp52_$LT$impl$u20$core..fmt..Display$u20$for$u20$u32$GT$3fmt17h00f747df55cb6d6eE', symObjAddr: 0x2680, symBinAddr: 0x5562C, symSize: 0x60 }
  - { offset: 0xE1503, size: 0x8, addend: 0x0, symName: '__ZN4core3fmt3num3imp52_$LT$impl$u20$core..fmt..Display$u20$for$u20$u64$GT$3fmt17h085de41122354ce6E', symObjAddr: 0x26E0, symBinAddr: 0x5568C, symSize: 0x60 }
  - { offset: 0xE15B9, size: 0x8, addend: 0x0, symName: '__ZN4core3fmt3num52_$LT$impl$u20$core..fmt..LowerHex$u20$for$u20$u8$GT$3fmt17had034a1db393ea33E', symObjAddr: 0x4528, symBinAddr: 0x559E0, symSize: 0x74 }
  - { offset: 0xE162B, size: 0x8, addend: 0x0, symName: '__ZN4core3fmt3num52_$LT$impl$u20$core..fmt..UpperHex$u20$for$u20$u8$GT$3fmt17h4329988f9618996cE', symObjAddr: 0x4610, symBinAddr: 0x55A54, symSize: 0x74 }
  - { offset: 0xE16B0, size: 0x8, addend: 0x0, symName: '__ZN4core3fmt3num53_$LT$impl$u20$core..fmt..LowerHex$u20$for$u20$i32$GT$3fmt17h669f6375ba8b2a89E', symObjAddr: 0x47D0, symBinAddr: 0x55AC8, symSize: 0x74 }
  - { offset: 0xE1737, size: 0x8, addend: 0x0, symName: '__ZN4core3fmt3num53_$LT$impl$u20$core..fmt..UpperHex$u20$for$u20$u32$GT$3fmt17hd468277648dc35fdE', symObjAddr: 0x4BE4, symBinAddr: 0x55D0C, symSize: 0x74 }
  - { offset: 0xE17A9, size: 0x8, addend: 0x0, symName: '__ZN4core3fmt3num53_$LT$impl$u20$core..fmt..UpperHex$u20$for$u20$i32$GT$3fmt17hcaa5ebb05661f33fE', symObjAddr: 0x4A88, symBinAddr: 0x55C24, symSize: 0x74 }
  - { offset: 0xE1830, size: 0x8, addend: 0x0, symName: '__ZN4core3fmt3num53_$LT$impl$u20$core..fmt..LowerHex$u20$for$u20$u64$GT$3fmt17h7e60cb090217ac48E', symObjAddr: 0x49A0, symBinAddr: 0x55BB0, symSize: 0x74 }
  - { offset: 0xE18A2, size: 0x8, addend: 0x0, symName: '__ZN4core3fmt3num53_$LT$impl$u20$core..fmt..LowerHex$u20$for$u20$i64$GT$3fmt17h8a6e748b7b98530fE', symObjAddr: 0x4844, symBinAddr: 0x55B3C, symSize: 0x74 }
  - { offset: 0xE1929, size: 0x8, addend: 0x0, symName: '__ZN4core3fmt3num53_$LT$impl$u20$core..fmt..UpperHex$u20$for$u20$u64$GT$3fmt17ha5992a64247d5125E', symObjAddr: 0x4C58, symBinAddr: 0x55D80, symSize: 0x74 }
  - { offset: 0xE199B, size: 0x8, addend: 0x0, symName: '__ZN4core3fmt3num53_$LT$impl$u20$core..fmt..UpperHex$u20$for$u20$i64$GT$3fmt17he045940fc332b671E', symObjAddr: 0x4AFC, symBinAddr: 0x55C98, symSize: 0x74 }
  - { offset: 0xE1A15, size: 0x8, addend: 0x0, symName: '__ZN4core3fmt3num50_$LT$impl$u20$core..fmt..Debug$u20$for$u20$u32$GT$3fmt17h694f7a791813447bE', symObjAddr: 0x3818, symBinAddr: 0x556EC, symSize: 0x100 }
  - { offset: 0xE1B31, size: 0x8, addend: 0x0, symName: '__ZN4core3fmt3num50_$LT$impl$u20$core..fmt..Debug$u20$for$u20$u64$GT$3fmt17h0e0cd6ae854f552bE', symObjAddr: 0x3918, symBinAddr: 0x557EC, symSize: 0xF4 }
  - { offset: 0xE1C60, size: 0x8, addend: 0x0, symName: '__ZN4core3fmt3num52_$LT$impl$u20$core..fmt..Debug$u20$for$u20$usize$GT$3fmt17hddf28bd83d4a73e6E', symObjAddr: 0x43B4, symBinAddr: 0x558E0, symSize: 0x100 }
  - { offset: 0xE1D7D, size: 0x8, addend: 0x0, symName: '__ZN42_$LT$$RF$T$u20$as$u20$core..fmt..Debug$GT$3fmt17h2b4b3f22ce4bee49E', symObjAddr: 0x7E4, symBinAddr: 0x54C90, symSize: 0x8 }
  - { offset: 0xE1D91, size: 0x8, addend: 0x0, symName: '__ZN42_$LT$$RF$T$u20$as$u20$core..fmt..Debug$GT$3fmt17h567a63fd3c782be8E', symObjAddr: 0x7FC, symBinAddr: 0x54C98, symSize: 0xC }
  - { offset: 0xE1DB9, size: 0x8, addend: 0x0, symName: '__ZN42_$LT$$RF$T$u20$as$u20$core..fmt..Debug$GT$3fmt17h9c2ce363ea8dcdd6E', symObjAddr: 0x808, symBinAddr: 0x54CA4, symSize: 0x164 }
  - { offset: 0xE1FDF, size: 0x8, addend: 0x0, symName: '__ZN42_$LT$$RF$T$u20$as$u20$core..fmt..Debug$GT$3fmt17ha3a50d16762be34eE', symObjAddr: 0x97C, symBinAddr: 0x54E08, symSize: 0x10 }
  - { offset: 0xE2006, size: 0x8, addend: 0x0, symName: '__ZN42_$LT$str$u20$as$u20$core..fmt..Display$GT$3fmt17hf7b0640df494d19dE', symObjAddr: 0x994, symBinAddr: 0x54E18, symSize: 0x14 }
  - { offset: 0xE202D, size: 0x8, addend: 0x0, symName: '__ZN43_$LT$char$u20$as$u20$core..fmt..Display$GT$3fmt17h69f073e2ae59c68fE', symObjAddr: 0x9DC, symBinAddr: 0x54E2C, symSize: 0xD4 }
  - { offset: 0xE20A3, size: 0x8, addend: 0x0, symName: '__ZN44_$LT$$RF$T$u20$as$u20$core..fmt..Display$GT$3fmt17hbdfe33b02e140eaaE', symObjAddr: 0xAC0, symBinAddr: 0x54F00, symSize: 0x10 }
  - { offset: 0xE20D5, size: 0x8, addend: 0x0, symName: __ZN4core3fmt17pointer_fmt_inner17h876b3aac0450430cE, symObjAddr: 0xF8C, symBinAddr: 0x55008, symSize: 0xB4 }
  - { offset: 0xE21A7, size: 0x8, addend: 0x0, symName: __ZN4core3fmt5Write9write_fmt17h1e83184835b6b465E, symObjAddr: 0x5D18, symBinAddr: 0x55DF4, symSize: 0x14 }
  - { offset: 0xE2237, size: 0x8, addend: 0x0, symName: __ZN4core3fmt5write17h8a52dffc4df6d016E, symObjAddr: 0x8660, symBinAddr: 0x55E08, symSize: 0x1B4 }
  - { offset: 0xE24BA, size: 0x8, addend: 0x0, symName: __ZN4core3fmt9Formatter12pad_integral12write_prefix17h8540e58600a8d620E, symObjAddr: 0x9720, symBinAddr: 0x56650, symSize: 0x7C }
  - { offset: 0xE2512, size: 0x8, addend: 0x0, symName: '__ZN59_$LT$core..fmt..Arguments$u20$as$u20$core..fmt..Display$GT$3fmt17hb7b02a08a820e227E', symObjAddr: 0x17A5C, symBinAddr: 0x591F4, symSize: 0x10 }
  - { offset: 0xE2649, size: 0x8, addend: 0x0, symName: __ZN4core6result13unwrap_failed17h74e6dfc470337e8fE, symObjAddr: 0x15124, symBinAddr: 0x5FCDC, symSize: 0x48 }
  - { offset: 0xE2850, size: 0x8, addend: 0x0, symName: __ZN4core3str5count14do_count_chars17hfa41c3400f716407E, symObjAddr: 0x13188, symBinAddr: 0x57508, symSize: 0x718 }
  - { offset: 0xE2C51, size: 0x8, addend: 0x0, symName: __ZN4core3str5count23char_count_general_case17h98131c11f985a4b2E, symObjAddr: 0x138A0, symBinAddr: 0x57C20, symSize: 0x2A8 }
  - { offset: 0xE2CFA, size: 0x8, addend: 0x0, symName: __ZN4core3str16slice_error_fail17hfa6331de2d59316eE, symObjAddr: 0x12DD4, symBinAddr: 0x5FB50, symSize: 0xC }
  - { offset: 0xE2D13, size: 0x8, addend: 0x0, symName: __ZN4core3str19slice_error_fail_rt17he10fa847ff1d6dbcE, symObjAddr: 0x12DFC, symBinAddr: 0x572A8, symSize: 0x260 }
  - { offset: 0xE2E52, size: 0x8, addend: 0x0, symName: __ZN4core3str7pattern11StrSearcher3new17h0e1f6acdaf8da818E, symObjAddr: 0x13B64, symBinAddr: 0x57EC8, symSize: 0x898 }
  - { offset: 0xE3113, size: 0x8, addend: 0x0, symName: __ZN4core3str8converts9from_utf817he9f0822f56a5cc24E, symObjAddr: 0x14670, symBinAddr: 0x58760, symSize: 0x274 }
  - { offset: 0xE3130, size: 0x8, addend: 0x0, symName: __ZN4core3str8converts9from_utf817he9f0822f56a5cc24E, symObjAddr: 0x14670, symBinAddr: 0x58760, symSize: 0x274 }
  - { offset: 0xE31B1, size: 0x8, addend: 0x0, symName: '__ZN87_$LT$core..str..lossy..Utf8Chunks$u20$as$u20$core..iter..traits..iterator..Iterator$GT$4next17ha0fc4a5921d75e86E', symObjAddr: 0x1D7A8, symBinAddr: 0x595CC, symSize: 0x1C0 }
  - { offset: 0xE33C6, size: 0x8, addend: 0x0, symName: __ZN4core3ffi5c_str4CStr19from_bytes_with_nul17hf744986151965e8bE, symObjAddr: 0xDAC, symBinAddr: 0x54F10, symSize: 0xF0 }
  - { offset: 0xE33E4, size: 0x8, addend: 0x0, symName: __ZN4core3ffi5c_str4CStr19from_bytes_with_nul17hf744986151965e8bE, symObjAddr: 0xDAC, symBinAddr: 0x54F10, symSize: 0xF0 }
  - { offset: 0xE34D2, size: 0x8, addend: 0x0, symName: __ZN4core3ffi5c_str4CStr6to_str17h22e8faedfe00081eE, symObjAddr: 0xF78, symBinAddr: 0x55000, symSize: 0x8 }
  - { offset: 0xE34F0, size: 0x8, addend: 0x0, symName: __ZN4core3ffi5c_str4CStr6to_str17h22e8faedfe00081eE, symObjAddr: 0xF78, symBinAddr: 0x55000, symSize: 0x8 }
  - { offset: 0xE3570, size: 0x8, addend: 0x0, symName: __ZN4core4cell22panic_already_borrowed17h82450002fb0f6e12E, symObjAddr: 0x148E4, symBinAddr: 0x5FB5C, symSize: 0x30 }
  - { offset: 0xE35DC, size: 0x8, addend: 0x0, symName: __ZN4core4cell30panic_already_mutably_borrowed17hf3151dd2154d9232E, symObjAddr: 0x14914, symBinAddr: 0x5FB8C, symSize: 0x30 }
  - { offset: 0xE3627, size: 0x8, addend: 0x0, symName: '__ZN62_$LT$core..cell..BorrowError$u20$as$u20$core..fmt..Display$GT$3fmt17h81a84bc40a3dc05eE', symObjAddr: 0x18A94, symBinAddr: 0x59204, symSize: 0x14 }
  - { offset: 0xE365E, size: 0x8, addend: 0x0, symName: '__ZN65_$LT$core..cell..BorrowMutError$u20$as$u20$core..fmt..Display$GT$3fmt17h7a70aa4f106ac567E', symObjAddr: 0x19194, symBinAddr: 0x59218, symSize: 0x14 }
  - { offset: 0xE36AD, size: 0x8, addend: 0x0, symName: __ZN4core7unicode12unicode_data15grapheme_extend11lookup_slow17hc505314b145fddb7E, symObjAddr: 0x15660, symBinAddr: 0x58D60, symSize: 0x108 }
  - { offset: 0xE3881, size: 0x8, addend: 0x0, symName: __ZN4core7unicode9printable12is_printable17hf49ebfc81508a009E, symObjAddr: 0x15B7C, symBinAddr: 0x58E68, symSize: 0x37C }
  - { offset: 0xE3B93, size: 0x8, addend: 0x0, symName: __ZN4core9panicking11panic_const23panic_const_div_by_zero17h78967d181699e063E, symObjAddr: 0x15EF8, symBinAddr: 0x5FD24, symSize: 0x1C }
  - { offset: 0xE3BAD, size: 0x8, addend: 0x0, symName: __ZN4core9panicking11panic_const23panic_const_rem_by_zero17h0a5afac2d947308bE, symObjAddr: 0x15F30, symBinAddr: 0x5FD40, symSize: 0x1C }
  - { offset: 0xE3BC7, size: 0x8, addend: 0x0, symName: __ZN4core9panicking11panic_const24panic_const_add_overflow17h9a54dd2018fe28a5E, symObjAddr: 0x15F4C, symBinAddr: 0x5FD5C, symSize: 0x1C }
  - { offset: 0xE3BE1, size: 0x8, addend: 0x0, symName: __ZN4core9panicking11panic_const24panic_const_mul_overflow17h2df0a6b85f3f29e8E, symObjAddr: 0x15F84, symBinAddr: 0x5FD78, symSize: 0x1C }
  - { offset: 0xE3BFB, size: 0x8, addend: 0x0, symName: __ZN4core9panicking11panic_const24panic_const_shl_overflow17h42137cea5e3de49aE, symObjAddr: 0x15FD8, symBinAddr: 0x5FD94, symSize: 0x1C }
  - { offset: 0xE3C15, size: 0x8, addend: 0x0, symName: __ZN4core9panicking11panic_const24panic_const_shr_overflow17hf148301cd30744a0E, symObjAddr: 0x15FF4, symBinAddr: 0x5FDB0, symSize: 0x1C }
  - { offset: 0xE3C2F, size: 0x8, addend: 0x0, symName: __ZN4core9panicking11panic_const24panic_const_sub_overflow17h4881deae0c1d7cedE, symObjAddr: 0x16010, symBinAddr: 0x5FDCC, symSize: 0x1C }
  - { offset: 0xE3C4A, size: 0x8, addend: 0x0, symName: __ZN4core9panicking13assert_failed17h03d286eacffdb44eE, symObjAddr: 0x16160, symBinAddr: 0x5FDE8, symSize: 0x28 }
  - { offset: 0xE3C65, size: 0x8, addend: 0x0, symName: __ZN4core9panicking13assert_failed17h2e8acd2f0cd32091E, symObjAddr: 0x16188, symBinAddr: 0x5FE10, symSize: 0x28 }
  - { offset: 0xE3C80, size: 0x8, addend: 0x0, symName: __ZN4core9panicking13assert_failed17hc6912d5c8ae31599E, symObjAddr: 0x161B0, symBinAddr: 0x5FE38, symSize: 0x28 }
  - { offset: 0xE3C9A, size: 0x8, addend: 0x0, symName: __ZN4core9panicking14panic_nounwind17h08cd4682ec06fdd2E, symObjAddr: 0x161D8, symBinAddr: 0x5FE60, symSize: 0x20 }
  - { offset: 0xE3CC8, size: 0x8, addend: 0x0, symName: __ZN4core9panicking16panic_in_cleanup17h62fee25f13dd543aE, symObjAddr: 0x16234, symBinAddr: 0x5FE80, symSize: 0x18 }
  - { offset: 0xE3CE2, size: 0x8, addend: 0x0, symName: __ZN4core9panicking18panic_bounds_check17h4d34bdab34d851beE, symObjAddr: 0x1624C, symBinAddr: 0x5FE98, symSize: 0x38 }
  - { offset: 0xE3D10, size: 0x8, addend: 0x0, symName: __ZN4core9panicking18panic_nounwind_fmt17h8c81167db7c868a6E, symObjAddr: 0x16284, symBinAddr: 0x5FED0, symSize: 0x30 }
  - { offset: 0xE3D54, size: 0x8, addend: 0x0, symName: __ZN4core9panicking19assert_failed_inner17hd9d71f5fdbb02a84E, symObjAddr: 0x162B4, symBinAddr: 0x5FF00, symSize: 0xBC }
  - { offset: 0xE3D6E, size: 0x8, addend: 0x0, symName: __ZN4core9panicking19panic_cannot_unwind17he03186bb60af78b0E, symObjAddr: 0x16370, symBinAddr: 0x5FFBC, symSize: 0x18 }
  - { offset: 0xE3D88, size: 0x8, addend: 0x0, symName: __ZN4core9panicking26panic_nounwind_nobacktrace17hdc754f5f6a967dc0E, symObjAddr: 0x16388, symBinAddr: 0x5FFD4, symSize: 0x20 }
  - { offset: 0xE3DB6, size: 0x8, addend: 0x0, symName: __ZN4core9panicking30panic_null_pointer_dereference17h8e4ef9d2b35570f1E, symObjAddr: 0x163A8, symBinAddr: 0x5FFF4, symSize: 0x1C }
  - { offset: 0xE3DD0, size: 0x8, addend: 0x0, symName: __ZN4core9panicking36panic_misaligned_pointer_dereference17h8117d42e3ed7c531E, symObjAddr: 0x163F8, symBinAddr: 0x60010, symSize: 0x3C }
  - { offset: 0xE3DEA, size: 0x8, addend: 0x0, symName: __ZN4core9panicking5panic17hed7fda4ddae1f714E, symObjAddr: 0x16434, symBinAddr: 0x6004C, symSize: 0x14 }
  - { offset: 0xE3E18, size: 0x8, addend: 0x0, symName: __ZN4core9panicking9panic_fmt17hc9b4228954207328E, symObjAddr: 0x16448, symBinAddr: 0x60060, symSize: 0x28 }
  - { offset: 0xE3E88, size: 0x8, addend: 0x0, symName: _OUTLINED_FUNCTION_0, symObjAddr: 0x1D9CC, symBinAddr: 0x5978C, symSize: 0x10 }
  - { offset: 0xE3EA0, size: 0x8, addend: 0x0, symName: _OUTLINED_FUNCTION_1, symObjAddr: 0x1D9DC, symBinAddr: 0x5979C, symSize: 0x8 }
...
